 leveldown

 Timestamp is 5bd07173 (Wed Oct 24 14:19:47 2018)

 Preferred load address is 0000000180000000

 Start         Length     Name                   Class
 0001:00000000 00000090H .text$di                CODE
 0001:00000090 0004fc80H .text$mn                CODE
 0001:0004fd10 00000020H .text$mn$00             CODE
 0001:0004fd30 00006690H .text$x                 CODE
 0001:000563c0 0000006eH .text$yd                CODE
 0002:00000000 00000320H .idata$5                DATA
 0002:00000320 00000010H .00cfg                  DATA
 0002:00000330 00000008H .CRT$XCA                DATA
 0002:00000338 00000028H .CRT$XCU                DATA
 0002:00000360 00000008H .CRT$XCZ                DATA
 0002:00000368 00000008H .CRT$XIA                DATA
 0002:00000370 00000020H .CRT$XIC                DATA
 0002:00000390 00000008H .CRT$XIZ                DATA
 0002:00000398 00000008H .CRT$XLA                DATA
 0002:000003a0 00000008H .CRT$XLZ                DATA
 0002:000003a8 00000008H .CRT$XPA                DATA
 0002:000003b0 00000010H .CRT$XPX                DATA
 0002:000003c0 00000008H .CRT$XPXA               DATA
 0002:000003c8 00000008H .CRT$XPZ                DATA
 0002:000003d0 00000008H .CRT$XTA                DATA
 0002:000003d8 00000008H .CRT$XTZ                DATA
 0002:000003e0 00012540H .rdata                  DATA
 0002:00012920 00000028H .rdata$T                DATA
 0002:00012948 00000404H .rdata$r                DATA
 0002:00012d4c 0000048cH .rdata$zzzdbg           DATA
 0002:000131d8 00000008H .rtc$IAA                DATA
 0002:000131e0 00000008H .rtc$IZZ                DATA
 0002:000131e8 00000008H .rtc$TAA                DATA
 0002:000131f0 00000010H .rtc$TZZ                DATA
 0002:00013200 0000c460H .xdata                  DATA
 0002:0001f660 00000244H .xdata$x                DATA
 0002:0001f8a4 00000020H .didat$2                DATA
 0002:0001f8c4 00000024H .didat$3                DATA
 0002:0001f8e8 00000298H .didat$4                DATA
 0002:0001fb80 000011d0H .didat$6                DATA
 0002:00020d50 000002a0H .didat$7                DATA
 0002:00020ff0 00000058H .edata                  DATA
 0002:00021048 00000014H .idata$2                DATA
 0002:0002105c 00000014H .idata$3                DATA
 0002:00021070 00000320H .idata$4                DATA
 0002:00021390 00000722H .idata$6                DATA
 0003:00000000 00000a80H .data                   DATA
 0003:00000a80 00000140H .data$r                 DATA
 0003:00000bc0 000002a0H .didat$5                DATA
 0003:00000e60 000012c4H .bss                    DATA
 0004:00000000 00004bd8H .pdata                  DATA
 0005:00000000 00000088H .gfids$x                DATA
 0005:00000088 00000060H .gfids$y                DATA
 0006:00000000 00000004H .tls                    DATA
 0006:00000004 00000004H .tls$                   DATA
 0006:00000008 00000001H .tls$ZZZ                DATA
 0007:00000000 00000060H .rsrc$01                DATA
 0007:00000060 00000180H .rsrc$02                DATA

  Address         Publics by Value              Rva+Base               Lib:Object

 0000:00000000       __dynamic_value_reloc_table 0000000000000000     <absolute>
 0000:00000000       __guard_iat_count          0000000000000000     <absolute>
 0000:00000000       __guard_iat_table          0000000000000000     <absolute>
 0000:00000000       __guard_longjmp_table      0000000000000000     <absolute>
 0000:00000000       __guard_longjmp_count      0000000000000000     <absolute>
 0000:00000000       __guard_fids_count         0000000000000000     <absolute>
 0000:00000000       ___safe_se_handler_table   0000000000000000     <absolute>
 0000:00000000       ___safe_se_handler_count   0000000000000000     <absolute>
 0000:00000000       __guard_fids_table         0000000000000000     <absolute>
 0000:00000100       __guard_flags              0000000000000100     <absolute>
 0000:00000000       __ImageBase                0000000180000000     <linker-defined>
 0001:00000170       ?NewInstance@Nan@@YA?AV?$MaybeLocal@VObject@v8@@@v8@@V?$Local@VFunction@v8@@@3@HQEAV?$Local@VValue@v8@@@3@@Z 0000000180001170 f i batch.obj
 0001:00000220       ?NewInstance@Nan@@YA?AV?$MaybeLocal@VObject@v8@@@v8@@V?$Local@VObjectTemplate@v8@@@3@@Z 0000000180001220 f i batch.obj
 0001:000002a0       ?New@?$Factory@VFunctionTemplate@v8@@@imp@Nan@@SA?AV?$Local@VFunctionTemplate@v8@@@v8@@P6AXAEBV?$FunctionCallbackInfo@VValue@v8@@@3@@ZV?$Local@VValue@v8@@@5@V?$Local@VSignature@v8@@@5@@Z 00000001800012a0 f i batch.obj
 0001:00000430       ??1EscapableHandleScope@Nan@@QEAA@XZ 0000000180001430 f i batch.obj
 0001:00000460       ?ThrowError@Nan@@YAXPEBD@Z 0000000180001460 f i batch.obj
 0001:00000500       ??1HandleScope@Nan@@QEAA@XZ 0000000180001500 f i batch.obj
 0001:00000520       ??1?$Persistent@VFunction@v8@@V?$NonCopyablePersistentTraits@VFunction@v8@@@2@@Nan@@QEAA@XZ 0000000180001520 f i batch.obj
 0001:00000520       ??1?$Persistent@VObject@v8@@V?$NonCopyablePersistentTraits@VObject@v8@@@2@@Nan@@QEAA@XZ 0000000180001520 f i batch.obj
 0001:00000540       ?SaveToPersistent@AsyncWorker@Nan@@QEAAXPEBDAEBV?$Local@VValue@v8@@@v8@@@Z 0000000180001540 f i batch.obj
 0001:00000600       ?AsyncExecute@Nan@@YAXPEAUuv_work_s@@@Z 0000000180001600 f i batch.obj
 0001:00000610       ?AsyncExecuteComplete@Nan@@YAXPEAUuv_work_s@@@Z 0000000180001610 f i batch.obj
 0001:00000640       ?SetPrototypeMethod@Nan@@YAXV?$Local@VFunctionTemplate@v8@@@v8@@PEBDP6AXAEBV?$FunctionCallbackInfo@VValue@v8@@@1@@Z@Z 0000000180001640 f i batch.obj
 0001:00000750       ??1ObjectWrap@Nan@@UEAA@XZ 0000000180001750 f i batch.obj
 0001:000007d0       ?Wrap@ObjectWrap@Nan@@IEAAXV?$Local@VObject@v8@@@v8@@@Z 00000001800017d0 f i batch.obj
 0001:000008b0       ?Ref@ObjectWrap@Nan@@MEAAXXZ 00000001800018b0 f i batch.obj
 0001:000008f0       ?Unref@ObjectWrap@Nan@@MEAAXXZ 00000001800018f0 f i batch.obj
 0001:000009a0       ?WeakCallback@ObjectWrap@Nan@@CAXAEBV?$WeakCallbackInfo@VObjectWrap@Nan@@@v8@@@Z 00000001800019a0 f i batch.obj
 0001:00000a30       ??_EObjectWrap@Nan@@UEAAPEAXI@Z 0000000180001a30 f i * CIL library *:* CIL module *
 0001:00000a30       ??_GObjectWrap@Nan@@UEAAPEAXI@Z 0000000180001a30 f i batch.obj
 0001:00000a70       ??1Status@leveldb@@QEAA@XZ 0000000180001a70 f i batch.obj
 0001:00000a80       ?BooleanOptionValue@leveldown@@YA_NV?$Local@VObject@v8@@@v8@@PEBD_N@Z 0000000180001a80 f i batch.obj
 0001:00000b40       ??0Batch@leveldown@@QEAA@PEAVDatabase@1@_N@Z 0000000180001b40 f   batch.obj
 0001:00000bd0       ??_EBatch@leveldown@@UEAAPEAXI@Z 0000000180001bd0 f i * CIL library *:* CIL module *
 0001:00000bd0       ??_GBatch@leveldown@@UEAAPEAXI@Z 0000000180001bd0 f i batch.obj
 0001:00000c60       ?Write@Batch@leveldown@@QEAA?AVStatus@leveldb@@XZ 0000000180001c60 f   batch.obj
 0001:00000cb0       ?Init@Batch@leveldown@@SAXXZ 0000000180001cb0 f   batch.obj
 0001:00000de0       ?New@Batch@leveldown@@CAXAEBV?$FunctionCallbackInfo@VValue@v8@@@Nan@@@Z 0000000180001de0 f   batch.obj
 0001:00000ee0       ?NewInstance@Batch@leveldown@@SA?AV?$Local@VValue@v8@@@v8@@V?$Local@VObject@v8@@@4@0@Z 0000000180001ee0 f   batch.obj
 0001:00001000       ?Put@Batch@leveldown@@CAXAEBV?$FunctionCallbackInfo@VValue@v8@@@Nan@@@Z 0000000180002000 f   batch.obj
 0001:00001370       ?Del@Batch@leveldown@@CAXAEBV?$FunctionCallbackInfo@VValue@v8@@@Nan@@@Z 0000000180002370 f   batch.obj
 0001:00001550       ?Clear@Batch@leveldown@@CAXAEBV?$FunctionCallbackInfo@VValue@v8@@@Nan@@@Z 0000000180002550 f   batch.obj
 0001:000015f0       ?Write@Batch@leveldown@@CAXAEBV?$FunctionCallbackInfo@VValue@v8@@@Nan@@@Z 00000001800025f0 f   batch.obj
 0001:00001810       ??1?$Persistent@VFunctionTemplate@v8@@V?$NonCopyablePersistentTraits@VFunctionTemplate@v8@@@2@@v8@@QEAA@XZ 0000000180002810 f i batch.obj
 0001:00001810       ??1?$Persistent@VObject@v8@@V?$NonCopyablePersistentTraits@VObject@v8@@@2@@v8@@QEAA@XZ 0000000180002810 f i batch.obj
 0001:00001810       ??1?$Persistent@VFunction@v8@@V?$NonCopyablePersistentTraits@VFunction@v8@@@2@@v8@@QEAA@XZ 0000000180002810 f i batch.obj
 0001:00001830       ??$Unwrap@VBatch@leveldown@@@ObjectWrap@Nan@@SAPEAVBatch@leveldown@@V?$Local@VObject@v8@@@v8@@@Z 0000000180002830 f i batch.obj
 0001:00001830       ??$Unwrap@VIterator@leveldown@@@ObjectWrap@Nan@@SAPEAVIterator@leveldown@@V?$Local@VObject@v8@@@v8@@@Z 0000000180002830 f i database.obj
 0001:00001830       ??$Unwrap@VDatabase@leveldown@@@ObjectWrap@Nan@@SAPEAVDatabase@leveldown@@V?$Local@VObject@v8@@@v8@@@Z 0000000180002830 f i batch.obj
 0001:000018c0       ??4Status@leveldb@@QEAAXAEBV01@@Z 00000001800028c0 f i batch_async.obj
 0001:00001930       ?Call@Callback@Nan@@QEBA?AV?$Local@VValue@v8@@@v8@@HQEAV34@@Z 0000000180002930 f i batch_async.obj
 0001:000019e0       ?Call_@Callback@Nan@@AEBA?AV?$Local@VValue@v8@@@v8@@PEAVIsolate@4@V?$Local@VObject@v8@@@4@HQEAV34@@Z 00000001800029e0 f i batch_async.obj
 0001:00001aa0       ??0AsyncWorker@Nan@@QEAA@PEAVCallback@1@@Z 0000000180002aa0 f i batch_async.obj
 0001:00001b60       ??1AsyncWorker@Nan@@UEAA@XZ 0000000180002b60 f i batch_async.obj
 0001:00001c30       ?WorkComplete@AsyncWorker@Nan@@UEAAXXZ 0000000180002c30 f i batch_async.obj
 0001:00001cd0       ?Destroy@AsyncWorker@Nan@@UEAAXXZ 0000000180002cd0 f i batch_async.obj
 0001:00001cf0       ?HandleOKCallback@AsyncWorker@Nan@@MEAAXXZ 0000000180002cf0 f i batch_async.obj
 0001:00001d40       ?HandleErrorCallback@AsyncWorker@Nan@@MEAAXXZ 0000000180002d40 f i batch_async.obj
 0001:00001df0       ??_GAsyncWorker@Nan@@UEAAPEAXI@Z 0000000180002df0 f i batch_async.obj
 0001:00001df0       ??_EAsyncWorker@Nan@@UEAAPEAXI@Z 0000000180002df0 f i * CIL library *:* CIL module *
 0001:00001e30       ?SetStatus@AsyncWorker@leveldown@@IEAAXVStatus@leveldb@@@Z 0000000180002e30 f i batch_async.obj
 0001:00001fb0       ??_GAsyncWorker@leveldown@@UEAAPEAXI@Z 0000000180002fb0 f i batch_async.obj
 0001:00001fb0       ??_EAsyncWorker@leveldown@@UEAAPEAXI@Z 0000000180002fb0 f i * CIL library *:* CIL module *
 0001:00002010       ??1AsyncWorker@leveldown@@UEAA@XZ 0000000180003010 f i batch_async.obj
 0001:00002040       ??_EBatchWriteWorker@leveldown@@UEAAPEAXI@Z 0000000180003040 f i * CIL library *:* CIL module *
 0001:00002040       ??_GBatchWriteWorker@leveldown@@UEAAPEAXI@Z 0000000180003040 f i batch_async.obj
 0001:000020a0       ?Execute@BatchWriteWorker@leveldown@@UEAAXXZ 00000001800030a0 f   batch_async.obj
 0001:000020e0       ??1?$basic_string@DU?$char_traits@D@std@@V?$allocator@D@2@@std@@QEAA@XZ 00000001800030e0 f i batch_async.obj
 0001:00002170       ?_Tidy@?$basic_string@DU?$char_traits@D@std@@V?$allocator@D@2@@std@@QEAAX_N_K@Z 0000000180003170 f i batch_async.obj
 0001:00002220       ?EmptyMethod@leveldown@@YAXAEBV?$FunctionCallbackInfo@VValue@v8@@@Nan@@@Z 0000000180003220 f i database.obj
 0001:00002220       __except_validate_context_record 0000000180003220 f i libvcruntime:jbcxrval.obj
 0001:00002220       ?Prune@Cache@leveldb@@UEAAXXZ 0000000180003220 f i leveldb:cache.obj
 0001:00002220       _guard_check_icall_nop     0000000180003220 f i LIBCMT:guard_support.obj
 0001:00002220       ??3@YAXPEAX0@Z             0000000180003220 f i database.obj
 0001:00002230       ??0Utf8String@Nan@@QEAA@V?$Local@VValue@v8@@@v8@@@Z 0000000180003230 f i database.obj
 0001:00002340       ?UInt32OptionValue@leveldown@@YAIV?$Local@VObject@v8@@@v8@@PEBDI@Z 0000000180003340 f i database.obj
 0001:00002430       ??0Database@leveldown@@QEAA@AEBV?$Local@VValue@v8@@@v8@@@Z 0000000180003430 f   database.obj
 0001:00002500       ??_EDatabase@leveldown@@UEAAPEAXI@Z 0000000180003500 f i * CIL library *:* CIL module *
 0001:00002500       ??_GDatabase@leveldown@@UEAAPEAXI@Z 0000000180003500 f i database.obj
 0001:00002540       ??1?$map@IPEAVIterator@leveldown@@U?$less@I@std@@V?$allocator@U?$pair@$$CBIPEAVIterator@leveldown@@@std@@@4@@std@@QEAA@XZ 0000000180003540 f i database.obj
 0001:00002540       ??1?$set@_KU?$less@_K@std@@V?$allocator@_K@2@@std@@QEAA@XZ 0000000180003540 f i leveldb:db_impl.obj
 0001:00002580       ??1Database@leveldown@@UEAA@XZ 0000000180003580 f   database.obj
 0001:00002620       ?OpenDatabase@Database@leveldown@@QEAA?AVStatus@leveldb@@PEAUOptions@4@@Z 0000000180003620 f   database.obj
 0001:00002750       ?PutToDatabase@Database@leveldown@@QEAA?AVStatus@leveldb@@PEAUWriteOptions@4@VSlice@4@1@Z 0000000180003750 f   database.obj
 0001:000027a0       ?GetFromDatabase@Database@leveldown@@QEAA?AVStatus@leveldb@@PEAUReadOptions@4@VSlice@4@AEAV?$basic_string@DU?$char_traits@D@std@@V?$allocator@D@2@@std@@@Z 00000001800037a0 f   database.obj
 0001:000027f0       ?DeleteFromDatabase@Database@leveldown@@QEAA?AVStatus@leveldb@@PEAUWriteOptions@4@VSlice@4@@Z 00000001800037f0 f   database.obj
 0001:00002830       ?WriteBatchToDatabase@Database@leveldown@@QEAA?AVStatus@leveldb@@PEAUWriteOptions@4@PEAVWriteBatch@4@@Z 0000000180003830 f   database.obj
 0001:00002870       ?ReleaseIterator@Database@leveldown@@QEAAXI@Z 0000000180003870 f   database.obj
 0001:00002950       ?LevelDOWN@leveldown@@YAXAEBV?$FunctionCallbackInfo@VValue@v8@@@Nan@@@Z 0000000180003950 f   database.obj
 0001:000029b0       ?Init@Database@leveldown@@SAXXZ 00000001800039b0 f   database.obj
 0001:00002b70       ?New@Database@leveldown@@CAXAEBV?$FunctionCallbackInfo@VValue@v8@@@Nan@@@Z 0000000180003b70 f   database.obj
 0001:00002c00       ?NewInstance@Database@leveldown@@SA?AV?$Local@VValue@v8@@@v8@@AEAV?$Local@VString@v8@@@4@@Z 0000000180003c00 f   database.obj
 0001:00002cd0       ?Open@Database@leveldown@@CAXAEBV?$FunctionCallbackInfo@VValue@v8@@@Nan@@@Z 0000000180003cd0 f   database.obj
 0001:00003090       ?Close@Database@leveldown@@CAXAEBV?$FunctionCallbackInfo@VValue@v8@@@Nan@@@Z 0000000180004090 f   database.obj
 0001:00003400       ?Put@Database@leveldown@@CAXAEBV?$FunctionCallbackInfo@VValue@v8@@@Nan@@@Z 0000000180004400 f   database.obj
 0001:00003970       ?Get@Database@leveldown@@CAXAEBV?$FunctionCallbackInfo@VValue@v8@@@Nan@@@Z 0000000180004970 f   database.obj
 0001:00003d60       ?Delete@Database@leveldown@@CAXAEBV?$FunctionCallbackInfo@VValue@v8@@@Nan@@@Z 0000000180004d60 f   database.obj
 0001:00004130       ?Batch@Database@leveldown@@CAXAEBV?$FunctionCallbackInfo@VValue@v8@@@Nan@@@Z 0000000180005130 f   database.obj
 0001:00004b60       ?ApproximateSize@Database@leveldown@@CAXAEBV?$FunctionCallbackInfo@VValue@v8@@@Nan@@@Z 0000000180005b60 f   database.obj
 0001:00004f80       ?CompactRange@Database@leveldown@@CAXAEBV?$FunctionCallbackInfo@VValue@v8@@@Nan@@@Z 0000000180005f80 f   database.obj
 0001:000053a0       ?GetProperty@Database@leveldown@@CAXAEBV?$FunctionCallbackInfo@VValue@v8@@@Nan@@@Z 00000001800063a0 f   database.obj
 0001:000055c0       ?Iterator@Database@leveldown@@CAXAEBV?$FunctionCallbackInfo@VValue@v8@@@Nan@@@Z 00000001800065c0 f   database.obj
 0001:00005720       ??1TryCatch@Nan@@QEAA@XZ   0000000180006720 f i database.obj
 0001:00005740       ??1?$_Tree@V?$_Tmap_traits@IPEAVIterator@leveldown@@U?$less@I@std@@V?$allocator@U?$pair@$$CBIPEAVIterator@leveldown@@@std@@@4@$0A@@std@@@std@@QEAA@XZ 0000000180006740 f i database.obj
 0001:00005740       ??1?$_Tree@V?$_Tset_traits@_KU?$less@_K@std@@V?$allocator@_K@2@$0A@@std@@@std@@QEAA@XZ 0000000180006740 f i leveldb:db_impl.obj
 0001:00005780       ??A?$map@IPEAVIterator@leveldown@@U?$less@I@std@@V?$allocator@U?$pair@$$CBIPEAVIterator@leveldown@@@std@@@4@@std@@QEAAAEAPEAVIterator@leveldown@@AEBI@Z 0000000180006780 f i database.obj
 0001:00005870       ??0?$basic_string@DU?$char_traits@D@std@@V?$allocator@D@2@@std@@QEAA@XZ 0000000180006870 f i database.obj
 0001:00005890       ??1?$_Tree_comp_alloc@V?$_Tset_traits@U?$pair@H_K@std@@U?$less@U?$pair@H_K@std@@@2@V?$allocator@U?$pair@H_K@std@@@2@$0A@@std@@@std@@QEAA@XZ 0000000180006890 f i leveldb:db_impl.obj
 0001:00005890       ??1?$_Tree_comp_alloc@V?$_Tmap_traits@IPEAVIterator@leveldown@@U?$less@I@std@@V?$allocator@U?$pair@$$CBIPEAVIterator@leveldown@@@std@@@4@$0A@@std@@@std@@QEAA@XZ 0000000180006890 f i database.obj
 0001:00005890       ??1?$_Tree_comp_alloc@V?$_Tset_traits@_KU?$less@_K@std@@V?$allocator@_K@2@$0A@@std@@@std@@QEAA@XZ 0000000180006890 f i leveldb:db_impl.obj
 0001:000058a0       ?erase@?$_Tree@V?$_Tmap_traits@IPEAVIterator@leveldown@@U?$less@I@std@@V?$allocator@U?$pair@$$CBIPEAVIterator@leveldown@@@std@@@4@$0A@@std@@@std@@QEAA?AV?$_Tree_iterator@V?$_Tree_val@U?$_Tree_simple_types@U?$pair@$$CBIPEAVIterator@leveldown@@@std@@@std@@@std@@@2@V?$_Tree_const_iterator@V?$_Tree_val@U?$_Tree_simple_types@U?$pair@$$CBIPEAVIterator@leveldown@@@std@@@std@@@std@@@2@0@Z 00000001800068a0 f i database.obj
 0001:000058a0       ?erase@?$_Tree@V?$_Tset_traits@_KU?$less@_K@std@@V?$allocator@_K@2@$0A@@std@@@std@@QEAA?AV?$_Tree_const_iterator@V?$_Tree_val@U?$_Tree_simple_types@_K@std@@@std@@@2@V32@0@Z 00000001800068a0 f i leveldb:db_impl.obj
 0001:000059d0       ?assign@?$basic_string@DU?$char_traits@D@std@@V?$allocator@D@2@@std@@QEAAAEAV12@PEBD_K@Z 00000001800069d0 f i database.obj
 0001:00005b00       ?assign@?$basic_string@DU?$char_traits@D@std@@V?$allocator@D@2@@std@@QEAAAEAV12@AEBV12@_K1@Z 0000000180006b00 f i database.obj
 0001:00005c30       ?erase@?$_Tree@V?$_Tset_traits@_KU?$less@_K@std@@V?$allocator@_K@2@$0A@@std@@@std@@QEAA?AV?$_Tree_const_iterator@V?$_Tree_val@U?$_Tree_simple_types@_K@std@@@std@@@2@V32@@Z 0000000180006c30 f i leveldb:db_impl.obj
 0001:00005c30       ?erase@?$_Tree@V?$_Tmap_traits@IPEAVIterator@leveldown@@U?$less@I@std@@V?$allocator@U?$pair@$$CBIPEAVIterator@leveldown@@@std@@@4@$0A@@std@@@std@@QEAA?AV?$_Tree_iterator@V?$_Tree_val@U?$_Tree_simple_types@U?$pair@$$CBIPEAVIterator@leveldown@@@std@@@std@@@std@@@2@V?$_Tree_const_iterator@V?$_Tree_val@U?$_Tree_simple_types@U?$pair@$$CBIPEAVIterator@leveldown@@@std@@@std@@@std@@@2@@Z 0000000180006c30 f i database.obj
 0001:00005c30       ?erase@?$_Tree@V?$_Tset_traits@U?$pair@H_K@std@@U?$less@U?$pair@H_K@std@@@2@V?$allocator@U?$pair@H_K@std@@@2@$0A@@std@@@std@@QEAA?AV?$_Tree_const_iterator@V?$_Tree_val@U?$_Tree_simple_types@U?$pair@H_K@std@@@std@@@std@@@2@V32@@Z 0000000180006c30 f i leveldb:db_impl.obj
 0001:00006120       ?erase@?$basic_string@DU?$char_traits@D@std@@V?$allocator@D@2@@std@@QEAAAEAV12@_K0@Z 0000000180007120 f i database.obj
 0001:000061f0       ?_Erase@?$_Tree@V?$_Tset_traits@U?$pair@H_K@std@@U?$less@U?$pair@H_K@std@@@2@V?$allocator@U?$pair@H_K@std@@@2@$0A@@std@@@std@@IEAAXPEAU?$_Tree_node@U?$pair@H_K@std@@PEAX@2@@Z 00000001800071f0 f i leveldb:db_impl.obj
 0001:000061f0       ?_Erase@?$_Tree@V?$_Tset_traits@PEAUFileMetaData@leveldb@@UBySmallestKey@Builder@VersionSet@2@V?$allocator@PEAUFileMetaData@leveldb@@@std@@$0A@@std@@@std@@IEAAXPEAU?$_Tree_node@PEAUFileMetaData@leveldb@@PEAX@2@@Z 00000001800071f0 f i leveldb:version_set.obj
 0001:000061f0       ?_Erase@?$_Tree@V?$_Tset_traits@_KU?$less@_K@std@@V?$allocator@_K@2@$0A@@std@@@std@@IEAAXPEAU?$_Tree_node@_KPEAX@2@@Z 00000001800071f0 f i leveldb:db_impl.obj
 0001:000061f0       ?_Erase@?$_Tree@V?$_Tmap_traits@IPEAVIterator@leveldown@@U?$less@I@std@@V?$allocator@U?$pair@$$CBIPEAVIterator@leveldown@@@std@@@4@$0A@@std@@@std@@IEAAXPEAU?$_Tree_node@U?$pair@$$CBIPEAVIterator@leveldown@@@std@@PEAX@2@@Z 00000001800071f0 f i database.obj
 0001:00006240       ?_Copy@?$basic_string@DU?$char_traits@D@std@@V?$allocator@D@2@@std@@QEAAX_K0@Z 0000000180007240 f i database.obj
 0001:000063c0       ??$_Insert_hint@AEAU?$pair@$$CBIPEAVIterator@leveldown@@@std@@PEAU?$_Tree_node@U?$pair@$$CBIPEAVIterator@leveldown@@@std@@PEAX@2@@?$_Tree@V?$_Tmap_traits@IPEAVIterator@leveldown@@U?$less@I@std@@V?$allocator@U?$pair@$$CBIPEAVIterator@leveldown@@@std@@@4@$0A@@std@@@std@@IEAA?AV?$_Tree_iterator@V?$_Tree_val@U?$_Tree_simple_types@U?$pair@$$CBIPEAVIterator@leveldown@@@std@@@std@@@std@@@1@V?$_Tree_const_iterator@V?$_Tree_val@U?$_Tree_simple_types@U?$pair@$$CBIPEAVIterator@leveldown@@@std@@@std@@@std@@@1@AEAU?$pair@$$CBIPEAVIterator@leveldown@@@1@PEAU?$_Tree_node@U?$pair@$$CBIPEAVIterator@leveldown@@@std@@PEAX@1@@Z 00000001800073c0 f i database.obj
 0001:000065d0       ??F?$_Tree_const_iterator@V?$_Tree_val@U?$_Tree_simple_types@U?$pair@$$CBIPEAVIterator@leveldown@@@std@@@std@@@std@@@std@@QEAAAEAV01@XZ 00000001800075d0 f i database.obj
 0001:00006650       ??$_Insert_at@AEAU?$pair@$$CBIPEAVIterator@leveldown@@@std@@PEAU?$_Tree_node@U?$pair@$$CBIPEAVIterator@leveldown@@@std@@PEAX@2@@?$_Tree@V?$_Tmap_traits@IPEAVIterator@leveldown@@U?$less@I@std@@V?$allocator@U?$pair@$$CBIPEAVIterator@leveldown@@@std@@@4@$0A@@std@@@std@@IEAA?AV?$_Tree_iterator@V?$_Tree_val@U?$_Tree_simple_types@U?$pair@$$CBIPEAVIterator@leveldown@@@std@@@std@@@std@@@1@_NPEAU?$_Tree_node@U?$pair@$$CBIPEAVIterator@leveldown@@@std@@PEAX@1@AEAU?$pair@$$CBIPEAVIterator@leveldown@@@1@1@Z 0000000180007650 f i database.obj
 0001:000068f0       ??$_Insert_nohint@AEAU?$pair@$$CBIPEAVIterator@leveldown@@@std@@PEAU?$_Tree_node@U?$pair@$$CBIPEAVIterator@leveldown@@@std@@PEAX@2@@?$_Tree@V?$_Tmap_traits@IPEAVIterator@leveldown@@U?$less@I@std@@V?$allocator@U?$pair@$$CBIPEAVIterator@leveldown@@@std@@@4@$0A@@std@@@std@@IEAA?AU?$pair@V?$_Tree_iterator@V?$_Tree_val@U?$_Tree_simple_types@U?$pair@$$CBIPEAVIterator@leveldown@@@std@@@std@@@std@@@std@@_N@1@_NAEAU?$pair@$$CBIPEAVIterator@leveldown@@@1@PEAU?$_Tree_node@U?$pair@$$CBIPEAVIterator@leveldown@@@std@@PEAX@1@@Z 00000001800078f0 f i database.obj
 0001:00006a10       ?GetFromPersistent@AsyncWorker@Nan@@QEBA?AV?$Local@VValue@v8@@@v8@@PEBD@Z 0000000180007a10 f i database_async.obj
 0001:00006af0       ??0OpenWorker@leveldown@@QEAA@PEAVDatabase@1@PEAVCallback@Nan@@PEAVCache@leveldb@@PEBVFilterPolicy@6@_N44IIIII@Z 0000000180007af0 f   database_async.obj
 0001:00006c10       ??_GOpenWorker@leveldown@@UEAAPEAXI@Z 0000000180007c10 f i database_async.obj
 0001:00006c10       ??_EOpenWorker@leveldown@@UEAAPEAXI@Z 0000000180007c10 f i * CIL library *:* CIL module *
 0001:00006c80       ?Execute@OpenWorker@leveldown@@UEAAXXZ 0000000180007c80 f   database_async.obj
 0001:00006cd0       ??_ECloseWorker@leveldown@@UEAAPEAXI@Z 0000000180007cd0 f i * CIL library *:* CIL module *
 0001:00006cd0       ??_GCloseWorker@leveldown@@UEAAPEAXI@Z 0000000180007cd0 f i database_async.obj
 0001:00006d30       ?Execute@CloseWorker@leveldown@@UEAAXXZ 0000000180007d30 f   database_async.obj
 0001:00006da0       ?WorkComplete@CloseWorker@leveldown@@UEAAXXZ 0000000180007da0 f   database_async.obj
 0001:00006e30       ??0IOWorker@leveldown@@QEAA@PEAVDatabase@1@PEAVCallback@Nan@@VSlice@leveldb@@AEAV?$Local@VObject@v8@@@v8@@@Z 0000000180007e30 f   database_async.obj
 0001:00006f70       ??_EIOWorker@leveldown@@UEAAPEAXI@Z 0000000180007f70 f i * CIL library *:* CIL module *
 0001:00006f70       ??_GIOWorker@leveldown@@UEAAPEAXI@Z 0000000180007f70 f i database_async.obj
 0001:00006fd0       ??1IOWorker@leveldown@@UEAA@XZ 0000000180007fd0 f   database_async.obj
 0001:00007010       ?WorkComplete@IOWorker@leveldown@@UEAAXXZ 0000000180008010 f   database_async.obj
 0001:000070b0       ??0ReadWorker@leveldown@@QEAA@PEAVDatabase@1@PEAVCallback@Nan@@VSlice@leveldb@@_N3AEAV?$Local@VObject@v8@@@v8@@@Z 00000001800080b0 f   database_async.obj
 0001:00007220       ??_GReadWorker@leveldown@@UEAAPEAXI@Z 0000000180008220 f i database_async.obj
 0001:00007220       ??_EReadWorker@leveldown@@UEAAPEAXI@Z 0000000180008220 f i * CIL library *:* CIL module *
 0001:000072b0       ?Execute@ReadWorker@leveldown@@UEAAXXZ 00000001800082b0 f   database_async.obj
 0001:00007320       ?HandleOKCallback@ReadWorker@leveldown@@UEAAXXZ 0000000180008320 f   database_async.obj
 0001:00007450       ??0DeleteWorker@leveldown@@QEAA@PEAVDatabase@1@PEAVCallback@Nan@@VSlice@leveldb@@_NAEAV?$Local@VObject@v8@@@v8@@@Z 0000000180008450 f   database_async.obj
 0001:000075a0       ??_EDeleteWorker@leveldown@@UEAAPEAXI@Z 00000001800085a0 f i * CIL library *:* CIL module *
 0001:000075a0       ??_GDeleteWorker@leveldown@@UEAAPEAXI@Z 00000001800085a0 f i database_async.obj
 0001:00007620       ??1DeleteWorker@leveldown@@UEAA@XZ 0000000180008620 f   database_async.obj
 0001:00007680       ?Execute@DeleteWorker@leveldown@@UEAAXXZ 0000000180008680 f   database_async.obj
 0001:000076e0       ??_GWriteWorker@leveldown@@UEAAPEAXI@Z 00000001800086e0 f i database_async.obj
 0001:000076e0       ??_EWriteWorker@leveldown@@UEAAPEAXI@Z 00000001800086e0 f i * CIL library *:* CIL module *
 0001:00007770       ?Execute@WriteWorker@leveldown@@UEAAXXZ 0000000180008770 f   database_async.obj
 0001:000077e0       ?WorkComplete@WriteWorker@leveldown@@UEAAXXZ 00000001800087e0 f   database_async.obj
 0001:00007880       ??0BatchWorker@leveldown@@QEAA@PEAVDatabase@1@PEAVCallback@Nan@@PEAVWriteBatch@leveldb@@_N@Z 0000000180008880 f   database_async.obj
 0001:00007910       ??_EBatchWorker@leveldown@@UEAAPEAXI@Z 0000000180008910 f i * CIL library *:* CIL module *
 0001:00007910       ??_GBatchWorker@leveldown@@UEAAPEAXI@Z 0000000180008910 f i database_async.obj
 0001:00007950       ??1BatchWorker@leveldown@@UEAA@XZ 0000000180008950 f   database_async.obj
 0001:000079d0       ?Execute@BatchWorker@leveldown@@UEAAXXZ 00000001800089d0 f   database_async.obj
 0001:00007a20       ??0ApproximateSizeWorker@leveldown@@QEAA@PEAVDatabase@1@PEAVCallback@Nan@@VSlice@leveldb@@2AEAV?$Local@VObject@v8@@@v8@@3@Z 0000000180008a20 f   database_async.obj
 0001:00007c20       ??_GApproximateSizeWorker@leveldown@@UEAAPEAXI@Z 0000000180008c20 f i database_async.obj
 0001:00007c20       ??_EApproximateSizeWorker@leveldown@@UEAAPEAXI@Z 0000000180008c20 f i * CIL library *:* CIL module *
 0001:00007c80       ?Execute@ApproximateSizeWorker@leveldown@@UEAAXXZ 0000000180008c80 f   database_async.obj
 0001:00007cc0       ?WorkComplete@ApproximateSizeWorker@leveldown@@UEAAXXZ 0000000180008cc0 f   database_async.obj
 0001:00007db0       ?HandleOKCallback@ApproximateSizeWorker@leveldown@@UEAAXXZ 0000000180008db0 f   database_async.obj
 0001:00007e60       ??0CompactRangeWorker@leveldown@@QEAA@PEAVDatabase@1@PEAVCallback@Nan@@VSlice@leveldb@@2AEAV?$Local@VObject@v8@@@v8@@3@Z 0000000180008e60 f   database_async.obj
 0001:00008080       ??_GCompactRangeWorker@leveldown@@UEAAPEAXI@Z 0000000180009080 f i database_async.obj
 0001:00008080       ??_ECompactRangeWorker@leveldown@@UEAAPEAXI@Z 0000000180009080 f i * CIL library *:* CIL module *
 0001:000080e0       ?Execute@CompactRangeWorker@leveldown@@UEAAXXZ 00000001800090e0 f   database_async.obj
 0001:00008110       ?WorkComplete@CompactRangeWorker@leveldown@@UEAAXXZ 0000000180009110 f   database_async.obj
 0001:00008200       ?HandleOKCallback@CompactRangeWorker@leveldown@@UEAAXXZ 0000000180009200 f   database_async.obj
 0001:00008270       ?ToString@Slice@leveldb@@QEBA?AV?$basic_string@DU?$char_traits@D@std@@V?$allocator@D@2@@std@@XZ 0000000180009270 f i iterator.obj
 0001:000082c0       ?compare@Slice@leveldb@@QEBAHAEBV12@@Z 00000001800092c0 f i iterator.obj
 0001:00008320       ?Error@Nan@@YA?AV?$Local@VValue@v8@@@v8@@PEBD@Z 0000000180009320 f i iterator.obj
 0001:00008480       ??0Iterator@leveldown@@QEAA@PEAVDatabase@1@IPEAVSlice@leveldb@@PEAV?$basic_string@DU?$char_traits@D@std@@V?$allocator@D@2@@std@@_N33H2222333_K@Z 0000000180009480 f   iterator.obj
 0001:000085f0       ??_GIterator@leveldown@@UEAAPEAXI@Z 00000001800095f0 f i iterator.obj
 0001:000085f0       ??_EIterator@leveldown@@UEAAPEAXI@Z 00000001800095f0 f i * CIL library *:* CIL module *
 0001:00008630       ??1Iterator@leveldown@@UEAA@XZ 0000000180009630 f   iterator.obj
 0001:000087a0       ?GetIterator@Iterator@leveldown@@AEAA_NXZ 00000001800097a0 f   iterator.obj
 0001:000089e0       ?Read@Iterator@leveldown@@AEAA_NAEAV?$basic_string@DU?$char_traits@D@std@@V?$allocator@D@2@@std@@0@Z 00000001800099e0 f   iterator.obj
 0001:00008da0       ?OutOfRange@Iterator@leveldown@@AEAA_NPEAVSlice@leveldb@@@Z 0000000180009da0 f   iterator.obj
 0001:00008fa0       ?IteratorNext@Iterator@leveldown@@QEAA_NAEAV?$vector@U?$pair@V?$basic_string@DU?$char_traits@D@std@@V?$allocator@D@2@@std@@V12@@std@@V?$allocator@U?$pair@V?$basic_string@DU?$char_traits@D@std@@V?$allocator@D@2@@std@@V12@@std@@@2@@std@@@Z 0000000180009fa0 f   iterator.obj
 0001:00009260       ??1?$pair@V?$basic_string@DU?$char_traits@D@std@@V?$allocator@D@2@@std@@V12@@std@@QEAA@XZ 000000018000a260 f i iterator.obj
 0001:00009290       ?IteratorStatus@Iterator@leveldown@@QEAA?AVStatus@leveldb@@XZ 000000018000a290 f   iterator.obj
 0001:000092d0       ?checkEndCallback@leveldown@@YAXPEAVIterator@1@@Z 000000018000a2d0 f   iterator.obj
 0001:00009360       ?Seek@Iterator@leveldown@@CAXAEBV?$FunctionCallbackInfo@VValue@v8@@@Nan@@@Z 000000018000a360 f   iterator.obj
 0001:00009620       ?Next@Iterator@leveldown@@CAXAEBV?$FunctionCallbackInfo@VValue@v8@@@Nan@@@Z 000000018000a620 f   iterator.obj
 0001:00009820       ?End@Iterator@leveldown@@CAXAEBV?$FunctionCallbackInfo@VValue@v8@@@Nan@@@Z 000000018000a820 f   iterator.obj
 0001:000099b0       ?Init@Iterator@leveldown@@SAXXZ 000000018000a9b0 f   iterator.obj
 0001:00009ac0       ?NewInstance@Iterator@leveldown@@SA?AV?$Local@VObject@v8@@@v8@@V34@V?$Local@VNumber@v8@@@4@0@Z 000000018000aac0 f   iterator.obj
 0001:00009c00       ?New@Iterator@leveldown@@CAXAEBV?$FunctionCallbackInfo@VValue@v8@@@Nan@@@Z 000000018000ac00 f   iterator.obj
 0001:0000aef0       ?push_back@?$vector@U?$pair@V?$basic_string@DU?$char_traits@D@std@@V?$allocator@D@2@@std@@V12@@std@@V?$allocator@U?$pair@V?$basic_string@DU?$char_traits@D@std@@V?$allocator@D@2@@std@@V12@@std@@@2@@std@@QEAAX$$QEAU?$pair@V?$basic_string@DU?$char_traits@D@std@@V?$allocator@D@2@@std@@V12@@2@@Z 000000018000bef0 f i iterator.obj
 0001:0000b0e0       ?compare@?$basic_string@DU?$char_traits@D@std@@V?$allocator@D@2@@std@@QEBAHAEBV12@@Z 000000018000c0e0 f i iterator.obj
 0001:0000b160       ?_Assign_rv@?$basic_string@DU?$char_traits@D@std@@V?$allocator@D@2@@std@@QEAAX$$QEAV12@@Z 000000018000c160 f i iterator.obj
 0001:0000b1e0       ?_Reallocate@?$vector@U?$pair@V?$basic_string@DU?$char_traits@D@std@@V?$allocator@D@2@@std@@V12@@std@@V?$allocator@U?$pair@V?$basic_string@DU?$char_traits@D@std@@V?$allocator@D@2@@std@@V12@@std@@@2@@std@@IEAAX_K@Z 000000018000c1e0 f i iterator.obj
 0001:0000b300       ?deallocate@?$_Wrap_alloc@V?$allocator@U?$pair@V?$basic_string@DU?$char_traits@D@std@@V?$allocator@D@2@@std@@V12@@std@@@std@@@std@@QEAAXPEAU?$pair@V?$basic_string@DU?$char_traits@D@std@@V?$allocator@D@2@@std@@V12@@2@_K@Z 000000018000c300 f i iterator.obj
 0001:0000b370       ??$make_pair@AEAV?$basic_string@DU?$char_traits@D@std@@V?$allocator@D@2@@std@@AEAV12@@std@@YA?AU?$pair@V?$basic_string@DU?$char_traits@D@std@@V?$allocator@D@2@@std@@V12@@0@AEAV?$basic_string@DU?$char_traits@D@std@@V?$allocator@D@2@@0@0@Z 000000018000c370 f i iterator.obj
 0001:0000b400       ??$_Uninitialized_move_al_unchecked1@PEAU?$pair@V?$basic_string@DU?$char_traits@D@std@@V?$allocator@D@2@@std@@V12@@std@@PEAU12@V?$allocator@U?$pair@V?$basic_string@DU?$char_traits@D@std@@V?$allocator@D@2@@std@@V12@@std@@@2@@std@@YAPEAU?$pair@V?$basic_string@DU?$char_traits@D@std@@V?$allocator@D@2@@std@@V12@@0@PEAU10@00AEAU?$_Wrap_alloc@V?$allocator@U?$pair@V?$basic_string@DU?$char_traits@D@std@@V?$allocator@D@2@@std@@V12@@std@@@std@@@0@U_General_ptr_iterator_tag@0@U_Any_tag@0@@Z 000000018000c400 f i iterator.obj
 0001:0000b4a0       ?convert@?$ToFactory@VInteger@v8@@@imp@Nan@@SA?AV?$MaybeLocal@VInteger@v8@@@v8@@V?$Local@VValue@v8@@@5@@Z 000000018000c4a0 f i iterator_async.obj
 0001:0000b530       ??0NextWorker@leveldown@@QEAA@PEAVIterator@1@PEAVCallback@Nan@@P6AX0@Z@Z 000000018000c530 f   iterator_async.obj
 0001:0000b5c0       ??_ENextWorker@leveldown@@UEAAPEAXI@Z 000000018000c5c0 f i * CIL library *:* CIL module *
 0001:0000b5c0       ??_GNextWorker@leveldown@@UEAAPEAXI@Z 000000018000c5c0 f i iterator_async.obj
 0001:0000b630       ?Execute@NextWorker@leveldown@@UEAAXXZ 000000018000c630 f   iterator_async.obj
 0001:0000b690       ?HandleOKCallback@NextWorker@leveldown@@UEAAXXZ 000000018000c690 f   iterator_async.obj
 0001:0000bbc0       ??_EEndWorker@leveldown@@UEAAPEAXI@Z 000000018000cbc0 f i * CIL library *:* CIL module *
 0001:0000bbc0       ??_GEndWorker@leveldown@@UEAAPEAXI@Z 000000018000cbc0 f i iterator_async.obj
 0001:0000bc20       ?Execute@EndWorker@leveldown@@UEAAXXZ 000000018000cc20 f   iterator_async.obj
 0001:0000bc70       ?HandleOKCallback@EndWorker@leveldown@@UEAAXXZ 000000018000cc70 f   iterator_async.obj
 0001:0000bcb0       ??1?$vector@U?$pair@V?$basic_string@DU?$char_traits@D@std@@V?$allocator@D@2@@std@@V12@@std@@V?$allocator@U?$pair@V?$basic_string@DU?$char_traits@D@std@@V?$allocator@D@2@@std@@V12@@std@@@2@@std@@QEAA@XZ 000000018000ccb0 f i iterator_async.obj
 0001:0000bcc0       ?_Tidy@?$vector@U?$pair@V?$basic_string@DU?$char_traits@D@std@@V?$allocator@D@2@@std@@V12@@std@@V?$allocator@U?$pair@V?$basic_string@DU?$char_traits@D@std@@V?$allocator@D@2@@std@@V12@@std@@@2@@std@@IEAAXXZ 000000018000ccc0 f i iterator_async.obj
 0001:0000bd50       ?DestroyDB@leveldown@@YAXAEBV?$FunctionCallbackInfo@VValue@v8@@@Nan@@@Z 000000018000cd50 f   leveldown.obj
 0001:0000bea0       ?RepairDB@leveldown@@YAXAEBV?$FunctionCallbackInfo@VValue@v8@@@Nan@@@Z 000000018000cea0 f   leveldown.obj
 0001:0000bff0       ?Init@leveldown@@YAXV?$Local@VObject@v8@@@v8@@@Z 000000018000cff0 f   leveldown.obj
 0001:0000c180       ??_EDestroyWorker@leveldown@@UEAAPEAXI@Z 000000018000d180 f i * CIL library *:* CIL module *
 0001:0000c180       ??_GDestroyWorker@leveldown@@UEAAPEAXI@Z 000000018000d180 f i leveldown_async.obj
 0001:0000c1c0       ??1DestroyWorker@leveldown@@UEAA@XZ 000000018000d1c0 f   leveldown_async.obj
 0001:0000c240       ?Execute@DestroyWorker@leveldown@@UEAAXXZ 000000018000d240 f   leveldown_async.obj
 0001:0000c3b0       ??_GRepairWorker@leveldown@@UEAAPEAXI@Z 000000018000d3b0 f i leveldown_async.obj
 0001:0000c3b0       ??_ERepairWorker@leveldown@@UEAAPEAXI@Z 000000018000d3b0 f i * CIL library *:* CIL module *
 0001:0000c3f0       ??1RepairWorker@leveldown@@UEAA@XZ 000000018000d3f0 f   leveldown_async.obj
 0001:0000c470       ?Execute@RepairWorker@leveldown@@UEAAXXZ 000000018000d470 f   leveldown_async.obj
 0001:0000c630       ?OK@Status@leveldb@@SA?AV12@XZ 000000018000d630 f i leveldb:write_batch.obj
 0001:0000c660       ?Corruption@Status@leveldb@@SA?AV12@AEBVSlice@2@0@Z 000000018000d660 f i leveldb:write_batch.obj
 0001:0000c720       ??0WriteBatch@leveldb@@QEAA@XZ 000000018000d720 f   leveldb:write_batch.obj
 0001:0000c7a0       ??1WriteBatch@leveldb@@QEAA@XZ 000000018000d7a0 f   leveldb:write_batch.obj
 0001:0000c7a0       ??1InternalKey@leveldb@@QEAA@XZ 000000018000d7a0 f   leveldb:db_impl.obj
 0001:0000c7c0       ??1Handler@WriteBatch@leveldb@@UEAA@XZ 000000018000d7c0 f   leveldb:write_batch.obj
 0001:0000c7c0       ??1SequentialFile@leveldb@@UEAA@XZ 000000018000d7c0 f   leveldb:env.obj
 0001:0000c7d0       ??_GSequentialFile@leveldb@@UEAAPEAXI@Z 000000018000d7d0 f i leveldb:env.obj
 0001:0000c7d0       ??_GHandler@WriteBatch@leveldb@@UEAAPEAXI@Z 000000018000d7d0 f i leveldb:write_batch.obj
 0001:0000c7d0       ??_EHandler@WriteBatch@leveldb@@UEAAPEAXI@Z 000000018000d7d0 f i * CIL library *:* CIL module *
 0001:0000c7d0       ??_ESequentialFile@leveldb@@UEAAPEAXI@Z 000000018000d7d0 f i * CIL library *:* CIL module *
 0001:0000c800       ?Clear@WriteBatch@leveldb@@QEAAXXZ 000000018000d800 f   leveldb:write_batch.obj
 0001:0000c850       ?Iterate@WriteBatch@leveldb@@QEBA?AVStatus@2@PEAVHandler@12@@Z 000000018000d850 f   leveldb:write_batch.obj
 0001:0000cd50       ?InsertInto@WriteBatchInternal@leveldb@@SA?AVStatus@2@PEBVWriteBatch@2@PEAVMemTable@2@@Z 000000018000dd50 f   leveldb:write_batch.obj
 0001:0000ce00       ??_GMemTableInserter@?A0xa8e95b65@leveldb@@UEAAPEAXI@Z 000000018000de00 f i leveldb:write_batch.obj
 0001:0000ce00       ??_EMemTableInserter@?A0xa8e95b65@leveldb@@UEAAPEAXI@Z 000000018000de00 f i * CIL library *:* CIL module *
 0001:0000ce40       ?push_back@?$basic_string@DU?$char_traits@D@std@@V?$allocator@D@2@@std@@QEAAXD@Z 000000018000de40 f i leveldb:write_batch.obj
 0001:0000cee0       ?append@?$basic_string@DU?$char_traits@D@std@@V?$allocator@D@2@@std@@QEAAAEAV12@PEBD_K@Z 000000018000dee0 f i leveldb:write_batch.obj
 0001:0000d030       ?append@?$basic_string@DU?$char_traits@D@std@@V?$allocator@D@2@@std@@QEAAAEAV12@AEBV12@_K1@Z 000000018000e030 f i leveldb:write_batch.obj
 0001:0000d160       ?append@?$basic_string@DU?$char_traits@D@std@@V?$allocator@D@2@@std@@QEAAAEAV12@_KD@Z 000000018000e160 f i leveldb:write_batch.obj
 0001:0000d280       __local_stdio_printf_options 000000018000e280 f i leveldb:status.obj
 0001:0000d290       snprintf                   000000018000e290 f i leveldb:status.obj
 0001:0000d2f0       ?ToString@Status@leveldb@@QEBA?AV?$basic_string@DU?$char_traits@D@std@@V?$allocator@D@2@@std@@XZ 000000018000e2f0 f   leveldb:status.obj
 0001:0000d770       ??_EBloomFilterPolicy@?A0x9ca00a5f@leveldb@@UEAAPEAXI@Z 000000018000e770 f i * CIL library *:* CIL module *
 0001:0000d770       ??_GBloomFilterPolicy@?A0x9ca00a5f@leveldb@@UEAAPEAXI@Z 000000018000e770 f i leveldb:bloom.obj
 0001:0000d7b0       ??_EFilterPolicy@leveldb@@UEAAPEAXI@Z 000000018000e7b0 f i * CIL library *:* CIL module *
 0001:0000d7b0       ??_GFilterPolicy@leveldb@@UEAAPEAXI@Z 000000018000e7b0 f i leveldb:bloom.obj
 0001:0000d7b0       ??_GSource@snappy@@UEAAPEAXI@Z 000000018000e7b0 f i snappy:snappy.obj
 0001:0000d7b0       ??_ESource@snappy@@UEAAPEAXI@Z 000000018000e7b0 f i * CIL library *:* CIL module *
 0001:0000d7e0       ?NewBloomFilterPolicy@leveldb@@YAPEBVFilterPolicy@1@H@Z 000000018000e7e0 f   leveldb:bloom.obj
 0001:0000d880       ?InvalidArgument@Status@leveldb@@SA?AV12@AEBVSlice@2@0@Z 000000018000e880 f i leveldb:db_impl.obj
 0001:0000d940       ?IOError@Status@leveldb@@SA?AV12@AEBVSlice@2@0@Z 000000018000e940 f i leveldb:db_impl.obj
 0001:0000da00       ??0Status@leveldb@@QEAA@AEBV01@@Z 000000018000ea00 f i leveldb:db_impl.obj
 0001:0000da70       ??_GDB@leveldb@@UEAAPEAXI@Z 000000018000ea70 f i leveldb:db_impl.obj
 0001:0000da70       ??_EDB@leveldb@@UEAAPEAXI@Z 000000018000ea70 f i * CIL library *:* CIL module *
 0001:0000daa0       ??_EInternalKeyComparator@leveldb@@UEAAPEAXI@Z 000000018000eaa0 f i * CIL library *:* CIL module *
 0001:0000daa0       ??_GInternalKeyComparator@leveldb@@UEAAPEAXI@Z 000000018000eaa0 f i leveldb:db_impl.obj
 0001:0000dae0       ??1InternalKeyComparator@leveldb@@UEAA@XZ 000000018000eae0 f i leveldb:db_impl.obj
 0001:0000db00       ??_GWritableFile@leveldb@@UEAAPEAXI@Z 000000018000eb00 f i leveldb:env.obj
 0001:0000db00       ??_EWritableFile@leveldb@@UEAAPEAXI@Z 000000018000eb00 f i * CIL library *:* CIL module *
 0001:0000db00       ??_GComparator@leveldb@@UEAAPEAXI@Z 000000018000eb00 f i leveldb:db_impl.obj
 0001:0000db00       ??_EComparator@leveldb@@UEAAPEAXI@Z 000000018000eb00 f i * CIL library *:* CIL module *
 0001:0000db30       ??_EInternalFilterPolicy@leveldb@@UEAAPEAXI@Z 000000018000eb30 f i * CIL library *:* CIL module *
 0001:0000db30       ??_GInternalFilterPolicy@leveldb@@UEAAPEAXI@Z 000000018000eb30 f i leveldb:db_impl.obj
 0001:0000db70       ??1InternalFilterPolicy@leveldb@@UEAA@XZ 000000018000eb70 f i leveldb:db_impl.obj
 0001:0000db90       ??1LookupKey@leveldb@@QEAA@XZ 000000018000eb90 f i leveldb:db_impl.obj
 0001:0000dbb0       ??1SnapshotImpl@leveldb@@UEAA@XZ 000000018000ebb0 f i leveldb:db_impl.obj
 0001:0000dbd0       ??_GSnapshotImpl@leveldb@@UEAAPEAXI@Z 000000018000ebd0 f i leveldb:db_impl.obj
 0001:0000dbd0       ??_ESnapshotImpl@leveldb@@UEAAPEAXI@Z 000000018000ebd0 f i * CIL library *:* CIL module *
 0001:0000dc10       ??_GFileLock@leveldb@@UEAAPEAXI@Z 000000018000ec10 f i leveldb:env.obj
 0001:0000dc10       ??_GSnapshot@leveldb@@MEAAPEAXI@Z 000000018000ec10 f i leveldb:db_impl.obj
 0001:0000dc10       ??_EFileLock@leveldb@@UEAAPEAXI@Z 000000018000ec10 f i * CIL library *:* CIL module *
 0001:0000dc10       ??_ESnapshot@leveldb@@MEAAPEAXI@Z 000000018000ec10 f i * CIL library *:* CIL module *
 0001:0000dc40       ??0VersionEdit@leveldb@@QEAA@XZ 000000018000ec40 f i leveldb:db_impl.obj
 0001:0000dd20       ??1VersionEdit@leveldb@@QEAA@XZ 000000018000ed20 f i leveldb:db_impl.obj
 0001:0000dde0       ?AddFile@VersionEdit@leveldb@@QEAAXH_K0AEBVInternalKey@2@1@Z 000000018000ede0 f i leveldb:db_impl.obj
 0001:0000df50       ??1?$set@U?$pair@H_K@std@@U?$less@U?$pair@H_K@std@@@2@V?$allocator@U?$pair@H_K@std@@@2@@std@@QEAA@XZ 000000018000ef50 f i leveldb:db_impl.obj
 0001:0000df90       ??1?$pair@HVInternalKey@leveldb@@@std@@QEAA@XZ 000000018000ef90 f i leveldb:db_impl.obj
 0001:0000dfc0       ??1FileMetaData@leveldb@@QEAA@XZ 000000018000efc0 f i leveldb:db_impl.obj
 0001:0000e000       ??1?$pair@HUFileMetaData@leveldb@@@std@@QEAA@XZ 000000018000f000 f i leveldb:db_impl.obj
 0001:0000e040       ?SetLastSequence@VersionSet@leveldb@@QEAAX_K@Z 000000018000f040 f i leveldb:db_impl.obj
 0001:0000e090       ??1MutexLock@leveldb@@QEAA@XZ 000000018000f090 f i leveldb:db_impl.obj
 0001:0000e0b0       ?SanitizeOptions@leveldb@@YA?AUOptions@1@AEBV?$basic_string@DU?$char_traits@D@std@@V?$allocator@D@2@@std@@PEBVInternalKeyComparator@1@PEBVInternalFilterPolicy@1@AEBU21@@Z 000000018000f0b0 f   leveldb:db_impl.obj
 0001:0000e3e0       ??0DBImpl@leveldb@@QEAA@AEBUOptions@1@AEBV?$basic_string@DU?$char_traits@D@std@@V?$allocator@D@2@@std@@@Z 000000018000f3e0 f   leveldb:db_impl.obj
 0001:0000e6d0       ??1DBImpl@leveldb@@UEAA@XZ 000000018000f6d0 f   leveldb:db_impl.obj
 0001:0000e9d0       ?NewDB@DBImpl@leveldb@@AEAA?AVStatus@2@XZ 000000018000f9d0 f   leveldb:db_impl.obj
 0001:0000eef0       ?MaybeIgnoreError@DBImpl@leveldb@@AEBAXPEAVStatus@2@@Z 000000018000fef0 f   leveldb:db_impl.obj
 0001:0000f010       ?DeleteObsoleteFiles@DBImpl@leveldb@@AEAAXXZ 0000000180010010 f   leveldb:db_impl.obj
 0001:0000f400       ?Recover@DBImpl@leveldb@@AEAA?AVStatus@2@PEAVVersionEdit@2@PEA_N@Z 0000000180010400 f   leveldb:db_impl.obj
 0001:0000fdf0       ?RecoverLogFile@DBImpl@leveldb@@AEAA?AVStatus@2@_K_NPEA_NPEAVVersionEdit@2@PEA_K@Z 0000000180010df0 f   leveldb:db_impl.obj
 0001:00010860       ?WriteLevel0Table@DBImpl@leveldb@@AEAA?AVStatus@2@PEAVMemTable@2@PEAVVersionEdit@2@PEAVVersion@2@@Z 0000000180011860 f   leveldb:db_impl.obj
 0001:00010c90       ?CompactMemTable@DBImpl@leveldb@@AEAAXXZ 0000000180011c90 f   leveldb:db_impl.obj
 0001:00010f30       ?CompactRange@DBImpl@leveldb@@UEAAXPEBVSlice@2@0@Z 0000000180011f30 f   leveldb:db_impl.obj
 0001:00011030       ?TEST_CompactRange@DBImpl@leveldb@@QEAAXHPEBVSlice@2@0@Z 0000000180012030 f   leveldb:db_impl.obj
 0001:00011360       ?TEST_CompactMemTable@DBImpl@leveldb@@QEAA?AVStatus@2@XZ 0000000180012360 f   leveldb:db_impl.obj
 0001:00011430       ?MaybeScheduleCompaction@DBImpl@leveldb@@AEAAXXZ 0000000180012430 f   leveldb:db_impl.obj
 0001:000114c0       ?BGWork@DBImpl@leveldb@@CAXPEAX@Z 00000001800124c0 f   leveldb:db_impl.obj
 0001:000114d0       ?BackgroundCall@DBImpl@leveldb@@AEAAXXZ 00000001800124d0 f   leveldb:db_impl.obj
 0001:00011570       ?BackgroundCompaction@DBImpl@leveldb@@AEAAXXZ 0000000180012570 f   leveldb:db_impl.obj
 0001:00011b00       ?CleanupCompaction@DBImpl@leveldb@@AEAAXPEAUCompactionState@12@@Z 0000000180012b00 f   leveldb:db_impl.obj
 0001:00011cb0       ?OpenCompactionOutputFile@DBImpl@leveldb@@AEAA?AVStatus@2@PEAUCompactionState@12@@Z 0000000180012cb0 f   leveldb:db_impl.obj
 0001:00011fc0       ?FinishCompactionOutputFile@DBImpl@leveldb@@AEAA?AVStatus@2@PEAUCompactionState@12@PEAVIterator@2@@Z 0000000180012fc0 f   leveldb:db_impl.obj
 0001:000122c0       ?InstallCompactionResults@DBImpl@leveldb@@AEAA?AVStatus@2@PEAUCompactionState@12@@Z 00000001800132c0 f   leveldb:db_impl.obj
 0001:00012420       ?DoCompactionWork@DBImpl@leveldb@@AEAA?AVStatus@2@PEAUCompactionState@12@@Z 0000000180013420 f   leveldb:db_impl.obj
 0001:00012f20       ?NewInternalIterator@DBImpl@leveldb@@AEAAPEAVIterator@2@AEBUReadOptions@2@PEA_KPEAI@Z 0000000180013f20 f   leveldb:db_impl.obj
 0001:00013170       ?Get@DBImpl@leveldb@@UEAA?AVStatus@2@AEBUReadOptions@2@AEBVSlice@2@PEAV?$basic_string@DU?$char_traits@D@std@@V?$allocator@D@2@@std@@@Z 0000000180014170 f   leveldb:db_impl.obj
 0001:000133d0       ?NewIterator@DBImpl@leveldb@@UEAAPEAVIterator@2@AEBUReadOptions@2@@Z 00000001800143d0 f   leveldb:db_impl.obj
 0001:00013460       ?RecordReadSample@DBImpl@leveldb@@QEAAXVSlice@2@@Z 0000000180014460 f   leveldb:db_impl.obj
 0001:00013580       ?GetSnapshot@DBImpl@leveldb@@UEAAPEBVSnapshot@2@XZ 0000000180014580 f   leveldb:db_impl.obj
 0001:00013630       ?ReleaseSnapshot@DBImpl@leveldb@@UEAAXPEBVSnapshot@2@@Z 0000000180014630 f   leveldb:db_impl.obj
 0001:000136d0       ?Put@DBImpl@leveldb@@UEAA?AVStatus@2@AEBUWriteOptions@2@AEBVSlice@2@1@Z 00000001800146d0 f   leveldb:db_impl.obj
 0001:00013710       ?Delete@DBImpl@leveldb@@UEAA?AVStatus@2@AEBUWriteOptions@2@AEBVSlice@2@@Z 0000000180014710 f   leveldb:db_impl.obj
 0001:00013750       ?Write@DBImpl@leveldb@@UEAA?AVStatus@2@AEBUWriteOptions@2@PEAVWriteBatch@2@@Z 0000000180014750 f   leveldb:db_impl.obj
 0001:00013cb0       ?BuildBatchGroup@DBImpl@leveldb@@AEAAPEAVWriteBatch@2@PEAPEAUWriter@12@@Z 0000000180014cb0 f   leveldb:db_impl.obj
 0001:00013fc0       ?MakeRoomForWrite@DBImpl@leveldb@@AEAA?AVStatus@2@_N@Z 0000000180014fc0 f   leveldb:db_impl.obj
 0001:000143a0       ?GetProperty@DBImpl@leveldb@@UEAA_NAEBVSlice@2@PEAV?$basic_string@DU?$char_traits@D@std@@V?$allocator@D@2@@std@@@Z 00000001800153a0 f   leveldb:db_impl.obj
 0001:000148f0       ?GetApproximateSizes@DBImpl@leveldb@@UEAAXPEBURange@2@HPEA_K@Z 00000001800158f0 f   leveldb:db_impl.obj
 0001:00014b20       ?Put@DB@leveldb@@UEAA?AVStatus@2@AEBUWriteOptions@2@AEBVSlice@2@1@Z 0000000180015b20 f   leveldb:db_impl.obj
 0001:00014c70       ?Delete@DB@leveldb@@UEAA?AVStatus@2@AEBUWriteOptions@2@AEBVSlice@2@@Z 0000000180015c70 f   leveldb:db_impl.obj
 0001:00014da0       ??1DB@leveldb@@UEAA@XZ     0000000180015da0 f   leveldb:db_impl.obj
 0001:00014db0       ?Open@DB@leveldb@@SA?AVStatus@2@AEBUOptions@2@AEBV?$basic_string@DU?$char_traits@D@std@@V?$allocator@D@2@@std@@PEAPEAV12@@Z 0000000180015db0 f   leveldb:db_impl.obj
 0001:00015110       ??1Snapshot@leveldb@@MEAA@XZ 0000000180016110 f   leveldb:db_impl.obj
 0001:00015110       ??1FileLock@leveldb@@UEAA@XZ 0000000180016110 f   leveldb:env.obj
 0001:00015120       ?DestroyDB@leveldb@@YA?AVStatus@1@AEBV?$basic_string@DU?$char_traits@D@std@@V?$allocator@D@2@@std@@AEBUOptions@1@@Z 0000000180016120 f   leveldb:db_impl.obj
 0001:00015580       ??_EDBImpl@leveldb@@UEAAPEAXI@Z 0000000180016580 f i * CIL library *:* CIL module *
 0001:00015580       ??_GDBImpl@leveldb@@UEAAPEAXI@Z 0000000180016580 f i leveldb:db_impl.obj
 0001:000155c0       ??1SnapshotList@leveldb@@QEAA@XZ 00000001800165c0 f i leveldb:db_impl.obj
 0001:000155f0       ??_ELogReporter@?1??RecoverLogFile@DBImpl@leveldb@@AEAA?AVStatus@3@_K_NPEA_NPEAVVersionEdit@3@PEA_K@Z@UEAAPEAXI@Z 00000001800165f0 f i * CIL library *:* CIL module *
 0001:000155f0       ??_GLogReporter@?1??RecoverLogFile@DBImpl@leveldb@@AEAA?AVStatus@3@_K_NPEA_NPEAVVersionEdit@3@PEA_K@Z@UEAAPEAXI@Z 00000001800165f0 f i leveldb:db_impl.obj
 0001:00015650       ??1ManualCompaction@DBImpl@leveldb@@QEAA@XZ 0000000180016650 f i leveldb:db_impl.obj
 0001:00015680       ??1Output@CompactionState@DBImpl@leveldb@@QEAA@XZ 0000000180016680 f i leveldb:db_impl.obj
 0001:000156c0       ??1Writer@DBImpl@leveldb@@QEAA@XZ 00000001800166c0 f i leveldb:db_impl.obj
 0001:000156f0       ??_EReporter@Reader@log@leveldb@@UEAAPEAXI@Z 00000001800166f0 f i * CIL library *:* CIL module *
 0001:000156f0       ??_GRandomAccessFile@leveldb@@UEAAPEAXI@Z 00000001800166f0 f i leveldb:env.obj
 0001:000156f0       ??_GLogger@leveldb@@UEAAPEAXI@Z 00000001800166f0 f i leveldb:env.obj
 0001:000156f0       ??_GReporter@Reader@log@leveldb@@UEAAPEAXI@Z 00000001800166f0 f i leveldb:db_impl.obj
 0001:000156f0       ??_ELogger@leveldb@@UEAAPEAXI@Z 00000001800166f0 f i * CIL library *:* CIL module *
 0001:000156f0       ??_ERandomAccessFile@leveldb@@UEAAPEAXI@Z 00000001800166f0 f i * CIL library *:* CIL module *
 0001:00015720       ??1?$vector@PEAVIterator@leveldb@@V?$allocator@PEAVIterator@leveldb@@@std@@@std@@QEAA@XZ 0000000180016720 f i leveldb:db_impl.obj
 0001:00015720       ??1?$vector@PEAUFileMetaData@leveldb@@V?$allocator@PEAUFileMetaData@leveldb@@@std@@@std@@QEAA@XZ 0000000180016720 f i leveldb:version_set.obj
 0001:00015720       ??1?$vector@PEADV?$allocator@PEAD@std@@@std@@QEAA@XZ 0000000180016720 f i leveldb:arena.obj
 0001:00015720       ??1?$vector@_KV?$allocator@_K@std@@@std@@QEAA@XZ 0000000180016720 f i leveldb:db_impl.obj
 0001:00015760       ??1?$vector@UOutput@CompactionState@DBImpl@leveldb@@V?$allocator@UOutput@CompactionState@DBImpl@leveldb@@@std@@@std@@QEAA@XZ 0000000180016760 f i leveldb:db_impl.obj
 0001:000157c0       ?push_back@?$vector@PEAVIterator@leveldb@@V?$allocator@PEAVIterator@leveldb@@@std@@@std@@QEAAX$$QEAPEAVIterator@leveldb@@@Z 00000001800167c0 f i leveldb:db_impl.obj
 0001:00015930       ??1?$vector@U?$pair@HUFileMetaData@leveldb@@@std@@V?$allocator@U?$pair@HUFileMetaData@leveldb@@@std@@@2@@std@@QEAA@XZ 0000000180016930 f i leveldb:db_impl.obj
 0001:00015990       ?push_back@?$vector@U?$pair@HUFileMetaData@leveldb@@@std@@V?$allocator@U?$pair@HUFileMetaData@leveldb@@@std@@@2@@std@@QEAAX$$QEAU?$pair@HUFileMetaData@leveldb@@@2@@Z 0000000180016990 f i leveldb:db_impl.obj
 0001:00015a60       ??1?$_Tree@V?$_Tset_traits@U?$pair@H_K@std@@U?$less@U?$pair@H_K@std@@@2@V?$allocator@U?$pair@H_K@std@@@2@$0A@@std@@@std@@QEAA@XZ 0000000180016a60 f i leveldb:db_impl.obj
 0001:00015aa0       ??1?$vector@U?$pair@HVInternalKey@leveldb@@@std@@V?$allocator@U?$pair@HVInternalKey@leveldb@@@std@@@2@@std@@QEAA@XZ 0000000180016aa0 f i leveldb:db_impl.obj
 0001:00015ab0       ??0?$set@_KU?$less@_K@std@@V?$allocator@_K@2@@std@@QEAA@AEBV01@@Z 0000000180016ab0 f i leveldb:db_impl.obj
 0001:00015ba0       ?end@?$deque@PEAUWriter@DBImpl@leveldb@@V?$allocator@PEAUWriter@DBImpl@leveldb@@@std@@@std@@QEAA?AV?$_Deque_iterator@V?$_Deque_val@U?$_Deque_simple_types@PEAUWriter@DBImpl@leveldb@@@std@@@std@@@2@XZ 0000000180016ba0 f i leveldb:db_impl.obj
 0001:00015ba0       ?end@?$deque@UBGItem@WinEnv@?A0xcf581e97@leveldb@@V?$allocator@UBGItem@WinEnv@?A0xcf581e97@leveldb@@@std@@@std@@QEAA?AV?$_Deque_iterator@V?$_Deque_val@U?$_Deque_simple_types@UBGItem@WinEnv@?A0xcf581e97@leveldb@@@std@@@std@@@2@XZ 0000000180016ba0 f i leveldb:env_win.obj
 0001:00015bc0       ?begin@?$deque@UBGItem@WinEnv@?A0xcf581e97@leveldb@@V?$allocator@UBGItem@WinEnv@?A0xcf581e97@leveldb@@@std@@@std@@QEAA?AV?$_Deque_iterator@V?$_Deque_val@U?$_Deque_simple_types@UBGItem@WinEnv@?A0xcf581e97@leveldb@@@std@@@std@@@2@XZ 0000000180016bc0 f i leveldb:env_win.obj
 0001:00015bc0       ?begin@?$deque@PEAUWriter@DBImpl@leveldb@@V?$allocator@PEAUWriter@DBImpl@leveldb@@@std@@@std@@QEAA?AV?$_Deque_iterator@V?$_Deque_val@U?$_Deque_simple_types@PEAUWriter@DBImpl@leveldb@@@std@@@std@@@2@XZ 0000000180016bc0 f i leveldb:db_impl.obj
 0001:00015be0       ??1?$deque@PEAUWriter@DBImpl@leveldb@@V?$allocator@PEAUWriter@DBImpl@leveldb@@@std@@@std@@QEAA@XZ 0000000180016be0 f i leveldb:db_impl.obj
 0001:00015be0       ??1?$deque@UBGItem@WinEnv@?A0xcf581e97@leveldb@@V?$allocator@UBGItem@WinEnv@?A0xcf581e97@leveldb@@@std@@@std@@QEAA@XZ 0000000180016be0 f i leveldb:env_win.obj
 0001:00015c20       ?push_back@?$deque@PEAUWriter@DBImpl@leveldb@@V?$allocator@PEAUWriter@DBImpl@leveldb@@@std@@@std@@QEAAX$$QEAPEAUWriter@DBImpl@leveldb@@@Z 0000000180016c20 f i leveldb:db_impl.obj
 0001:00015ce0       ??1?$vector@V?$basic_string@DU?$char_traits@D@std@@V?$allocator@D@2@@std@@V?$allocator@V?$basic_string@DU?$char_traits@D@std@@V?$allocator@D@2@@std@@@2@@std@@QEAA@XZ 0000000180016ce0 f i leveldb:db_impl.obj
 0001:00015d50       ??4?$basic_string@DU?$char_traits@D@std@@V?$allocator@D@2@@std@@QEAAAEAV01@$$QEAV01@@Z 0000000180016d50 f i leveldb:db_impl.obj
 0001:00015e00       ?_Reserve@?$vector@PEADV?$allocator@PEAD@std@@@std@@IEAAX_K@Z 0000000180016e00 f i leveldb:arena.obj
 0001:00015e00       ?_Reserve@?$vector@_KV?$allocator@_K@std@@@std@@IEAAX_K@Z 0000000180016e00 f i leveldb:db_impl.obj
 0001:00015e90       ?_Reserve@?$vector@UOutput@CompactionState@DBImpl@leveldb@@V?$allocator@UOutput@CompactionState@DBImpl@leveldb@@@std@@@std@@IEAAX_K@Z 0000000180016e90 f i leveldb:db_impl.obj
 0001:00015f60       ?_Reserve@?$vector@U?$pair@HUFileMetaData@leveldb@@@std@@V?$allocator@U?$pair@HUFileMetaData@leveldb@@@std@@@2@@std@@IEAAX_K@Z 0000000180016f60 f i leveldb:db_impl.obj
 0001:00016030       ?_Tidy@?$vector@U?$pair@HVInternalKey@leveldb@@@std@@V?$allocator@U?$pair@HVInternalKey@leveldb@@@std@@@2@@std@@IEAAXXZ 0000000180017030 f i leveldb:db_impl.obj
 0001:000160d0       ??1?$_Deque_alloc@U?$_Deque_base_types@UBGItem@WinEnv@?A0xcf581e97@leveldb@@V?$allocator@UBGItem@WinEnv@?A0xcf581e97@leveldb@@@std@@@std@@@std@@QEAA@XZ 00000001800170d0 f i leveldb:env_win.obj
 0001:000160d0       ??1?$_Deque_alloc@U?$_Deque_base_types@PEAUWriter@DBImpl@leveldb@@V?$allocator@PEAUWriter@DBImpl@leveldb@@@std@@@std@@@std@@QEAA@XZ 00000001800170d0 f i leveldb:db_impl.obj
 0001:000160f0       ?_Tidy@?$deque@UBGItem@WinEnv@?A0xcf581e97@leveldb@@V?$allocator@UBGItem@WinEnv@?A0xcf581e97@leveldb@@@std@@@std@@IEAAXXZ 00000001800170f0 f i leveldb:env_win.obj
 0001:000160f0       ?_Tidy@?$deque@PEAUWriter@DBImpl@leveldb@@V?$allocator@PEAUWriter@DBImpl@leveldb@@@std@@@std@@IEAAXXZ 00000001800170f0 f i leveldb:db_impl.obj
 0001:000161e0       ?_Growmap@?$deque@PEAUWriter@DBImpl@leveldb@@V?$allocator@PEAUWriter@DBImpl@leveldb@@@std@@@std@@IEAAX_K@Z 00000001800171e0 f i leveldb:db_impl.obj
 0001:00016410       ?deallocate@?$_Wrap_alloc@V?$allocator@PEAD@std@@@std@@QEAAXPEAPEAD_K@Z 0000000180017410 f i leveldb:arena.obj
 0001:00016410       ?deallocate@?$_Wrap_alloc@V?$allocator@PEAUFileMetaData@leveldb@@@std@@@std@@QEAAXPEAPEAUFileMetaData@leveldb@@_K@Z 0000000180017410 f i leveldb:version_set.obj
 0001:00016410       ?deallocate@?$_Wrap_alloc@V?$allocator@_K@std@@@std@@QEAAXPEA_K_K@Z 0000000180017410 f i leveldb:db_impl.obj
 0001:00016410       ?deallocate@?$_Wrap_alloc@V?$allocator@PEAVIterator@leveldb@@@std@@@std@@QEAAXPEAPEAVIterator@leveldb@@_K@Z 0000000180017410 f i leveldb:db_impl.obj
 0001:00016480       ?_Reallocate@?$vector@_KV?$allocator@_K@std@@@std@@IEAAX_K@Z 0000000180017480 f i leveldb:db_impl.obj
 0001:00016480       ?_Reallocate@?$vector@PEADV?$allocator@PEAD@std@@@std@@IEAAX_K@Z 0000000180017480 f i leveldb:arena.obj
 0001:00016480       ?_Reallocate@?$vector@PEAVIterator@leveldb@@V?$allocator@PEAVIterator@leveldb@@@std@@@std@@IEAAX_K@Z 0000000180017480 f i leveldb:db_impl.obj
 0001:00016480       ?_Reallocate@?$vector@PEAUFileMetaData@leveldb@@V?$allocator@PEAUFileMetaData@leveldb@@@std@@@std@@IEAAX_K@Z 0000000180017480 f i leveldb:version_set.obj
 0001:00016560       ?deallocate@?$_Wrap_alloc@V?$allocator@V?$basic_string@DU?$char_traits@D@std@@V?$allocator@D@2@@std@@@std@@@std@@QEAAXPEAV?$basic_string@DU?$char_traits@D@std@@V?$allocator@D@2@@2@_K@Z 0000000180017560 f i leveldb:db_impl.obj
 0001:000165d0       ?deallocate@?$_Wrap_alloc@V?$allocator@UOutput@CompactionState@DBImpl@leveldb@@@std@@@std@@QEAAXPEAUOutput@CompactionState@DBImpl@leveldb@@_K@Z 00000001800175d0 f i leveldb:db_impl.obj
 0001:00016640       ?_Reallocate@?$vector@UOutput@CompactionState@DBImpl@leveldb@@V?$allocator@UOutput@CompactionState@DBImpl@leveldb@@@std@@@std@@IEAAX_K@Z 0000000180017640 f i leveldb:db_impl.obj
 0001:00016770       ?_Destroy@?$vector@UOutput@CompactionState@DBImpl@leveldb@@V?$allocator@UOutput@CompactionState@DBImpl@leveldb@@@std@@@std@@IEAAXPEAUOutput@CompactionState@DBImpl@leveldb@@0@Z 0000000180017770 f i leveldb:db_impl.obj
 0001:000167e0       ?deallocate@?$_Wrap_alloc@V?$allocator@U?$pair@HUFileMetaData@leveldb@@@std@@@std@@@std@@QEAAXPEAU?$pair@HUFileMetaData@leveldb@@@2@_K@Z 00000001800177e0 f i leveldb:db_impl.obj
 0001:000167e0       ?deallocate@?$_Wrap_alloc@V?$allocator@UTableInfo@Repairer@?A0xf548df11@leveldb@@@std@@@std@@QEAAXPEAUTableInfo@Repairer@?A0xf548df11@leveldb@@_K@Z 00000001800177e0 f i leveldb:repair.obj
 0001:00016850       ?_Reallocate@?$vector@U?$pair@HUFileMetaData@leveldb@@@std@@V?$allocator@U?$pair@HUFileMetaData@leveldb@@@std@@@2@@std@@IEAAX_K@Z 0000000180017850 f i leveldb:db_impl.obj
 0001:000169c0       ?_Destroy@?$vector@U?$pair@HUFileMetaData@leveldb@@@std@@V?$allocator@U?$pair@HUFileMetaData@leveldb@@@std@@@2@@std@@IEAAXPEAU?$pair@HUFileMetaData@leveldb@@@2@0@Z 00000001800179c0 f i leveldb:db_impl.obj
 0001:00016a30       ?erase@?$_Tree@V?$_Tset_traits@U?$pair@H_K@std@@U?$less@U?$pair@H_K@std@@@2@V?$allocator@U?$pair@H_K@std@@@2@$0A@@std@@@std@@QEAA?AV?$_Tree_const_iterator@V?$_Tree_val@U?$_Tree_simple_types@U?$pair@H_K@std@@@std@@@std@@@2@V32@0@Z 0000000180017a30 f i leveldb:db_impl.obj
 0001:00016b10       ?deallocate@?$_Wrap_alloc@V?$allocator@U?$pair@HVInternalKey@leveldb@@@std@@@std@@@std@@QEAAXPEAU?$pair@HVInternalKey@leveldb@@@2@_K@Z 0000000180017b10 f i leveldb:db_impl.obj
 0001:00016b80       ?clear@?$_Tree@V?$_Tset_traits@U?$pair@H_K@std@@U?$less@U?$pair@H_K@std@@@2@V?$allocator@U?$pair@H_K@std@@@2@$0A@@std@@@std@@QEAAXXZ 0000000180017b80 f i leveldb:db_impl.obj
 0001:00016bf0       ??$make_pair@AEAHAEAUFileMetaData@leveldb@@@std@@YA?AU?$pair@HUFileMetaData@leveldb@@@0@AEAHAEAUFileMetaData@leveldb@@@Z 0000000180017bf0 f i leveldb:db_impl.obj
 0001:00016c40       ??$?HDU?$char_traits@D@std@@V?$allocator@D@1@@std@@YA?AV?$basic_string@DU?$char_traits@D@std@@V?$allocator@D@2@@0@AEBV10@PEBD@Z 0000000180017c40 f i leveldb:db_impl.obj
 0001:00016da0       ??$?HDU?$char_traits@D@std@@V?$allocator@D@1@@std@@YA?AV?$basic_string@DU?$char_traits@D@std@@V?$allocator@D@2@@0@$$QEAV10@AEBV10@@Z 0000000180017da0 f i leveldb:db_impl.obj
 0001:00016e10       ??$_Eqrange@_K@?$_Tree@V?$_Tset_traits@_KU?$less@_K@std@@V?$allocator@_K@2@$0A@@std@@@std@@IEAA?AU?$pair@V?$_Tree_const_iterator@V?$_Tree_val@U?$_Tree_simple_types@_K@std@@@std@@@std@@V12@@1@AEB_K@Z 0000000180017e10 f i leveldb:db_impl.obj
 0001:00016e10       ??$_Eqrange@_K@?$_Tree@V?$_Tset_traits@_KU?$less@_K@std@@V?$allocator@_K@2@$0A@@std@@@std@@IEBA?AU?$pair@V?$_Tree_const_iterator@V?$_Tree_val@U?$_Tree_simple_types@_K@std@@@std@@@std@@V12@@1@AEB_K@Z 0000000180017e10 f i leveldb:db_impl.obj
 0001:00016ea0       ??$_Insert_nohint@U?$pair@H_K@std@@U_Nil@2@@?$_Tree@V?$_Tset_traits@U?$pair@H_K@std@@U?$less@U?$pair@H_K@std@@@2@V?$allocator@U?$pair@H_K@std@@@2@$0A@@std@@@std@@IEAA?AU?$pair@V?$_Tree_const_iterator@V?$_Tree_val@U?$_Tree_simple_types@U?$pair@H_K@std@@@std@@@std@@@std@@_N@1@_N$$QEAU?$pair@H_K@1@U_Nil@1@@Z 0000000180017ea0 f i leveldb:db_impl.obj
 0001:00016ff0       ??$_Insert_nohint@AEB_KU_Nil@std@@@?$_Tree@V?$_Tset_traits@_KU?$less@_K@std@@V?$allocator@_K@2@$0A@@std@@@std@@IEAA?AU?$pair@V?$_Tree_const_iterator@V?$_Tree_val@U?$_Tree_simple_types@_K@std@@@std@@@std@@_N@1@_NAEB_KU_Nil@1@@Z 0000000180017ff0 f i leveldb:db_impl.obj
 0001:00017140       ??$_Distance1@V?$_Tree_const_iterator@V?$_Tree_val@U?$_Tree_simple_types@_K@std@@@std@@@std@@@std@@YA_JV?$_Tree_const_iterator@V?$_Tree_val@U?$_Tree_simple_types@_K@std@@@std@@@0@0Uinput_iterator_tag@0@@Z 0000000180018140 f i leveldb:db_impl.obj
 0001:000171c0       ??0FileMetaData@leveldb@@QEAA@AEBU01@@Z 00000001800181c0 f i leveldb:db_impl.obj
 0001:00017260       ??$_Insert_at@U?$pair@H_K@std@@U_Nil@2@@?$_Tree@V?$_Tset_traits@U?$pair@H_K@std@@U?$less@U?$pair@H_K@std@@@2@V?$allocator@U?$pair@H_K@std@@@2@$0A@@std@@@std@@IEAA?AV?$_Tree_const_iterator@V?$_Tree_val@U?$_Tree_simple_types@U?$pair@H_K@std@@@std@@@std@@@1@_NPEAU?$_Tree_node@U?$pair@H_K@std@@PEAX@1@$$QEAU?$pair@H_K@1@U_Nil@1@@Z 0000000180018260 f i leveldb:db_impl.obj
 0001:00017570       ??$_Insert_at@AEB_KU_Nil@std@@@?$_Tree@V?$_Tset_traits@_KU?$less@_K@std@@V?$allocator@_K@2@$0A@@std@@@std@@IEAA?AV?$_Tree_const_iterator@V?$_Tree_val@U?$_Tree_simple_types@_K@std@@@std@@@1@_NPEAU?$_Tree_node@_KPEAX@1@AEB_KU_Nil@1@@Z 0000000180018570 f i leveldb:db_impl.obj
 0001:00017880       ??$_Copy_nodes@U_Copy_tag@?$_Tree@V?$_Tset_traits@_KU?$less@_K@std@@V?$allocator@_K@2@$0A@@std@@@std@@@?$_Tree@V?$_Tset_traits@_KU?$less@_K@std@@V?$allocator@_K@2@$0A@@std@@@std@@IEAAPEAU?$_Tree_node@_KPEAX@1@PEAU21@0U_Copy_tag@01@@Z 0000000180018880 f i leveldb:db_impl.obj
 0001:00017970       ??0Output@CompactionState@DBImpl@leveldb@@QEAA@AEBU0123@@Z 0000000180018970 f i leveldb:db_impl.obj
 0001:00017a10       ??0FileMetaData@leveldb@@QEAA@$$QEAU01@@Z 0000000180018a10 f i leveldb:db_impl.obj
 0001:00017ab0       ??$_Sort_unchecked1@PEA_K_JU?$less@X@std@@@std@@YAXPEA_K0_JAEAU?$less@X@0@@Z 0000000180018ab0 f i leveldb:db_impl.obj
 0001:00017be0       ??$_Uninitialized_move_al_unchecked1@PEAUOutput@CompactionState@DBImpl@leveldb@@PEAU1234@V?$allocator@UOutput@CompactionState@DBImpl@leveldb@@@std@@@std@@YAPEAUOutput@CompactionState@DBImpl@leveldb@@PEAU1234@00AEAU?$_Wrap_alloc@V?$allocator@UOutput@CompactionState@DBImpl@leveldb@@@std@@@0@U_General_ptr_iterator_tag@0@U_Any_tag@0@@Z 0000000180018be0 f i leveldb:db_impl.obj
 0001:00017ca0       ??$_Partition_by_median_guess_unchecked@PEA_KU?$less@X@std@@@std@@YA?AU?$pair@PEA_KPEA_K@0@PEA_K0AEAU?$less@X@0@@Z 0000000180018ca0 f i leveldb:db_impl.obj
 0001:00017e60       ??$_Make_heap_unchecked@PEA_KU?$less@X@std@@@std@@YAXPEA_K0AEAU?$less@X@0@@Z 0000000180018e60 f i leveldb:db_impl.obj
 0001:00017f60       ??$_Insertion_sort_unchecked@PEA_KU?$less@X@std@@@std@@YAXPEA_K0AEAU?$less@X@0@@Z 0000000180018f60 f i leveldb:db_impl.obj
 0001:00018020       ??$_Guess_median_unchecked@PEA_KU?$less@X@std@@@std@@YAXPEA_K00AEAU?$less@X@0@@Z 0000000180019020 f i leveldb:db_impl.obj
 0001:00018180       ??$_Pop_heap_unchecked@PEA_KU?$less@X@std@@@std@@YAXPEA_K0AEAU?$less@X@0@@Z 0000000180019180 f i leveldb:db_impl.obj
 0001:00018270       ??_GCache@leveldb@@UEAAPEAXI@Z 0000000180019270 f i leveldb:cache.obj
 0001:00018270       ??_ECache@leveldb@@UEAAPEAXI@Z 0000000180019270 f i * CIL library *:* CIL module *
 0001:000182a0       ??1Cache@leveldb@@UEAA@XZ  00000001800192a0 f   leveldb:cache.obj
 0001:00018fc0       ??_EShardedLRUCache@?A0xfa0b1ac0@leveldb@@UEAAPEAXI@Z 0000000180019fc0 f i * CIL library *:* CIL module *
 0001:00018fc0       ??_GShardedLRUCache@?A0xfa0b1ac0@leveldb@@UEAAPEAXI@Z 0000000180019fc0 f i leveldb:cache.obj
 0001:00019040       ??0Options@leveldb@@QEAA@XZ 000000018001a040 f   leveldb:options.obj
 0001:0001bd70       ??_GLogReporter@?1??ConvertLogToTable@Repairer@?A0xf548df11@leveldb@@AEAA?AVStatus@4@_K@Z@UEAAPEAXI@Z 000000018001cd70 f i leveldb:repair.obj
 0001:0001bd70       ??_ELogReporter@?1??ConvertLogToTable@Repairer@?A0xf548df11@leveldb@@AEAA?AVStatus@4@_K@Z@UEAAPEAXI@Z 000000018001cd70 f i * CIL library *:* CIL module *
 0001:0001bdf0       ?RepairDB@leveldb@@YA?AVStatus@1@AEBV?$basic_string@DU?$char_traits@D@std@@V?$allocator@D@2@@std@@AEBUOptions@1@@Z 000000018001cdf0 f   leveldb:repair.obj
 0001:0001be70       ?push_back@?$vector@UTableInfo@Repairer@?A0xf548df11@leveldb@@V?$allocator@UTableInfo@Repairer@?A0xf548df11@leveldb@@@std@@@std@@QEAAXAEBUTableInfo@Repairer@?A0xf548df11@leveldb@@@Z 000000018001ce70 f i leveldb:repair.obj
 0001:0001bf50       ??1?$vector@UTableInfo@Repairer@?A0xf548df11@leveldb@@V?$allocator@UTableInfo@Repairer@?A0xf548df11@leveldb@@@std@@@std@@QEAA@XZ 000000018001cf50 f i leveldb:repair.obj
 0001:0001bfb0       ?push_back@?$vector@V?$basic_string@DU?$char_traits@D@std@@V?$allocator@D@2@@std@@V?$allocator@V?$basic_string@DU?$char_traits@D@std@@V?$allocator@D@2@@std@@@2@@std@@QEAAXAEBV?$basic_string@DU?$char_traits@D@std@@V?$allocator@D@2@@2@@Z 000000018001cfb0 f i leveldb:repair.obj
 0001:0001c160       ?_Reserve@?$vector@UTableInfo@Repairer@?A0xf548df11@leveldb@@V?$allocator@UTableInfo@Repairer@?A0xf548df11@leveldb@@@std@@@std@@IEAAX_K@Z 000000018001d160 f i leveldb:repair.obj
 0001:0001c230       ?_Reallocate@?$vector@UTableInfo@Repairer@?A0xf548df11@leveldb@@V?$allocator@UTableInfo@Repairer@?A0xf548df11@leveldb@@@std@@@std@@IEAAX_K@Z 000000018001d230 f i leveldb:repair.obj
 0001:0001c360       ?_Destroy@?$vector@UTableInfo@Repairer@?A0xf548df11@leveldb@@V?$allocator@UTableInfo@Repairer@?A0xf548df11@leveldb@@@std@@@std@@IEAAXPEAUTableInfo@Repairer@?A0xf548df11@leveldb@@0@Z 000000018001d360 f i leveldb:repair.obj
 0001:0001c3d0       ?_Reallocate@?$vector@V?$basic_string@DU?$char_traits@D@std@@V?$allocator@D@2@@std@@V?$allocator@V?$basic_string@DU?$char_traits@D@std@@V?$allocator@D@2@@std@@@2@@std@@IEAAX_K@Z 000000018001d3d0 f i leveldb:repair.obj
 0001:0001c510       ??$_Uninitialized_move_al_unchecked@PEAUTableInfo@Repairer@?A0xf548df11@leveldb@@PEAU1234@V?$allocator@UTableInfo@Repairer@?A0xf548df11@leveldb@@@std@@@std@@YAPEAUTableInfo@Repairer@?A0xf548df11@leveldb@@PEAU1234@00AEAU?$_Wrap_alloc@V?$allocator@UTableInfo@Repairer@?A0xf548df11@leveldb@@@std@@@0@@Z 000000018001d510 f i leveldb:repair.obj
 0001:0001c5a0       ?EncodeVarint32@leveldb@@YAPEADPEADI@Z 000000018001d5a0 f   leveldb:coding.obj
 0001:0001c620       ?PutVarint32@leveldb@@YAXPEAV?$basic_string@DU?$char_traits@D@std@@V?$allocator@D@2@@std@@I@Z 000000018001d620 f   leveldb:coding.obj
 0001:0001c6f0       ?NotFound@Status@leveldb@@SA?AV12@AEBVSlice@2@0@Z 000000018001d6f0 f i leveldb:memtable.obj
 0001:0001c7b0       ?Allocate@Arena@leveldb@@QEAAPEAD_K@Z 000000018001d7b0 f i leveldb:memtable.obj
 0001:0001c860       ??0MemTable@leveldb@@QEAA@AEBVInternalKeyComparator@1@@Z 000000018001d860 f   leveldb:memtable.obj
 0001:0001c900       ??1KeyComparator@MemTable@leveldb@@QEAA@XZ 000000018001d900 f i leveldb:memtable.obj
 0001:0001c930       ??1?$SkipList@PEBDUKeyComparator@MemTable@leveldb@@@leveldb@@QEAA@XZ 000000018001d930 f i leveldb:memtable.obj
 0001:0001c960       ??1MemTable@leveldb@@AEAA@XZ 000000018001d960 f   leveldb:memtable.obj
 0001:0001c9e0       ??RKeyComparator@MemTable@leveldb@@QEBAHPEBD0@Z 000000018001d9e0 f   leveldb:memtable.obj
 0001:0001caa0       ?Valid@MemTableIterator@leveldb@@UEBA_NXZ 000000018001daa0 f i leveldb:memtable.obj
 0001:0001cab0       ?Seek@MemTableIterator@leveldb@@UEAAXAEBVSlice@2@@Z 000000018001dab0 f i leveldb:memtable.obj
 0001:0001cba0       ?SeekToFirst@MemTableIterator@leveldb@@UEAAXXZ 000000018001dba0 f i leveldb:memtable.obj
 0001:0001cbc0       ?SeekToLast@MemTableIterator@leveldb@@UEAAXXZ 000000018001dbc0 f i leveldb:memtable.obj
 0001:0001cbd0       ?Next@MemTableIterator@leveldb@@UEAAXXZ 000000018001dbd0 f i leveldb:memtable.obj
 0001:0001cc20       ?Prev@MemTableIterator@leveldb@@UEAAXXZ 000000018001dc20 f i leveldb:memtable.obj
 0001:0001cc80       ?key@MemTableIterator@leveldb@@UEBA?AVSlice@2@XZ 000000018001dc80 f i leveldb:memtable.obj
 0001:0001cd20       ?value@MemTableIterator@leveldb@@UEBA?AVSlice@2@XZ 000000018001dd20 f i leveldb:memtable.obj
 0001:0001ce10       ?status@LevelFileNumIterator@Version@leveldb@@UEBA?AVStatus@3@XZ 000000018001de10 f i leveldb:version_set.obj
 0001:0001ce10       ?Flush@WinWritableFile@leveldb@@UEAA?AVStatus@2@XZ 000000018001de10 f i leveldb:env_win.obj
 0001:0001ce10       ?status@MemTableIterator@leveldb@@UEBA?AVStatus@2@XZ 000000018001de10 f i leveldb:memtable.obj
 0001:0001ce50       ??_GMemTableIterator@leveldb@@UEAAPEAXI@Z 000000018001de50 f i leveldb:memtable.obj
 0001:0001ce50       ??_EMemTableIterator@leveldb@@UEAAPEAXI@Z 000000018001de50 f i * CIL library *:* CIL module *
 0001:0001ceb0       ?Add@MemTable@leveldb@@QEAAX_KW4ValueType@2@AEBVSlice@2@2@Z 000000018001deb0 f   leveldb:memtable.obj
 0001:0001cff0       ?Get@MemTable@leveldb@@QEAA_NAEBVLookupKey@2@PEAV?$basic_string@DU?$char_traits@D@std@@V?$allocator@D@2@@std@@PEAVStatus@2@@Z 000000018001dff0 f   leveldb:memtable.obj
 0001:0001d210       ??0?$SkipList@PEBDUKeyComparator@MemTable@leveldb@@@leveldb@@QEAA@UKeyComparator@MemTable@1@PEAVArena@1@@Z 000000018001e210 f i leveldb:memtable.obj
 0001:0001d2f0       ?Insert@?$SkipList@PEBDUKeyComparator@MemTable@leveldb@@@leveldb@@QEAAXAEBQEBD@Z 000000018001e2f0 f i leveldb:memtable.obj
 0001:0001d510       ?SeekToLast@Iterator@?$SkipList@PEBDUKeyComparator@MemTable@leveldb@@@leveldb@@QEAAXXZ 000000018001e510 f i leveldb:memtable.obj
 0001:0001d5a0       ?RandomHeight@?$SkipList@PEBDUKeyComparator@MemTable@leveldb@@@leveldb@@AEAAHXZ 000000018001e5a0 f i leveldb:memtable.obj
 0001:0001d630       ?FindLessThan@?$SkipList@PEBDUKeyComparator@MemTable@leveldb@@@leveldb@@AEBAPEAUNode@12@AEBQEBD@Z 000000018001e630 f i leveldb:memtable.obj
 0001:0001d700       ?Hash@leveldb@@YAIPEBD_KI@Z 000000018001e700 f   leveldb:hash.obj
 0001:0001d780       ??1FilterPolicy@leveldb@@UEAA@XZ 000000018001e780 f   leveldb:filter_policy.obj
 0001:0001d780       ??1Source@snappy@@UEAA@XZ  000000018001e780 f   snappy:snappy-sinksource.obj
 0001:0001d790       ?AppendInternalKey@leveldb@@YAXPEAV?$basic_string@DU?$char_traits@D@std@@V?$allocator@D@2@@std@@AEBUParsedInternalKey@1@@Z 000000018001e790 f   leveldb:dbformat.obj
 0001:0001d850       ?DebugString@ParsedInternalKey@leveldb@@QEBA?AV?$basic_string@DU?$char_traits@D@std@@V?$allocator@D@2@@std@@XZ 000000018001e850 f   leveldb:dbformat.obj
 0001:0001da40       ?DebugString@InternalKey@leveldb@@QEBA?AV?$basic_string@DU?$char_traits@D@std@@V?$allocator@D@2@@std@@XZ 000000018001ea40 f   leveldb:dbformat.obj
 0001:0001dc60       ?Name@InternalKeyComparator@leveldb@@UEBAPEBDXZ 000000018001ec60 f   leveldb:dbformat.obj
 0001:0001dc70       ?Compare@InternalKeyComparator@leveldb@@UEBAHAEBVSlice@2@0@Z 000000018001ec70 f   leveldb:dbformat.obj
 0001:0001dd60       ?FindShortestSeparator@InternalKeyComparator@leveldb@@UEBAXPEAV?$basic_string@DU?$char_traits@D@std@@V?$allocator@D@2@@std@@AEBVSlice@2@@Z 000000018001ed60 f   leveldb:dbformat.obj
 0001:0001e010       ?FindShortSuccessor@InternalKeyComparator@leveldb@@UEBAXPEAV?$basic_string@DU?$char_traits@D@std@@V?$allocator@D@2@@std@@@Z 000000018001f010 f   leveldb:dbformat.obj
 0001:0001e240       ?Name@InternalFilterPolicy@leveldb@@UEBAPEBDXZ 000000018001f240 f   leveldb:dbformat.obj
 0001:0001e250       ?CreateFilter@InternalFilterPolicy@leveldb@@UEBAXPEBVSlice@2@HPEAV?$basic_string@DU?$char_traits@D@std@@V?$allocator@D@2@@std@@@Z 000000018001f250 f   leveldb:dbformat.obj
 0001:0001e300       ?KeyMayMatch@InternalFilterPolicy@leveldb@@UEBA_NAEBVSlice@2@0@Z 000000018001f300 f   leveldb:dbformat.obj
 0001:0001e370       ??0LookupKey@leveldb@@QEAA@AEBVSlice@1@_K@Z 000000018001f370 f   leveldb:dbformat.obj
 0001:0001e430       ?_Swap_bx@?$basic_string@DU?$char_traits@D@std@@V?$allocator@D@2@@std@@QEAAXAEAV12@@Z 000000018001f430 f i leveldb:dbformat.obj
 0001:0001e520       ?BuildTable@leveldb@@YA?AVStatus@1@AEBV?$basic_string@DU?$char_traits@D@std@@V?$allocator@D@2@@std@@PEAVEnv@1@AEBUOptions@1@PEAVTableCache@1@PEAVIterator@1@PEAUFileMetaData@1@@Z 000000018001f520 f   leveldb:builder.obj
 0001:0001eac0       ??1Mutex@port@leveldb@@QEAA@XZ 000000018001fac0 f   leveldb:port_uv.obj
 0001:0001eae0       ??1CondVar@port@leveldb@@QEAA@XZ 000000018001fae0 f   leveldb:port_uv.obj
 0001:0001eb90       ?LogFileName@leveldb@@YA?AV?$basic_string@DU?$char_traits@D@std@@V?$allocator@D@2@@std@@AEBV23@_K@Z 000000018001fb90 f   leveldb:filename.obj
 0001:0001ec10       ?TableFileName@leveldb@@YA?AV?$basic_string@DU?$char_traits@D@std@@V?$allocator@D@2@@std@@AEBV23@_K@Z 000000018001fc10 f   leveldb:filename.obj
 0001:0001ec90       ?SSTTableFileName@leveldb@@YA?AV?$basic_string@DU?$char_traits@D@std@@V?$allocator@D@2@@std@@AEBV23@_K@Z 000000018001fc90 f   leveldb:filename.obj
 0001:0001ed10       ?DescriptorFileName@leveldb@@YA?AV?$basic_string@DU?$char_traits@D@std@@V?$allocator@D@2@@std@@AEBV23@_K@Z 000000018001fd10 f   leveldb:filename.obj
 0001:0001edc0       ?CurrentFileName@leveldb@@YA?AV?$basic_string@DU?$char_traits@D@std@@V?$allocator@D@2@@std@@AEBV23@@Z 000000018001fdc0 f   leveldb:filename.obj
 0001:0001ee00       ?LockFileName@leveldb@@YA?AV?$basic_string@DU?$char_traits@D@std@@V?$allocator@D@2@@std@@AEBV23@@Z 000000018001fe00 f   leveldb:filename.obj
 0001:0001ee40       ?TempFileName@leveldb@@YA?AV?$basic_string@DU?$char_traits@D@std@@V?$allocator@D@2@@std@@AEBV23@_K@Z 000000018001fe40 f   leveldb:filename.obj
 0001:0001eec0       ?InfoLogFileName@leveldb@@YA?AV?$basic_string@DU?$char_traits@D@std@@V?$allocator@D@2@@std@@AEBV23@@Z 000000018001fec0 f   leveldb:filename.obj
 0001:0001ef00       ?OldInfoLogFileName@leveldb@@YA?AV?$basic_string@DU?$char_traits@D@std@@V?$allocator@D@2@@std@@AEBV23@@Z 000000018001ff00 f   leveldb:filename.obj
 0001:0001ef40       ?ParseFileName@leveldb@@YA_NAEBV?$basic_string@DU?$char_traits@D@std@@V?$allocator@D@2@@std@@PEA_KPEAW4FileType@1@@Z 000000018001ff40 f   leveldb:filename.obj
 0001:0001f1e0       ?SetCurrentFile@leveldb@@YA?AVStatus@1@PEAVEnv@1@AEBV?$basic_string@DU?$char_traits@D@std@@V?$allocator@D@2@@std@@_K@Z 00000001800201e0 f   leveldb:filename.obj
 0001:0001f650       ??$?HDU?$char_traits@D@std@@V?$allocator@D@1@@std@@YA?AV?$basic_string@DU?$char_traits@D@std@@V?$allocator@D@2@@0@$$QEAV10@PEBD@Z 0000000180020650 f i leveldb:filename.obj
 0001:0001f6d0       ?NotSupported@Status@leveldb@@SA?AV12@AEBVSlice@2@0@Z 00000001800206d0 f i leveldb:env.obj
 0001:0001f790       ??_EEnv@leveldb@@UEAAPEAXI@Z 0000000180020790 f i * CIL library *:* CIL module *
 0001:0001f790       ??_GEnv@leveldb@@UEAAPEAXI@Z 0000000180020790 f i leveldb:env.obj
 0001:0001f7c0       ??1Env@leveldb@@UEAA@XZ    00000001800207c0 f   leveldb:env.obj
 0001:0001f7d0       ?NewAppendableFile@Env@leveldb@@UEAA?AVStatus@2@AEBV?$basic_string@DU?$char_traits@D@std@@V?$allocator@D@2@@std@@PEAPEAVWritableFile@2@@Z 00000001800207d0 f   leveldb:env.obj
 0001:0001f850       ??1Logger@leveldb@@UEAA@XZ 0000000180020850 f   leveldb:env.obj
 0001:0001f850       ??1RandomAccessFile@leveldb@@UEAA@XZ 0000000180020850 f   leveldb:env.obj
 0001:0001f850       ??1Reporter@Reader@log@leveldb@@UEAA@XZ 0000000180020850 f   leveldb:log_reader.obj
 0001:0001f860       ??1Comparator@leveldb@@UEAA@XZ 0000000180020860 f   leveldb:comparator.obj
 0001:0001f860       ??1WritableFile@leveldb@@UEAA@XZ 0000000180020860 f   leveldb:env.obj
 0001:0001f870       ?Log@leveldb@@YAXPEAVLogger@1@PEBDZZ 0000000180020870 f   leveldb:env.obj
 0001:0001fad0       ?WriteStringToFileSync@leveldb@@YA?AVStatus@1@PEAVEnv@1@AEBVSlice@1@AEBV?$basic_string@DU?$char_traits@D@std@@V?$allocator@D@2@@std@@@Z 0000000180020ad0 f   leveldb:env.obj
 0001:0001fb10       ?ReadFileToString@leveldb@@YA?AVStatus@1@PEAVEnv@1@AEBV?$basic_string@DU?$char_traits@D@std@@V?$allocator@D@2@@std@@PEAV45@@Z 0000000180020b10 f   leveldb:env.obj
 0001:0001fcf0       ??0IteratorWrapper@leveldb@@QEAA@XZ 0000000180020cf0 f i leveldb:merger.obj
 0001:0001fd10       ??1IteratorWrapper@leveldb@@QEAA@XZ 0000000180020d10 f i leveldb:merger.obj
 0001:0001fd40       ?status@IteratorWrapper@leveldb@@QEBA?AVStatus@2@XZ 0000000180020d40 f i leveldb:merger.obj
 0001:0001fdb0       ?Next@IteratorWrapper@leveldb@@QEAAXXZ 0000000180020db0 f i leveldb:merger.obj
 0001:0001fe10       ?Seek@IteratorWrapper@leveldb@@QEAAXAEBVSlice@2@@Z 0000000180020e10 f i leveldb:merger.obj
 0001:000207d0       ??_GMergingIterator@?A0xd4ddc066@leveldb@@UEAAPEAXI@Z 00000001800217d0 f i leveldb:merger.obj
 0001:000207d0       ??_EMergingIterator@?A0xd4ddc066@leveldb@@UEAAPEAXI@Z 00000001800217d0 f i * CIL library *:* CIL module *
 0001:00020a20       ?NewMergingIterator@leveldb@@YAPEAVIterator@1@PEBVComparator@1@PEAPEAV21@H@Z 0000000180021a20 f   leveldb:merger.obj
 0001:00020ab0       fprintf                    0000000180021ab0 f i leveldb:version_set.obj
 0001:00020b00       ?Compare@InternalKeyComparator@leveldb@@QEBAHAEBVInternalKey@2@0@Z 0000000180021b00 f i leveldb:version_set.obj
 0001:00020bc0       ??0Version@leveldb@@AEAA@PEAVVersionSet@1@@Z 0000000180021bc0 f i leveldb:version_set.obj
 0001:00020cd0       ??1Version@leveldb@@AEAA@XZ 0000000180021cd0 f   leveldb:version_set.obj
 0001:00020df0       ?FindFile@leveldb@@YAHAEBVInternalKeyComparator@1@AEBV?$vector@PEAUFileMetaData@leveldb@@V?$allocator@PEAUFileMetaData@leveldb@@@std@@@std@@AEBVSlice@1@@Z 0000000180021df0 f   leveldb:version_set.obj
 0001:00021000       ?SomeFileOverlapsRange@leveldb@@YA_NAEBVInternalKeyComparator@1@_NAEBV?$vector@PEAUFileMetaData@leveldb@@V?$allocator@PEAUFileMetaData@leveldb@@@std@@@std@@PEBVSlice@1@3@Z 0000000180022000 f   leveldb:version_set.obj
 0001:000211b0       ?Valid@LevelFileNumIterator@Version@leveldb@@UEBA_NXZ 00000001800221b0 f i leveldb:version_set.obj
 0001:000211d0       ?Seek@LevelFileNumIterator@Version@leveldb@@UEAAXAEBVSlice@3@@Z 00000001800221d0 f i leveldb:version_set.obj
 0001:00021200       ?SeekToFirst@LevelFileNumIterator@Version@leveldb@@UEAAXXZ 0000000180022200 f i leveldb:version_set.obj
 0001:00021210       ?SeekToLast@LevelFileNumIterator@Version@leveldb@@UEAAXXZ 0000000180022210 f i leveldb:version_set.obj
 0001:00021240       ?Next@LevelFileNumIterator@Version@leveldb@@UEAAXXZ 0000000180022240 f i leveldb:version_set.obj
 0001:00021280       ?Prev@LevelFileNumIterator@Version@leveldb@@UEAAXXZ 0000000180022280 f i leveldb:version_set.obj
 0001:000212e0       ?key@LevelFileNumIterator@Version@leveldb@@UEBA?AVSlice@3@XZ 00000001800222e0 f i leveldb:version_set.obj
 0001:00021380       ?value@LevelFileNumIterator@Version@leveldb@@UEBA?AVSlice@3@XZ 0000000180022380 f i leveldb:version_set.obj
 0001:00021400       ??_ELevelFileNumIterator@Version@leveldb@@UEAAPEAXI@Z 0000000180022400 f i * CIL library *:* CIL module *
 0001:00021400       ??_GLevelFileNumIterator@Version@leveldb@@UEAAPEAXI@Z 0000000180022400 f i leveldb:version_set.obj
 0001:00021500       ?NewConcatenatingIterator@Version@leveldb@@AEBAPEAVIterator@2@AEBUReadOptions@2@H@Z 0000000180022500 f   leveldb:version_set.obj
 0001:000215e0       ?AddIterators@Version@leveldb@@QEAAXAEBUReadOptions@2@PEAV?$vector@PEAVIterator@leveldb@@V?$allocator@PEAVIterator@leveldb@@@std@@@std@@@Z 00000001800225e0 f   leveldb:version_set.obj
 0001:00021790       ?ForEachOverlapping@Version@leveldb@@AEAAXVSlice@2@0PEAXP6A_N1HPEAUFileMetaData@2@@Z@Z 0000000180022790 f   leveldb:version_set.obj
 0001:00021bb0       ?Get@Version@leveldb@@QEAA?AVStatus@2@AEBUReadOptions@2@AEBVLookupKey@2@PEAV?$basic_string@DU?$char_traits@D@std@@V?$allocator@D@2@@std@@PEAUGetStats@12@@Z 0000000180022bb0 f   leveldb:version_set.obj
 0001:000223f0       ?Unref@Version@leveldb@@QEAAXXZ 00000001800233f0 f   leveldb:version_set.obj
 0001:00022470       ?PickLevelForMemTableOutput@Version@leveldb@@QEAAHAEBVSlice@2@0@Z 0000000180023470 f   leveldb:version_set.obj
 0001:00022680       ?GetOverlappingInputs@Version@leveldb@@QEAAXHPEBVInternalKey@2@0PEAV?$vector@PEAUFileMetaData@leveldb@@V?$allocator@PEAUFileMetaData@leveldb@@@std@@@std@@@Z 0000000180023680 f   leveldb:version_set.obj
 0001:000229b0       ?DebugString@Version@leveldb@@QEBA?AV?$basic_string@DU?$char_traits@D@std@@V?$allocator@D@2@@std@@XZ 00000001800239b0 f   leveldb:version_set.obj
 0001:00022df0       ??0Builder@VersionSet@leveldb@@QEAA@PEAV12@PEAVVersion@2@@Z 0000000180023df0 f i leveldb:version_set.obj
 0001:00022ed0       ??1Builder@VersionSet@leveldb@@QEAA@XZ 0000000180023ed0 f i leveldb:version_set.obj
 0001:00023190       ?Apply@Builder@VersionSet@leveldb@@QEAAXPEAVVersionEdit@3@@Z 0000000180024190 f i leveldb:version_set.obj
 0001:00023550       ?SaveTo@Builder@VersionSet@leveldb@@QEAAXPEAVVersion@3@@Z 0000000180024550 f i leveldb:version_set.obj
 0001:00023a00       ?MaybeAddFile@Builder@VersionSet@leveldb@@QEAAXPEAVVersion@3@HPEAUFileMetaData@3@@Z 0000000180024a00 f i leveldb:version_set.obj
 0001:00023b40       ??0LevelState@Builder@VersionSet@leveldb@@QEAA@XZ 0000000180024b40 f i leveldb:version_set.obj
 0001:00023ba0       ??1LevelState@Builder@VersionSet@leveldb@@QEAA@XZ 0000000180024ba0 f i leveldb:version_set.obj
 0001:00023be0       ??0VersionSet@leveldb@@QEAA@AEBV?$basic_string@DU?$char_traits@D@std@@V?$allocator@D@2@@std@@PEBUOptions@1@PEAVTableCache@1@PEBVInternalKeyComparator@1@@Z 0000000180024be0 f   leveldb:version_set.obj
 0001:00023d00       ??1VersionSet@leveldb@@QEAA@XZ 0000000180024d00 f   leveldb:version_set.obj
 0001:00023dd0       ?AppendVersion@VersionSet@leveldb@@AEAAXPEAVVersion@2@@Z 0000000180024dd0 f   leveldb:version_set.obj
 0001:00023e70       ?LogAndApply@VersionSet@leveldb@@QEAA?AVStatus@2@PEAVVersionEdit@2@PEAVMutex@port@2@@Z 0000000180024e70 f   leveldb:version_set.obj
 0001:000244d0       ?Recover@VersionSet@leveldb@@QEAA?AVStatus@2@PEA_N@Z 00000001800254d0 f   leveldb:version_set.obj
 0001:00024f00       ??_GLogReporter@?1??Recover@VersionSet@leveldb@@QEAA?AVStatus@3@PEA_N@Z@UEAAPEAXI@Z 0000000180025f00 f i leveldb:version_set.obj
 0001:00024f00       ??_ELogReporter@?1??Recover@VersionSet@leveldb@@QEAA?AVStatus@3@PEA_N@Z@UEAAPEAXI@Z 0000000180025f00 f i * CIL library *:* CIL module *
 0001:00024f40       ?ReuseManifest@VersionSet@leveldb@@AEAA_NAEBV?$basic_string@DU?$char_traits@D@std@@V?$allocator@D@2@@std@@0@Z 0000000180025f40 f   leveldb:version_set.obj
 0001:00025140       ?Finalize@VersionSet@leveldb@@AEAAXPEAVVersion@2@@Z 0000000180026140 f   leveldb:version_set.obj
 0001:000252f0       ?WriteSnapshot@VersionSet@leveldb@@AEAA?AVStatus@2@PEAVWriter@log@2@@Z 00000001800262f0 f   leveldb:version_set.obj
 0001:000256a0       ?NumLevelFiles@VersionSet@leveldb@@QEBAHH@Z 00000001800266a0 f   leveldb:version_set.obj
 0001:00025720       ?LevelSummary@VersionSet@leveldb@@QEBAPEBDPEAULevelSummaryStorage@12@@Z 0000000180026720 f   leveldb:version_set.obj
 0001:000257e0       ?ApproximateOffsetOf@VersionSet@leveldb@@QEAA_KPEAVVersion@2@AEBVInternalKey@2@@Z 00000001800267e0 f   leveldb:version_set.obj
 0001:00025a20       ?AddLiveFiles@VersionSet@leveldb@@QEAAXPEAV?$set@_KU?$less@_K@std@@V?$allocator@_K@2@@std@@@Z 0000000180026a20 f   leveldb:version_set.obj
 0001:00025b00       ?GetRange@VersionSet@leveldb@@AEAAXAEBV?$vector@PEAUFileMetaData@leveldb@@V?$allocator@PEAUFileMetaData@leveldb@@@std@@@std@@PEAVInternalKey@2@1@Z 0000000180026b00 f   leveldb:version_set.obj
 0001:00025c50       ?GetRange2@VersionSet@leveldb@@AEAAXAEBV?$vector@PEAUFileMetaData@leveldb@@V?$allocator@PEAUFileMetaData@leveldb@@@std@@@std@@0PEAVInternalKey@2@1@Z 0000000180026c50 f   leveldb:version_set.obj
 0001:00025d80       ?MakeInputIterator@VersionSet@leveldb@@QEAAPEAVIterator@2@PEAVCompaction@2@@Z 0000000180026d80 f   leveldb:version_set.obj
 0001:00026140       ?PickCompaction@VersionSet@leveldb@@QEAAPEAVCompaction@2@XZ 0000000180027140 f   leveldb:version_set.obj
 0001:00026590       ?SetupOtherInputs@VersionSet@leveldb@@AEAAXPEAVCompaction@2@@Z 0000000180027590 f   leveldb:version_set.obj
 0001:00026a90       ?CompactRange@VersionSet@leveldb@@QEAAPEAVCompaction@2@HPEBVInternalKey@2@0@Z 0000000180027a90 f   leveldb:version_set.obj
 0001:00026bd0       ??0Compaction@leveldb@@AEAA@PEBUOptions@1@H@Z 0000000180027bd0 f   leveldb:version_set.obj
 0001:00026ca0       ??1Compaction@leveldb@@QEAA@XZ 0000000180027ca0 f   leveldb:version_set.obj
 0001:00026d30       ?IsTrivialMove@Compaction@leveldb@@QEBA_NXZ 0000000180027d30 f   leveldb:version_set.obj
 0001:00026e10       ?AddInputDeletions@Compaction@leveldb@@QEAAXPEAVVersionEdit@2@@Z 0000000180027e10 f   leveldb:version_set.obj
 0001:00026ee0       ?IsBaseLevelForKey@Compaction@leveldb@@QEAA_NAEBVSlice@2@@Z 0000000180027ee0 f   leveldb:version_set.obj
 0001:00027070       ?ShouldStopBefore@Compaction@leveldb@@QEAA_NAEBVSlice@2@@Z 0000000180028070 f   leveldb:version_set.obj
 0001:000271d0       ??1?$_Tree@V?$_Tset_traits@PEAUFileMetaData@leveldb@@UBySmallestKey@Builder@VersionSet@2@V?$allocator@PEAUFileMetaData@leveldb@@@std@@$0A@@std@@@std@@QEAA@XZ 00000001800281d0 f i leveldb:version_set.obj
 0001:00027210       ?resize@?$vector@PEAUFileMetaData@leveldb@@V?$allocator@PEAUFileMetaData@leveldb@@@std@@@std@@QEAAX_K@Z 0000000180028210 f i leveldb:version_set.obj
 0001:00027300       ??4?$vector@PEAUFileMetaData@leveldb@@V?$allocator@PEAUFileMetaData@leveldb@@@std@@@std@@QEAAAEAV01@AEBV01@@Z 0000000180028300 f i leveldb:version_set.obj
 0001:00027430       ??0?$vector@PEAUFileMetaData@leveldb@@V?$allocator@PEAUFileMetaData@leveldb@@@std@@@std@@QEAA@XZ 0000000180028430 f i leveldb:version_set.obj
 0001:00027450       ?push_back@?$vector@U?$pair@HVInternalKey@leveldb@@@std@@V?$allocator@U?$pair@HVInternalKey@leveldb@@@std@@@2@@std@@QEAAX$$QEAU?$pair@HVInternalKey@leveldb@@@2@@Z 0000000180028450 f i leveldb:version_set.obj
 0001:00027550       ??1?$_Tree_comp_alloc@V?$_Tset_traits@PEAUFileMetaData@leveldb@@UBySmallestKey@Builder@VersionSet@2@V?$allocator@PEAUFileMetaData@leveldb@@@std@@$0A@@std@@@std@@QEAA@XZ 0000000180028550 f i leveldb:version_set.obj
 0001:00027560       ?_Reserve@?$vector@PEAUFileMetaData@leveldb@@V?$allocator@PEAUFileMetaData@leveldb@@@std@@@std@@IEAAX_K@Z 0000000180028560 f i leveldb:version_set.obj
 0001:000275f0       ?_Buy@?$vector@PEAUFileMetaData@leveldb@@V?$allocator@PEAUFileMetaData@leveldb@@@std@@@std@@IEAA_N_K@Z 00000001800285f0 f i leveldb:version_set.obj
 0001:00027650       ?_Reserve@?$vector@U?$pair@HVInternalKey@leveldb@@@std@@V?$allocator@U?$pair@HVInternalKey@leveldb@@@std@@@2@@std@@IEAAX_K@Z 0000000180028650 f i leveldb:version_set.obj
 0001:00027720       ?erase@?$_Tree@V?$_Tset_traits@PEAUFileMetaData@leveldb@@UBySmallestKey@Builder@VersionSet@2@V?$allocator@PEAUFileMetaData@leveldb@@@std@@$0A@@std@@@std@@QEAA?AV?$_Tree_const_iterator@V?$_Tree_val@U?$_Tree_simple_types@PEAUFileMetaData@leveldb@@@std@@@std@@@2@V32@0@Z 0000000180028720 f i leveldb:version_set.obj
 0001:00027800       ?allocate@?$_Wrap_alloc@V?$allocator@PEAUFileMetaData@leveldb@@@std@@@std@@QEAAPEAPEAUFileMetaData@leveldb@@_K@Z 0000000180028800 f i leveldb:version_set.obj
 0001:00027870       ?_Reallocate@?$vector@U?$pair@HVInternalKey@leveldb@@@std@@V?$allocator@U?$pair@HVInternalKey@leveldb@@@std@@@2@@std@@IEAAX_K@Z 0000000180028870 f i leveldb:version_set.obj
 0001:000279c0       ?clear@?$_Tree@V?$_Tset_traits@PEAUFileMetaData@leveldb@@UBySmallestKey@Builder@VersionSet@2@V?$allocator@PEAUFileMetaData@leveldb@@@std@@$0A@@std@@@std@@QEAAXXZ 00000001800289c0 f i leveldb:version_set.obj
 0001:00027a40       ?erase@?$_Tree@V?$_Tset_traits@PEAUFileMetaData@leveldb@@UBySmallestKey@Builder@VersionSet@2@V?$allocator@PEAUFileMetaData@leveldb@@@std@@$0A@@std@@@std@@QEAA?AV?$_Tree_const_iterator@V?$_Tree_val@U?$_Tree_simple_types@PEAUFileMetaData@leveldb@@@std@@@std@@@2@V32@@Z 0000000180028a40 f i leveldb:version_set.obj
 0001:00027f40       ??$make_pair@AEAHAEAVInternalKey@leveldb@@@std@@YA?AU?$pair@HVInternalKey@leveldb@@@0@AEAHAEAVInternalKey@leveldb@@@Z 0000000180028f40 f i leveldb:version_edit.obj
 0001:00027f40       ??$make_pair@AEAHAEBVInternalKey@leveldb@@@std@@YA?AU?$pair@HVInternalKey@leveldb@@@0@AEAHAEBVInternalKey@leveldb@@@Z 0000000180028f40 f i leveldb:version_set.obj
 0001:00027fa0       ??$_Insert_nohint@AEBQEAUFileMetaData@leveldb@@U_Nil@std@@@?$_Tree@V?$_Tset_traits@PEAUFileMetaData@leveldb@@UBySmallestKey@Builder@VersionSet@2@V?$allocator@PEAUFileMetaData@leveldb@@@std@@$0A@@std@@@std@@IEAA?AU?$pair@V?$_Tree_const_iterator@V?$_Tree_val@U?$_Tree_simple_types@PEAUFileMetaData@leveldb@@@std@@@std@@@std@@_N@1@_NAEBQEAUFileMetaData@leveldb@@U_Nil@1@@Z 0000000180028fa0 f i leveldb:version_set.obj
 0001:00028140       ??$_Insert@V?$_Vector_const_iterator@V?$_Vector_val@U?$_Simple_types@PEAUFileMetaData@leveldb@@@std@@@std@@@std@@@?$vector@PEAUFileMetaData@leveldb@@V?$allocator@PEAUFileMetaData@leveldb@@@std@@@std@@QEAAXV?$_Vector_const_iterator@V?$_Vector_val@U?$_Simple_types@PEAUFileMetaData@leveldb@@@std@@@std@@@1@00Uforward_iterator_tag@1@@Z 0000000180029140 f i leveldb:version_set.obj
 0001:000282e0       ??$_Sort_unchecked1@PEAPEAUFileMetaData@leveldb@@_JP6A_NPEAU12@0@Z@std@@YAXPEAPEAUFileMetaData@leveldb@@0_JAEAP6A_NPEAU12@2@Z@Z 00000001800292e0 f i leveldb:version_set.obj
 0001:00028400       ??$_Insert_at@AEBQEAUFileMetaData@leveldb@@U_Nil@std@@@?$_Tree@V?$_Tset_traits@PEAUFileMetaData@leveldb@@UBySmallestKey@Builder@VersionSet@2@V?$allocator@PEAUFileMetaData@leveldb@@@std@@$0A@@std@@@std@@IEAA?AV?$_Tree_const_iterator@V?$_Tree_val@U?$_Tree_simple_types@PEAUFileMetaData@leveldb@@@std@@@std@@@1@_NPEAU?$_Tree_node@PEAUFileMetaData@leveldb@@PEAX@1@AEBQEAUFileMetaData@leveldb@@U_Nil@1@@Z 0000000180029400 f i leveldb:version_set.obj
 0001:00028720       ??$_Partition_by_median_guess_unchecked@PEAPEAUFileMetaData@leveldb@@P6A_NPEAU12@0@Z@std@@YA?AU?$pair@PEAPEAUFileMetaData@leveldb@@PEAPEAU12@@0@PEAPEAUFileMetaData@leveldb@@0AEAP6A_NPEAU23@1@Z@Z 0000000180029720 f i leveldb:version_set.obj
 0001:00028920       ??$_Make_heap_unchecked@PEAPEAUFileMetaData@leveldb@@P6A_NPEAU12@0@Z@std@@YAXPEAPEAUFileMetaData@leveldb@@0AEAP6A_NPEAU12@1@Z@Z 0000000180029920 f i leveldb:version_set.obj
 0001:00028a70       ??$_Sort_heap_unchecked@PEAPEAUFileMetaData@leveldb@@P6A_NPEAU12@0@Z@std@@YAXPEAPEAUFileMetaData@leveldb@@0AEAP6A_NPEAU12@1@Z@Z 0000000180029a70 f i leveldb:version_set.obj
 0001:00028b10       ??$_Insertion_sort_unchecked@PEAPEAUFileMetaData@leveldb@@P6A_NPEAU12@0@Z@std@@YAXPEAPEAUFileMetaData@leveldb@@0AEAP6A_NPEAU12@1@Z@Z 0000000180029b10 f i leveldb:version_set.obj
 0001:00028bf0       ??$_Uninitialized_move_al_unchecked1@PEAU?$pair@HVInternalKey@leveldb@@@std@@PEAU12@V?$allocator@U?$pair@HVInternalKey@leveldb@@@std@@@2@@std@@YAPEAU?$pair@HVInternalKey@leveldb@@@0@PEAU10@00AEAU?$_Wrap_alloc@V?$allocator@U?$pair@HVInternalKey@leveldb@@@std@@@std@@@0@U_General_ptr_iterator_tag@0@U_Any_tag@0@@Z 0000000180029bf0 f i leveldb:version_set.obj
 0001:00028c80       ??$_Guess_median_unchecked@PEAPEAUFileMetaData@leveldb@@P6A_NPEAU12@0@Z@std@@YAXPEAPEAUFileMetaData@leveldb@@00AEAP6A_NPEAU12@1@Z@Z 0000000180029c80 f i leveldb:version_set.obj
 0001:00028e90       ??$_Pop_heap_hole_by_index@PEAPEAUFileMetaData@leveldb@@_JPEAU12@P6A_NPEAU12@0@Z@std@@YAXPEAPEAUFileMetaData@leveldb@@_J1$$QEAPEAU12@AEAP6A_NPEAU12@3@Z@Z 0000000180029e90 f i leveldb:version_set.obj
 0001:00028fa0       ??$_Rotate_unchecked1@PEAPEAUFileMetaData@leveldb@@@std@@YAPEAPEAUFileMetaData@leveldb@@PEAPEAU12@00Urandom_access_iterator_tag@0@@Z 0000000180029fa0 f i leveldb:version_set.obj
 0001:000290f0       ??0TableCache@leveldb@@QEAA@AEBV?$basic_string@DU?$char_traits@D@std@@V?$allocator@D@2@@std@@PEBUOptions@1@H@Z 000000018002a0f0 f   leveldb:table_cache.obj
 0001:00029180       ?FindTable@TableCache@leveldb@@AEAA?AVStatus@2@_K0PEAPEAUHandle@Cache@2@@Z 000000018002a180 f   leveldb:table_cache.obj
 0001:00029460       ?NewIterator@TableCache@leveldb@@QEAAPEAVIterator@2@AEBUReadOptions@2@_K1PEAPEAVTable@2@@Z 000000018002a460 f   leveldb:table_cache.obj
 0001:000295b0       ?Get@TableCache@leveldb@@QEAA?AVStatus@2@AEBUReadOptions@2@_K1AEBVSlice@2@PEAXP6AX322@Z@Z 000000018002a5b0 f   leveldb:table_cache.obj
 0001:00029680       ?EncodeTo@VersionEdit@leveldb@@QEBAXPEAV?$basic_string@DU?$char_traits@D@std@@V?$allocator@D@2@@std@@@Z 000000018002a680 f   leveldb:version_edit.obj
 0001:00029c40       ?DecodeFrom@VersionEdit@leveldb@@QEAA?AVStatus@2@AEBVSlice@2@@Z 000000018002ac40 f   leveldb:version_edit.obj
 0001:0002a830       ?clear@?$vector@U?$pair@HUFileMetaData@leveldb@@@std@@V?$allocator@U?$pair@HUFileMetaData@leveldb@@@std@@@2@@std@@QEAAXXZ 000000018002b830 f i leveldb:version_edit.obj
 0001:0002a8b0       ??1Reader@log@leveldb@@QEAA@XZ 000000018002b8b0 f   leveldb:log_reader.obj
 0001:0002a8c0       ?ReadRecord@Reader@log@leveldb@@QEAA_NPEAVSlice@3@PEAV?$basic_string@DU?$char_traits@D@std@@V?$allocator@D@2@@std@@@Z 000000018002b8c0 f   leveldb:log_reader.obj
 0001:0002ae00       ?ReportCorruption@Reader@log@leveldb@@AEAAX_KPEBD@Z 000000018002be00 f   leveldb:log_reader.obj
 0001:0002aea0       ?ReadPhysicalRecord@Reader@log@leveldb@@AEAAIPEAVSlice@3@@Z 000000018002bea0 f   leveldb:log_reader.obj
 0001:0002b1b0       ??0Writer@log@leveldb@@QEAA@PEAVWritableFile@2@@Z 000000018002c1b0 f   leveldb:log_writer.obj
 0001:0002b210       ??0Writer@log@leveldb@@QEAA@PEAVWritableFile@2@_K@Z 000000018002c210 f   leveldb:log_writer.obj
 0001:0002b280       ?AddRecord@Writer@log@leveldb@@QEAA?AVStatus@3@AEBVSlice@3@@Z 000000018002c280 f   leveldb:log_writer.obj
 0001:0002b440       ?EmitPhysicalRecord@Writer@log@leveldb@@AEAA?AVStatus@3@W4RecordType@23@PEBD_K@Z 000000018002c440 f   leveldb:log_writer.obj
 0001:0002b5c0       ??_EIterator@leveldb@@UEAAPEAXI@Z 000000018002c5c0 f i * CIL library *:* CIL module *
 0001:0002b5c0       ??_GIterator@leveldb@@UEAAPEAXI@Z 000000018002c5c0 f i leveldb:iterator.obj
 0001:0002b600       ??1Iterator@leveldb@@UEAA@XZ 000000018002c600 f   leveldb:iterator.obj
 0001:0002b850       ??_EEmptyIterator@?A0xf4b9f651@leveldb@@UEAAPEAXI@Z 000000018002c850 f i * CIL library *:* CIL module *
 0001:0002b850       ??_GEmptyIterator@?A0xf4b9f651@leveldb@@UEAAPEAXI@Z 000000018002c850 f i leveldb:iterator.obj
 0001:0002b8b0       ?NewEmptyIterator@leveldb@@YAPEAVIterator@1@XZ 000000018002c8b0 f   leveldb:iterator.obj
 0001:0002bd10       ??_EDBIter@?A0x82e07e78@leveldb@@UEAAPEAXI@Z 000000018002cd10 f i * CIL library *:* CIL module *
 0001:0002bd10       ??_GDBIter@?A0x82e07e78@leveldb@@UEAAPEAXI@Z 000000018002cd10 f i leveldb:db_iter.obj
 0001:0002c780       ?Snappy_Compress@port@leveldb@@YA_NPEBD_KPEAV?$basic_string@DU?$char_traits@D@std@@V?$allocator@D@2@@std@@@Z 000000018002d780 f i leveldb:table_builder.obj
 0001:0002c8b0       ??0Rep@TableBuilder@leveldb@@QEAA@AEBUOptions@2@PEAVWritableFile@2@@Z 000000018002d8b0 f i leveldb:table_builder.obj
 0001:0002ca60       ??1BlockBuilder@leveldb@@QEAA@XZ 000000018002da60 f i leveldb:table_builder.obj
 0001:0002cac0       ??0TableBuilder@leveldb@@QEAA@AEBUOptions@1@PEAVWritableFile@1@@Z 000000018002dac0 f   leveldb:table_builder.obj
 0001:0002cb30       ??1TableBuilder@leveldb@@QEAA@XZ 000000018002db30 f   leveldb:table_builder.obj
 0001:0002cbc0       ??1FilterBlockBuilder@leveldb@@QEAA@XZ 000000018002dbc0 f i leveldb:table_builder.obj
 0001:0002cc80       ??1Rep@TableBuilder@leveldb@@QEAA@XZ 000000018002dc80 f i leveldb:table_builder.obj
 0001:0002cd70       ?Add@TableBuilder@leveldb@@QEAAXAEBVSlice@2@0@Z 000000018002dd70 f   leveldb:table_builder.obj
 0001:0002d010       ?Flush@TableBuilder@leveldb@@QEAAXXZ 000000018002e010 f   leveldb:table_builder.obj
 0001:0002d140       ?WriteBlock@TableBuilder@leveldb@@AEAAXPEAVBlockBuilder@2@PEAVBlockHandle@2@@Z 000000018002e140 f   leveldb:table_builder.obj
 0001:0002d280       ?WriteRawBlock@TableBuilder@leveldb@@AEAAXAEBVSlice@2@W4CompressionType@2@PEAVBlockHandle@2@@Z 000000018002e280 f   leveldb:table_builder.obj
 0001:0002d3f0       ?status@TableBuilder@leveldb@@QEBA?AVStatus@2@XZ 000000018002e3f0 f   leveldb:table_builder.obj
 0001:0002d470       ?Finish@TableBuilder@leveldb@@QEAA?AVStatus@2@XZ 000000018002e470 f   leveldb:table_builder.obj
 0001:0002db00       ??1?$vector@VSlice@leveldb@@V?$allocator@VSlice@leveldb@@@std@@@std@@QEAA@XZ 000000018002eb00 f i leveldb:table_builder.obj
 0001:0002db40       ??1?$vector@IV?$allocator@I@std@@@std@@QEAA@XZ 000000018002eb40 f i leveldb:table_builder.obj
 0001:0002db80       ?deallocate@?$_Wrap_alloc@V?$allocator@VSlice@leveldb@@@std@@@std@@QEAAXPEAVSlice@leveldb@@_K@Z 000000018002eb80 f i leveldb:table_builder.obj
 0001:0002dbf0       ?deallocate@?$_Wrap_alloc@V?$allocator@I@std@@@std@@QEAAXPEAI_K@Z 000000018002ebf0 f i leveldb:table_builder.obj
 0001:0002dc60       ?EscapeString@leveldb@@YA?AV?$basic_string@DU?$char_traits@D@std@@V?$allocator@D@2@@std@@AEBVSlice@1@@Z 000000018002ec60 f   leveldb:logging.obj
 0001:0002dd80       ?ConsumeDecimalNumber@leveldb@@YA_NPEAVSlice@1@PEA_K@Z 000000018002ed80 f   leveldb:logging.obj
 0001:0002e0d0       ??_GBytewiseComparatorImpl@?A0x70986fc3@leveldb@@UEAAPEAXI@Z 000000018002f0d0 f i leveldb:comparator.obj
 0001:0002e0d0       ??_EBytewiseComparatorImpl@?A0x70986fc3@leveldb@@UEAAPEAXI@Z 000000018002f0d0 f i * CIL library *:* CIL module *
 0001:0002e150       ??_EWinLogger@leveldb@@UEAAPEAXI@Z 000000018002f150 f i * CIL library *:* CIL module *
 0001:0002e150       ??_GWinLogger@leveldb@@UEAAPEAXI@Z 000000018002f150 f i leveldb:env_win.obj
 0001:0002e360       ?Read@WinSequentialFile@leveldb@@UEAA?AVStatus@2@_KPEAVSlice@2@PEAD@Z 000000018002f360 f i leveldb:env_win.obj
 0001:0002e410       ?Skip@WinSequentialFile@leveldb@@UEAA?AVStatus@2@_K@Z 000000018002f410 f i leveldb:env_win.obj
 0001:0002e480       ??_EWinSequentialFile@leveldb@@UEAAPEAXI@Z 000000018002f480 f i * CIL library *:* CIL module *
 0001:0002e480       ??_GWinSequentialFile@leveldb@@UEAAPEAXI@Z 000000018002f480 f i leveldb:env_win.obj
 0001:0002e4f0       ?Read@WinRandomAccessFile@leveldb@@UEBA?AVStatus@2@_K0PEAVSlice@2@PEAD@Z 000000018002f4f0 f i leveldb:env_win.obj
 0001:0002e650       ??_GWinRandomAccessFile@leveldb@@UEAAPEAXI@Z 000000018002f650 f i leveldb:env_win.obj
 0001:0002e650       ??_EWinRandomAccessFile@leveldb@@UEAAPEAXI@Z 000000018002f650 f i * CIL library *:* CIL module *
 0001:0002e6c0       ??0WinWritableFile@leveldb@@QEAA@V?$basic_string@DU?$char_traits@D@std@@V?$allocator@D@2@@std@@PEAX@Z 000000018002f6c0 f i leveldb:env_win.obj
 0001:0002e760       ?Append@WinWritableFile@leveldb@@UEAA?AVStatus@2@AEBVSlice@2@@Z 000000018002f760 f i leveldb:env_win.obj
 0001:0002e8c0       ?Close@WinWritableFile@leveldb@@UEAA?AVStatus@2@XZ 000000018002f8c0 f i leveldb:env_win.obj
 0001:0002e970       ?Sync@WinWritableFile@leveldb@@UEAA?AVStatus@2@XZ 000000018002f970 f i leveldb:env_win.obj
 0001:0002e9d0       ??_GWinWritableFile@leveldb@@UEAAPEAXI@Z 000000018002f9d0 f i leveldb:env_win.obj
 0001:0002e9d0       ??_EWinWritableFile@leveldb@@UEAAPEAXI@Z 000000018002f9d0 f i * CIL library *:* CIL module *
 0001:0002ed60       ??_GWinFileLock@?A0xcf581e97@leveldb@@UEAAPEAXI@Z 000000018002fd60 f i leveldb:env_win.obj
 0001:0002ed60       ??_EWinFileLock@?A0xcf581e97@leveldb@@UEAAPEAXI@Z 000000018002fd60 f i * CIL library *:* CIL module *
 0001:000307b0       ??_GWinEnv@?A0xcf581e97@leveldb@@UEAAPEAXI@Z 00000001800317b0 f i leveldb:env_win.obj
 0001:000307b0       ??_EWinEnv@?A0xcf581e97@leveldb@@UEAAPEAXI@Z 00000001800317b0 f i * CIL library *:* CIL module *
 0001:00030be0       ?push_back@?$vector@V?$basic_string@DU?$char_traits@D@std@@V?$allocator@D@2@@std@@V?$allocator@V?$basic_string@DU?$char_traits@D@std@@V?$allocator@D@2@@std@@@2@@std@@QEAAX$$QEAV?$basic_string@DU?$char_traits@D@std@@V?$allocator@D@2@@2@@Z 0000000180031be0 f i leveldb:env_win.obj
 0001:00030d30       ??G?$_Deque_iterator@V?$_Deque_val@U?$_Deque_simple_types@UBGItem@WinEnv@?A0xcf581e97@leveldb@@@std@@@std@@@std@@QEBA?AV01@_J@Z 0000000180031d30 f i leveldb:env_win.obj
 0001:00030d80       ?_Growmap@?$deque@UBGItem@WinEnv@?A0xcf581e97@leveldb@@V?$allocator@UBGItem@WinEnv@?A0xcf581e97@leveldb@@@std@@@std@@IEAAX_K@Z 0000000180031d80 f i leveldb:env_win.obj
 0001:00030fa0       ??$?HDU?$char_traits@D@std@@V?$allocator@D@1@@std@@YA?AV?$basic_string@DU?$char_traits@D@std@@V?$allocator@D@2@@0@PEBDAEBV10@@Z 0000000180031fa0 f i leveldb:env_win.obj
 0001:000310f0       ??1Arena@leveldb@@QEAA@XZ  00000001800320f0 f   leveldb:arena.obj
 0001:00031180       ?AllocateAligned@Arena@leveldb@@QEAAPEAD_K@Z 0000000180032180 f   leveldb:arena.obj
 0001:00031250       ?AllocateNewBlock@Arena@leveldb@@AEAAPEAD_K@Z 0000000180032250 f   leveldb:arena.obj
 0001:00031310       ??1Rep@Table@leveldb@@QEAA@XZ 0000000180032310 f i leveldb:table.obj
 0001:00031390       ??_GBlock@leveldb@@QEAAPEAXI@Z 0000000180032390 f i leveldb:table.obj
 0001:000313c0       ?Open@Table@leveldb@@SA?AVStatus@2@AEBUOptions@2@PEAVRandomAccessFile@2@_KPEAPEAV12@@Z 00000001800323c0 f   leveldb:table.obj
 0001:000317b0       ?ReadMeta@Table@leveldb@@AEAAXAEBVFooter@2@@Z 00000001800327b0 f   leveldb:table.obj
 0001:00031a80       ?ReadFilter@Table@leveldb@@AEAAXAEBVSlice@2@@Z 0000000180032a80 f   leveldb:table.obj
 0001:00031c80       ?BlockReader@Table@leveldb@@CAPEAVIterator@2@PEAXAEBUReadOptions@2@AEBVSlice@2@@Z 0000000180032c80 f   leveldb:table.obj
 0001:00032020       ?InternalGet@Table@leveldb@@AEAA?AVStatus@2@AEBUReadOptions@2@AEBVSlice@2@PEAXP6AX211@Z@Z 0000000180033020 f   leveldb:table.obj
 0001:00032270       ??0IteratorWrapper@leveldb@@QEAA@PEAVIterator@1@@Z 0000000180033270 f i leveldb:two_level_iterator.obj
 0001:000325a0       ??_GTwoLevelIterator@?A0x4171a345@leveldb@@UEAAPEAXI@Z 00000001800335a0 f i leveldb:two_level_iterator.obj
 0001:000325a0       ??_ETwoLevelIterator@?A0x4171a345@leveldb@@UEAAPEAXI@Z 00000001800335a0 f i * CIL library *:* CIL module *
 0001:00032dd0       ?Extend@crc32c@leveldb@@YAIIPEBD_K@Z 0000000180033dd0 f   leveldb:crc32c.obj
 0001:000330b0       ?EncodeTo@BlockHandle@leveldb@@QEBAXPEAV?$basic_string@DU?$char_traits@D@std@@V?$allocator@D@2@@std@@@Z 00000001800340b0 f   leveldb:format.obj
 0001:000331c0       ?DecodeFrom@BlockHandle@leveldb@@QEAA?AVStatus@2@PEAVSlice@2@@Z 00000001800341c0 f   leveldb:format.obj
 0001:00033310       ?DecodeFrom@Footer@leveldb@@QEAA?AVStatus@2@PEAVSlice@2@@Z 0000000180034310 f   leveldb:format.obj
 0001:000334b0       ?ReadBlock@leveldb@@YA?AVStatus@1@PEAVRandomAccessFile@1@AEBUReadOptions@1@AEBVBlockHandle@1@PEAUBlockContents@1@@Z 00000001800344b0 f   leveldb:format.obj
 0001:000338e0       ??0BlockBuilder@leveldb@@QEAA@PEBUOptions@1@@Z 00000001800348e0 f   leveldb:block_builder.obj
 0001:000339e0       ?Reset@BlockBuilder@leveldb@@QEAAXXZ 00000001800349e0 f   leveldb:block_builder.obj
 0001:00033ac0       ?Finish@BlockBuilder@leveldb@@QEAA?AVSlice@2@XZ 0000000180034ac0 f   leveldb:block_builder.obj
 0001:00033b80       ?Add@BlockBuilder@leveldb@@QEAAXAEBVSlice@2@0@Z 0000000180034b80 f   leveldb:block_builder.obj
 0001:00033e30       ?_Reserve@?$vector@IV?$allocator@I@std@@@std@@IEAAX_K@Z 0000000180034e30 f i leveldb:block_builder.obj
 0001:00033ec0       ?_Reallocate@?$vector@IV?$allocator@I@std@@@std@@IEAAX_K@Z 0000000180034ec0 f i leveldb:block_builder.obj
 0001:00033fa0       ?StartBlock@FilterBlockBuilder@leveldb@@QEAAX_K@Z 0000000180034fa0 f   leveldb:filter_block.obj
 0001:00034020       ?AddKey@FilterBlockBuilder@leveldb@@QEAAXAEBVSlice@2@@Z 0000000180035020 f   leveldb:filter_block.obj
 0001:000340e0       ?Finish@FilterBlockBuilder@leveldb@@QEAA?AVSlice@2@XZ 00000001800350e0 f   leveldb:filter_block.obj
 0001:00034230       ?GenerateFilter@FilterBlockBuilder@leveldb@@AEAAXXZ 0000000180035230 f   leveldb:filter_block.obj
 0001:000344c0       ?resize@?$vector@VSlice@leveldb@@V?$allocator@VSlice@leveldb@@@std@@@std@@QEAAX_K@Z 00000001800354c0 f i leveldb:filter_block.obj
 0001:000345f0       ?_Reallocate@?$vector@VSlice@leveldb@@V?$allocator@VSlice@leveldb@@@std@@@std@@IEAAX_K@Z 00000001800355f0 f i leveldb:filter_block.obj
 0001:000346f0       _snprintf_s                00000001800356f0 f i leveldb:win_logger.obj
 0001:00034750       ?Logv@WinLogger@leveldb@@UEAAXPEBDPEAD@Z 0000000180035750 f   leveldb:win_logger.obj
 0001:00034aa0       ?SeekToRestartPoint@Iter@Block@leveldb@@AEAAXI@Z 0000000180035aa0 f i leveldb:block.obj
 0001:00034b20       ??0Iter@Block@leveldb@@QEAA@PEBVComparator@2@PEBDII@Z 0000000180035b20 f i leveldb:block.obj
 0001:00034bc0       ?Valid@Iter@Block@leveldb@@UEBA_NXZ 0000000180035bc0 f i leveldb:block.obj
 0001:00034bd0       ?status@Iter@Block@leveldb@@UEBA?AVStatus@3@XZ 0000000180035bd0 f i leveldb:block.obj
 0001:00034c50       ?key@Iter@Block@leveldb@@UEBA?AVSlice@3@XZ 0000000180035c50 f i leveldb:block.obj
 0001:00034cb0       ?value@Iter@Block@leveldb@@UEBA?AVSlice@3@XZ 0000000180035cb0 f i leveldb:block.obj
 0001:00034d00       ?Next@Iter@Block@leveldb@@UEAAXXZ 0000000180035d00 f i leveldb:block.obj
 0001:00034d40       ?Prev@Iter@Block@leveldb@@UEAAXXZ 0000000180035d40 f i leveldb:block.obj
 0001:00034e10       ?Seek@Iter@Block@leveldb@@UEAAXAEBVSlice@3@@Z 0000000180035e10 f i leveldb:block.obj
 0001:00035060       ?SeekToFirst@Iter@Block@leveldb@@UEAAXXZ 0000000180036060 f i leveldb:block.obj
 0001:000350e0       ?SeekToLast@Iter@Block@leveldb@@UEAAXXZ 00000001800360e0 f i leveldb:block.obj
 0001:00035120       ?CorruptionError@Iter@Block@leveldb@@AEAAXXZ 0000000180036120 f i leveldb:block.obj
 0001:00035210       ?ParseNextKey@Iter@Block@leveldb@@AEAA_NXZ 0000000180036210 f i leveldb:block.obj
 0001:00035370       ??_EIter@Block@leveldb@@UEAAPEAXI@Z 0000000180036370 f i * CIL library *:* CIL module *
 0001:00035370       ??_GIter@Block@leveldb@@UEAAPEAXI@Z 0000000180036370 f i leveldb:block.obj
 0001:000353d0       ?NewIterator@Block@leveldb@@QEAAPEAVIterator@2@PEBVComparator@2@@Z 00000001800363d0 f   leveldb:block.obj
 0001:000354b0       ??1WorkingMemory@internal@snappy@@QEAA@XZ 00000001800364b0 f i snappy:snappy.obj
 0001:000354c0       ??_GSink@snappy@@UEAAPEAXI@Z 00000001800364c0 f i snappy:snappy.obj
 0001:000354c0       ??_ESink@snappy@@UEAAPEAXI@Z 00000001800364c0 f i * CIL library *:* CIL module *
 0001:000354f0       ??_EByteArraySource@snappy@@UEAAPEAXI@Z 00000001800364f0 f i * CIL library *:* CIL module *
 0001:000354f0       ??_GByteArraySource@snappy@@UEAAPEAXI@Z 00000001800364f0 f i snappy:snappy.obj
 0001:00035540       ??_EUncheckedByteArraySink@snappy@@UEAAPEAXI@Z 0000000180036540 f i * CIL library *:* CIL module *
 0001:00035540       ??_GUncheckedByteArraySink@snappy@@UEAAPEAXI@Z 0000000180036540 f i snappy:snappy.obj
 0001:00035a30       ?CompressFragment@internal@snappy@@YAPEADPEBD_KPEADPEAGH@Z 0000000180036a30 f   snappy:snappy.obj
 0001:00035ee0       ??1SnappyDecompressor@snappy@@QEAA@XZ 0000000180036ee0 f i snappy:snappy.obj
 0001:00035f00       ?RefillTag@SnappyDecompressor@snappy@@AEAA_NXZ 0000000180036f00 f   snappy:snappy.obj
 0001:000360e0       ?Compress@snappy@@YA_KPEAVSource@1@PEAVSink@1@@Z 00000001800370e0 f   snappy:snappy.obj
 0001:000365b0       ??$DecompressAllTags@VSnappyArrayWriter@snappy@@@SnappyDecompressor@snappy@@QEAAXPEAVSnappyArrayWriter@1@@Z 00000001800375b0 f i snappy:snappy.obj
 0001:00036830       ??1Sink@snappy@@UEAA@XZ    0000000180037830 f   snappy:snappy-sinksource.obj
 0001:00036840       ?GetAppendBuffer@Sink@snappy@@UEAAPEAD_KPEAD@Z 0000000180037840 f   snappy:snappy-sinksource.obj
 0001:00036850       ?GetAppendBufferVariable@Sink@snappy@@UEAAPEAD_K0PEAD0PEA_K@Z 0000000180037850 f   snappy:snappy-sinksource.obj
 0001:00036870       ?AppendAndTakeOwnership@Sink@snappy@@UEAAXPEAD_KP6AXPEAXPEBD1@Z2@Z 0000000180037870 f   snappy:snappy-sinksource.obj
 0001:000368b0       ??1ByteArraySource@snappy@@UEAA@XZ 00000001800378b0 f   snappy:snappy-sinksource.obj
 0001:000368e0       ?Available@ByteArraySource@snappy@@UEBA_KXZ 00000001800378e0 f   snappy:snappy-sinksource.obj
 0001:000368f0       ?Peek@ByteArraySource@snappy@@UEAAPEBDPEA_K@Z 00000001800378f0 f   snappy:snappy-sinksource.obj
 0001:00036900       ?Skip@ByteArraySource@snappy@@UEAAX_K@Z 0000000180037900 f   snappy:snappy-sinksource.obj
 0001:00036910       ??1UncheckedByteArraySink@snappy@@UEAA@XZ 0000000180037910 f   snappy:snappy-sinksource.obj
 0001:00036940       ?Append@UncheckedByteArraySink@snappy@@UEAAXPEBD_K@Z 0000000180037940 f   snappy:snappy-sinksource.obj
 0001:00036970       ?GetAppendBuffer@UncheckedByteArraySink@snappy@@UEAAPEAD_KPEAD@Z 0000000180037970 f   snappy:snappy-sinksource.obj
 0001:00036980       ?AppendAndTakeOwnership@UncheckedByteArraySink@snappy@@UEAAXPEAD_KP6AXPEAXPEBD1@Z2@Z 0000000180037980 f   snappy:snappy-sinksource.obj
 0001:000369e0       ?GetAppendBufferVariable@UncheckedByteArraySink@snappy@@UEAAPEAD_K0PEAD0PEA_K@Z 00000001800379e0 f   snappy:snappy-sinksource.obj
 0001:000369ed       __imp_load_uv_queue_work   00000001800379ed f   node:node.exe
 0001:000369f9       __tailMerge_node_exe       00000001800379f9 f i node:node.exe
 0001:00036a72       __imp_load_?Global@Context@v8@@QEAA?AV?$Local@VObject@v8@@@2@XZ 0000000180037a72 f   node:node.exe
 0001:00036a7e       __imp_load_?Value@External@v8@@QEBAPEAXXZ 0000000180037a7e f   node:node.exe
 0001:00036a8a       __imp_load_?New@External@v8@@SA?AV?$Local@VExternal@v8@@@2@PEAVIsolate@2@PEAX@Z 0000000180037a8a f   node:node.exe
 0001:00036a96       __imp_load_?New@Signature@v8@@SA?AV?$Local@VSignature@v8@@@2@PEAVIsolate@2@V?$Local@VFunctionTemplate@v8@@@2@@Z 0000000180037a96 f   node:node.exe
 0001:00036aa2       __imp_load_?ThrowException@Isolate@v8@@QEAA?AV?$Local@VValue@v8@@@2@V32@@Z 0000000180037aa2 f   node:node.exe
 0001:00036aae       __imp_load_?GetCurrentContext@Isolate@v8@@QEAA?AV?$Local@VContext@v8@@@2@XZ 0000000180037aae f   node:node.exe
 0001:00036aba       __imp_load_?GetCurrent@Isolate@v8@@SAPEAV12@XZ 0000000180037aba f   node:node.exe
 0001:00036ac6       __imp_load_?CreateHandle@HandleScope@v8@@KAPEAPEAVObject@internal@2@PEAVIsolate@42@PEAV342@@Z 0000000180037ac6 f   node:node.exe
 0001:00036ad2       __imp_load_?CreateHandle@HandleScope@v8@@CAPEAPEAVObject@internal@2@PEAVHeapObject@42@PEAV342@@Z 0000000180037ad2 f   node:node.exe
 0001:00036ade       __imp_load_??1HandleScope@v8@@QEAA@XZ 0000000180037ade f   node:node.exe
 0001:00036aea       __imp_load_??0HandleScope@v8@@QEAA@PEAVIsolate@1@@Z 0000000180037aea f   node:node.exe
 0001:00036af6       __imp_load_?Set@Template@v8@@QEAAXV?$Local@VName@v8@@@2@V?$Local@VData@v8@@@2@W4PropertyAttribute@2@@Z 0000000180037af6 f   node:node.exe
 0001:00036b02       __imp_load_?Error@Exception@v8@@SA?AV?$Local@VValue@v8@@@2@V?$Local@VString@v8@@@2@@Z 0000000180037b02 f   node:node.exe
 0001:00036b0e       __imp_load_?SetClassName@FunctionTemplate@v8@@QEAAXV?$Local@VString@v8@@@2@@Z 0000000180037b0e f   node:node.exe
 0001:00036b1a       __imp_load_?PrototypeTemplate@FunctionTemplate@v8@@QEAA?AV?$Local@VObjectTemplate@v8@@@2@XZ 0000000180037b1a f   node:node.exe
 0001:00036b26       __imp_load_?InstanceTemplate@FunctionTemplate@v8@@QEAA?AV?$Local@VObjectTemplate@v8@@@2@XZ 0000000180037b26 f   node:node.exe
 0001:00036b32       __imp_load_?GetFunction@FunctionTemplate@v8@@QEAA?AV?$Local@VFunction@v8@@@2@XZ 0000000180037b32 f   node:node.exe
 0001:00036b3e       __imp_load_?New@FunctionTemplate@v8@@SA?AV?$Local@VFunctionTemplate@v8@@@2@PEAVIsolate@2@P6AXAEBV?$FunctionCallbackInfo@VValue@v8@@@2@@ZV?$Local@VValue@v8@@@2@V?$Local@VSignature@v8@@@2@HW4ConstructorBehavior@2@W4SideEffectType@2@@Z 0000000180037b3e f   node:node.exe
 0001:00036b4a       __imp_load_?ToLocalEmpty@V8@v8@@CAXXZ 0000000180037b4a f   node:node.exe
 0001:00036b56       __imp_load_?ClearWeak@V8@v8@@CAPEAXPEAPEAVObject@internal@2@@Z 0000000180037b56 f   node:node.exe
 0001:00036b62       __imp_load_?MakeWeak@V8@v8@@CAXPEAPEAVObject@internal@2@PEAXP6AXAEBV?$WeakCallbackInfo@X@2@@ZW4WeakCallbackType@2@@Z 0000000180037b62 f   node:node.exe
 0001:00036b6e       __imp_load_?DisposeGlobal@V8@v8@@CAXPEAPEAVObject@internal@2@@Z 0000000180037b6e f   node:node.exe
 0001:00036b7a       __imp_load_?GlobalizeReference@V8@v8@@CAPEAPEAVObject@internal@2@PEAVIsolate@42@PEAPEAV342@@Z 0000000180037b7a f   node:node.exe
 0001:00036b86       __imp_load_?BooleanValue@Value@v8@@QEBA_NXZ 0000000180037b86 f   node:node.exe
 0001:00036b92       __imp_load_?IsObject@Value@v8@@QEBA_NXZ 0000000180037b92 f   node:node.exe
 0001:00036b9e       __imp_load_?Escape@EscapableHandleScope@v8@@AEAAPEAPEAVObject@internal@2@PEAPEAV342@@Z 0000000180037b9e f   node:node.exe
 0001:00036baa       __imp_load_??0EscapableHandleScope@v8@@QEAA@PEAVIsolate@1@@Z 0000000180037baa f   node:node.exe
 0001:00036bb6       __imp_load_?NewFromUtf8@String@v8@@SA?AV?$MaybeLocal@VString@v8@@@2@PEAVIsolate@2@PEBDW4NewStringType@2@H@Z 0000000180037bb6 f   node:node.exe
 0001:00036bc2       __imp_load_?WriteUtf8@String@v8@@QEBAHPEADHPEAHH@Z 0000000180037bc2 f   node:node.exe
 0001:00036bce       __imp_load_?Utf8Length@String@v8@@QEBAHXZ 0000000180037bce f   node:node.exe
 0001:00036bda       __imp_load_?SlowGetAlignedPointerFromInternalField@Object@v8@@AEAAPEAXH@Z 0000000180037bda f   node:node.exe
 0001:00036be6       __imp_load_?SlowGetInternalField@Object@v8@@AEAA?AV?$Local@VValue@v8@@@2@H@Z 0000000180037be6 f   node:node.exe
 0001:00036bf2       __imp_load_?SetAlignedPointerInInternalField@Object@v8@@QEAAXHPEAX@Z 0000000180037bf2 f   node:node.exe
 0001:00036bfe       __imp_load_?SetInternalField@Object@v8@@QEAAXHV?$Local@VValue@v8@@@2@@Z 0000000180037bfe f   node:node.exe
 0001:00036c0a       __imp_load_?InternalFieldCount@Object@v8@@QEAAHXZ 0000000180037c0a f   node:node.exe
 0001:00036c16       __imp_load_?Has@Object@v8@@QEAA_NV?$Local@VValue@v8@@@2@@Z 0000000180037c16 f   node:node.exe
 0001:00036c22       __imp_load_?Get@Object@v8@@QEAA?AV?$Local@VValue@v8@@@2@V32@@Z 0000000180037c22 f   node:node.exe
 0001:00036c2e       __imp_load_?Set@Object@v8@@QEAA_NV?$Local@VValue@v8@@@2@0@Z 0000000180037c2e f   node:node.exe
 0001:00036c3a       __imp_load_?NewInstance@Function@v8@@QEBA?AV?$MaybeLocal@VObject@v8@@@2@V?$Local@VContext@v8@@@2@HQEAV?$Local@VValue@v8@@@2@@Z 0000000180037c3a f   node:node.exe
 0001:00036c46       __imp_load_?SetInternalFieldCount@ObjectTemplate@v8@@QEAAXH@Z 0000000180037c46 f   node:node.exe
 0001:00036c52       __imp_load_?NewInstance@ObjectTemplate@v8@@QEAA?AV?$MaybeLocal@VObject@v8@@@2@V?$Local@VContext@v8@@@2@@Z 0000000180037c52 f   node:node.exe
 0001:00036c5e       __imp_load_?New@ObjectTemplate@v8@@SA?AV?$Local@VObjectTemplate@v8@@@2@PEAVIsolate@2@V?$Local@VFunctionTemplate@v8@@@2@@Z 0000000180037c5e f   node:node.exe
 0001:00036c6a       __imp_load_?HasInstance@Buffer@node@@YA_NV?$Local@VValue@v8@@@v8@@@Z 0000000180037c6a f   node:node.exe
 0001:00036c76       __imp_load_?HasInstance@Buffer@node@@YA_NV?$Local@VObject@v8@@@v8@@@Z 0000000180037c76 f   node:node.exe
 0001:00036c82       __imp_load_?Data@Buffer@node@@YAPEADV?$Local@VObject@v8@@@v8@@@Z 0000000180037c82 f   node:node.exe
 0001:00036c8e       __imp_load_?Length@Buffer@node@@YA_KV?$Local@VObject@v8@@@v8@@@Z 0000000180037c8e f   node:node.exe
 0001:00036c9a       __imp_load_?MakeCallback@node@@YA?AV?$Local@VValue@v8@@@v8@@PEAVIsolate@3@V?$Local@VObject@v8@@@3@V?$Local@VFunction@v8@@@3@HPEAV23@@Z 0000000180037c9a f   node:node.exe
 0001:00036ca6       __imp_load_uv_default_loop 0000000180037ca6 f   node:node.exe
 0001:00036cb2       __imp_load_?ToObject@Value@v8@@QEBA?AV?$Local@VObject@v8@@@2@XZ 0000000180037cb2 f   node:node.exe
 0001:00036cbe       __imp_load_?ToString@Value@v8@@QEBA?AV?$Local@VString@v8@@@2@XZ 0000000180037cbe f   node:node.exe
 0001:00036cca       __imp_load_??1EscapableHandleScope@v8@@QEAA@XZ 0000000180037cca f   node:node.exe
 0001:00036cd6       __imp_load_?New@Object@v8@@SA?AV?$Local@VObject@v8@@@2@PEAVIsolate@2@@Z 0000000180037cd6 f   node:node.exe
 0001:00036ce2       __imp_load_?Length@Array@v8@@QEBAIXZ 0000000180037ce2 f   node:node.exe
 0001:00036cee       __imp_load_?StrictEquals@Value@v8@@QEBA_NV?$Local@VValue@v8@@@2@@Z 0000000180037cee f   node:node.exe
 0001:00036cfa       __imp_load_?Uint32Value@Value@v8@@QEBAIXZ 0000000180037cfa f   node:node.exe
 0001:00036d06       __imp_load_?IsNumber@Value@v8@@QEBA_NXZ 0000000180037d06 f   node:node.exe
 0001:00036d12       __imp_load_?IsArray@Value@v8@@QEBA_NXZ 0000000180037d12 f   node:node.exe
 0001:00036d1e       __imp_load_?IsFunction@Value@v8@@QEBA_NXZ 0000000180037d1e f   node:node.exe
 0001:00036d2a       __imp_load_?HasCaught@TryCatch@v8@@QEBA_NXZ 0000000180037d2a f   node:node.exe
 0001:00036d36       __imp_load_??1TryCatch@v8@@QEAA@XZ 0000000180037d36 f   node:node.exe
 0001:00036d42       __imp_load_??0TryCatch@v8@@QEAA@PEAVIsolate@1@@Z 0000000180037d42 f   node:node.exe
 0001:00036d4e       __imp_load_?Length@String@v8@@QEBAHXZ 0000000180037d4e f   node:node.exe
 0001:00036d5a       __imp_load_?New@Number@v8@@SA?AV?$Local@VNumber@v8@@@2@PEAVIsolate@2@N@Z 0000000180037d5a f   node:node.exe
 0001:00036d66       __imp_load_?Get@Object@v8@@QEAA?AV?$Local@VValue@v8@@@2@I@Z 0000000180037d66 f   node:node.exe
 0001:00036d72       __imp_load_?Copy@Buffer@node@@YA?AV?$MaybeLocal@VObject@v8@@@v8@@PEAVIsolate@4@PEBD_K@Z 0000000180037d72 f   node:node.exe
 0001:00036d7e       __imp_load_?Value@Integer@v8@@QEBA_JXZ 0000000180037d7e f   node:node.exe
 0001:00036d8a       __imp_load_?Int32Value@Value@v8@@QEBAHXZ 0000000180037d8a f   node:node.exe
 0001:00036d96       __imp_load_?New@Integer@v8@@SA?AV?$Local@VInteger@v8@@@2@PEAVIsolate@2@H@Z 0000000180037d96 f   node:node.exe
 0001:00036da2       __imp_load_?New@Array@v8@@SA?AV?$Local@VArray@v8@@@2@PEAVIsolate@2@H@Z 0000000180037da2 f   node:node.exe
 0001:00036dae       __imp_load_?ToInteger@Value@v8@@QEBA?AV?$MaybeLocal@VInteger@v8@@@2@V?$Local@VContext@v8@@@2@@Z 0000000180037dae f   node:node.exe
 0001:00036dba       __imp_load_node_module_register 0000000180037dba f   node:node.exe
 0001:00036dc8       ??0bad_alloc@std@@QEAA@AEBV01@@Z 0000000180037dc8 f i libcpmt:xthrow.obj
 0001:00036e08       ??0bad_alloc@std@@QEAA@XZ  0000000180037e08 f i libcpmt:xthrow.obj
 0001:00036e28       ??0exception@std@@QEAA@AEBV01@@Z 0000000180037e28 f i libcpmt:xthrow.obj
 0001:00036e60       ??0length_error@std@@QEAA@AEBV01@@Z 0000000180037e60 f i libcpmt:xthrow.obj
 0001:00036ea0       ??0length_error@std@@QEAA@PEBD@Z 0000000180037ea0 f i libcpmt:xthrow.obj
 0001:00036eec       ??0logic_error@std@@QEAA@AEBV01@@Z 0000000180037eec f i libcpmt:xthrow.obj
 0001:00036f2c       ??0out_of_range@std@@QEAA@AEBV01@@Z 0000000180037f2c f i libcpmt:xthrow.obj
 0001:00036f6c       ??0out_of_range@std@@QEAA@PEBD@Z 0000000180037f6c f i libcpmt:xthrow.obj
 0001:00036fb8       ??1bad_exception@std@@UEAA@XZ 0000000180037fb8 f i libvcruntime:frame.obj
 0001:00036fb8       ??1bad_array_new_length@std@@UEAA@XZ 0000000180037fb8 f i LIBCMT:throw_bad_alloc.obj
 0001:00036fb8       ??1bad_alloc@std@@UEAA@XZ  0000000180037fb8 f i libcpmt:xthrow.obj
 0001:00036fb8       ??1out_of_range@std@@UEAA@XZ 0000000180037fb8 f i libcpmt:xthrow.obj
 0001:00036fb8       ??1length_error@std@@UEAA@XZ 0000000180037fb8 f i libcpmt:xthrow.obj
 0001:00036fcc       ??_Glogic_error@std@@UEAAPEAXI@Z 0000000180037fcc f i libcpmt:xthrow.obj
 0001:00036fcc       ??_Gbad_array_new_length@std@@UEAAPEAXI@Z 0000000180037fcc f i LIBCMT:throw_bad_alloc.obj
 0001:00036fcc       ??_Eexception@std@@UEAAPEAXI@Z 0000000180037fcc f i libcpmt:xthrow.obj
 0001:00036fcc       ??_Ebad_array_new_length@std@@UEAAPEAXI@Z 0000000180037fcc f i LIBCMT:throw_bad_alloc.obj
 0001:00036fcc       ??_Gbad_alloc@std@@UEAAPEAXI@Z 0000000180037fcc f i libcpmt:xthrow.obj
 0001:00036fcc       ??_Gbad_exception@std@@UEAAPEAXI@Z 0000000180037fcc f i libvcruntime:frame.obj
 0001:00036fcc       ??_Gexception@std@@UEAAPEAXI@Z 0000000180037fcc f i libcpmt:xthrow.obj
 0001:00036fcc       ??_Eout_of_range@std@@UEAAPEAXI@Z 0000000180037fcc f i libcpmt:xthrow.obj
 0001:00036fcc       ??_Glength_error@std@@UEAAPEAXI@Z 0000000180037fcc f i libcpmt:xthrow.obj
 0001:00036fcc       ??_Elogic_error@std@@UEAAPEAXI@Z 0000000180037fcc f i libcpmt:xthrow.obj
 0001:00036fcc       ??_Ebad_alloc@std@@UEAAPEAXI@Z 0000000180037fcc f i libcpmt:xthrow.obj
 0001:00036fcc       ??_Ebad_exception@std@@UEAAPEAXI@Z 0000000180037fcc f i libvcruntime:frame.obj
 0001:00036fcc       ??_Gout_of_range@std@@UEAAPEAXI@Z 0000000180037fcc f i libcpmt:xthrow.obj
 0001:00036fcc       ??_Elength_error@std@@UEAAPEAXI@Z 0000000180037fcc f i libcpmt:xthrow.obj
 0001:00037010       ?_Xlength_error@std@@YAXPEBD@Z 0000000180038010 f   libcpmt:xthrow.obj
 0001:00037034       ?_Xout_of_range@std@@YAXPEBD@Z 0000000180038034 f   libcpmt:xthrow.obj
 0001:00037058       ?what@exception@std@@UEBAPEBDXZ 0000000180038058 f i libcpmt:xthrow.obj
 0001:00037080       __security_check_cookie    0000000180038080 f   LIBCMT:_amdsecgs_.obj
 0001:000370a4       ??2@YAPEAX_K@Z             00000001800380a4 f   LIBCMT:new_scalar.obj
 0001:000370e0       __scrt_acquire_startup_lock 00000001800380e0 f   LIBCMT:utility.obj
 0001:0003711c       __scrt_dllmain_after_initialize_c 000000018003811c f   LIBCMT:utility.obj
 0001:00037150       __scrt_dllmain_before_initialize_c 0000000180038150 f   LIBCMT:utility.obj
 0001:00037168       __scrt_dllmain_crt_thread_attach 0000000180038168 f   LIBCMT:utility.obj
 0001:00037190       __scrt_dllmain_crt_thread_detach 0000000180038190 f   LIBCMT:utility.obj
 0001:000371a8       __scrt_dllmain_exception_filter 00000001800381a8 f   LIBCMT:utility.obj
 0001:0003720c       __scrt_dllmain_uninitialize_c 000000018003820c f   LIBCMT:utility.obj
 0001:0003723c       __scrt_dllmain_uninitialize_critical 000000018003823c f   LIBCMT:utility.obj
 0001:00037250       __scrt_initialize_crt      0000000180038250 f   LIBCMT:utility.obj
 0001:0003729c       __scrt_initialize_onexit_tables 000000018003829c f   LIBCMT:utility.obj
 0001:00037368       __scrt_is_nonwritable_in_current_image 0000000180038368 f   LIBCMT:utility.obj
 0001:00037404       __scrt_release_startup_lock 0000000180038404 f   LIBCMT:utility.obj
 0001:00037428       __scrt_uninitialize_crt    0000000180038428 f   LIBCMT:utility.obj
 0001:00037454       _onexit                    0000000180038454 f   LIBCMT:utility.obj
 0001:000374a4       atexit                     00000001800384a4 f   LIBCMT:utility.obj
 0001:000374bc       ??3@YAXPEAX_K@Z            00000001800384bc f   LIBCMT:delete_scalar_size.obj
 0001:000374bc       ??_V@YAXPEAX@Z             00000001800384bc f   LIBCMT:delete_array.obj
 0001:000374c4       ??_U@YAPEAX_K@Z            00000001800384c4 f   LIBCMT:new_array.obj
 0001:000374cc       ??3@YAXPEAX@Z              00000001800384cc f   LIBCMT:delete_scalar.obj
 0001:00037820       _DllMainCRTStartup         0000000180038820 f   LIBCMT:dll_dllmain.obj
 0001:00037860       ??_M@YAXPEAX_K1P6AX0@Z@Z   0000000180038860 f   LIBCMT:ehvecdtr.obj
 0001:000378cc       ?__ArrayUnwind@@YAXPEAX_K1P6AX0@Z@Z 00000001800388cc f   LIBCMT:ehvecdtr.obj
 0001:00037930       ??_L@YAXPEAX_K1P6AX0@Z2@Z  0000000180038930 f   LIBCMT:ehvecctr.obj
 0001:000379a0       ??_V@YAXPEAX_K@Z           00000001800389a0 f   LIBCMT:delete_array_size.obj
 0001:00037af0       _Init_thread_abort         0000000180038af0 f   LIBCMT:thread_safe_statics.obj
 0001:00037b20       _Init_thread_footer        0000000180038b20 f   LIBCMT:thread_safe_statics.obj
 0001:00037b80       _Init_thread_header        0000000180038b80 f   LIBCMT:thread_safe_statics.obj
 0001:00037be8       _Init_thread_notify        0000000180038be8 f   LIBCMT:thread_safe_statics.obj
 0001:00037c44       _Init_thread_wait          0000000180038c44 f   LIBCMT:thread_safe_statics.obj
 0001:00037cdc       ??_Etype_info@@UEAAPEAXI@Z 0000000180038cdc f i LIBCMT:std_type_info_static.obj
 0001:00037cdc       ??_Gtype_info@@UEAAPEAXI@Z 0000000180038cdc f i LIBCMT:std_type_info_static.obj
 0001:00037d08       __raise_securityfailure    0000000180038d08 f   LIBCMT:gs_report.obj
 0001:00037d3c       __report_gsfailure         0000000180038d3c f   LIBCMT:gs_report.obj
 0001:00037e10       __report_rangecheckfailure 0000000180038e10 f   LIBCMT:gs_report.obj
 0001:00037e24       __report_securityfailure   0000000180038e24 f   LIBCMT:gs_report.obj
 0001:00037fa4       ??0bad_array_new_length@std@@QEAA@AEBV01@@Z 0000000180038fa4 f i LIBCMT:throw_bad_alloc.obj
 0001:00037fe4       ??0bad_array_new_length@std@@QEAA@XZ 0000000180038fe4 f i LIBCMT:throw_bad_alloc.obj
 0001:00038004       ?_Xbad_alloc@std@@YAXXZ    0000000180039004 f   libcpmt:xthrow.obj
 0001:00038004       ?__scrt_throw_std_bad_alloc@@YAXXZ 0000000180039004 f   LIBCMT:throw_bad_alloc.obj
 0001:00038024       ?__scrt_throw_std_bad_array_new_length@@YAXXZ 0000000180039024 f   LIBCMT:throw_bad_alloc.obj
 0001:00038044       __isa_available_init       0000000180039044 f   LIBCMT:_cpu_disp_.obj
 0001:0003820c       DllMain                    000000018003920c f   LIBCMT:dll_dllmain_stub.obj
 0001:0003820c       _get_startup_argv_mode     000000018003920c f   LIBCMT:argv_mode.obj
 0001:00038214       __scrt_is_ucrt_dll_in_use  0000000180039214 f   LIBCMT:ucrt_detection.obj
 0001:00038220       __crt_debugger_hook        0000000180039220 f   LIBCMT:utility_desktop.obj
 0001:00038228       __scrt_fastfail            0000000180039228 f   LIBCMT:utility_desktop.obj
 0001:00038370       _guard_check_icall         0000000180039370 f i LIBCMT:checkcfg.obj
 0001:00038378       __security_init_cookie     0000000180039378 f   LIBCMT:gs_support.obj
 0001:00038424       ?__scrt_initialize_type_info@@YAXXZ 0000000180039424 f   LIBCMT:tncleanup.obj
 0001:00038434       ?__scrt_uninitialize_type_info@@YAXXZ 0000000180039434 f   LIBCMT:tncleanup.obj
 0001:00038440       __local_stdio_scanf_options 0000000180039440 f i LIBCMT:default_local_stdio_options.obj
 0001:00038448       __scrt_initialize_default_local_stdio_options 0000000180039448 f   LIBCMT:default_local_stdio_options.obj
 0001:00038464       __scrt_get_dyn_tls_init_callback 0000000180039464 f   LIBCMT:dyn_tls_init.obj
 0001:0003846c       _RTC_Initialize            000000018003946c f   LIBCMT:_initsect_.obj
 0001:000384b8       _RTC_Terminate             00000001800394b8 f   LIBCMT:_initsect_.obj
 0001:00038510       _purecall                  0000000180039510 f   libvcruntime:purevirt.obj
 0001:00038560       memmove                    0000000180039560 f   libvcruntime:memcpy.obj
 0001:00038560       memcpy                     0000000180039560 f   libvcruntime:memcpy.obj
 0001:00038998       strrchr                    0000000180039998 f   libvcruntime:strrchr.obj
 0001:00038ad8       __std_exception_copy       0000000180039ad8 f   libvcruntime:std_exception.obj
 0001:00038b68       __std_exception_destroy    0000000180039b68 f   libvcruntime:std_exception.obj
 0001:00038b90       _CxxThrowException         0000000180039b90 f   libvcruntime:throw.obj
 0001:00038c68       __vcrt_initialize          0000000180039c68 f   libvcruntime:initialization.obj
 0001:00038c9c       __vcrt_thread_attach       0000000180039c9c f   libvcruntime:initialization.obj
 0001:00038cb0       __vcrt_thread_detach       0000000180039cb0 f   libvcruntime:initialization.obj
 0001:00038cc4       __vcrt_uninitialize        0000000180039cc4 f   libvcruntime:initialization.obj
 0001:00038ce4       __vcrt_uninitialize_critical 0000000180039ce4 f   libvcruntime:initialization.obj
 0001:00038cf4       __C_specific_handler       0000000180039cf4 f   libvcruntime:_chandler_.obj
 0001:000390b8       __vcrt_FlsAlloc            000000018003a0b8 f   libvcruntime:winapi_downlevel.obj
 0001:0003910c       __vcrt_FlsFree             000000018003a10c f   libvcruntime:winapi_downlevel.obj
 0001:00039160       __vcrt_FlsGetValue         000000018003a160 f   libvcruntime:winapi_downlevel.obj
 0001:000391b4       __vcrt_FlsSetValue         000000018003a1b4 f   libvcruntime:winapi_downlevel.obj
 0001:0003921c       __vcrt_InitializeCriticalSectionEx 000000018003a21c f   libvcruntime:winapi_downlevel.obj
 0001:00039294       __vcrt_initialize_winapi_thunks 000000018003a294 f   libvcruntime:winapi_downlevel.obj
 0001:000392e0       __vcrt_uninitialize_winapi_thunks 000000018003a2e0 f   libvcruntime:winapi_downlevel.obj
 0001:00039330       memset                     000000018003a330 f   libvcruntime:memset.obj
 0001:000394d0       __std_type_info_compare    000000018003a4d0 f   libvcruntime:std_type_info.obj
 0001:000394f8       __std_type_info_destroy_list 000000018003a4f8 f   libvcruntime:std_type_info.obj
 0001:00039524       __vcrt_initialize_pure_virtual_call_handler 000000018003a524 f   libvcruntime:purevirt_data.obj
 0001:00039548       __vcrt_freefls             000000018003a548 f   libvcruntime:per_thread_data.obj
 0001:00039568       __vcrt_freeptd             000000018003a568 f   libvcruntime:per_thread_data.obj
 0001:000395b8       __vcrt_getptd              000000018003a5b8 f   libvcruntime:per_thread_data.obj
 0001:000395d4       __vcrt_getptd_noexit       000000018003a5d4 f   libvcruntime:per_thread_data.obj
 0001:0003968c       __vcrt_initialize_ptd      000000018003a68c f   libvcruntime:per_thread_data.obj
 0001:000396cc       __vcrt_uninitialize_ptd    000000018003a6cc f   libvcruntime:per_thread_data.obj
 0001:000396f0       __vcrt_initialize_locks    000000018003a6f0 f   libvcruntime:locks.obj
 0001:00039738       __vcrt_uninitialize_locks  000000018003a738 f   libvcruntime:locks.obj
 0001:00039780       _local_unwind              000000018003a780 f   libvcruntime:_jmpuwind_.obj
 0001:000397b0       _NLG_Notify                000000018003a7b0 f   libvcruntime:_jmpuwind_.obj
 0001:000397d0       __NLG_Dispatch2            000000018003a7d0 f   libvcruntime:_jmpuwind_.obj
 0001:000397e0       __NLG_Return2              000000018003a7e0 f   libvcruntime:_jmpuwind_.obj
 0001:0003a1cc       ??$ftprintf@PEAU_iobuf@@PEB_WAEBQEB_WAEBQEB_WAEBI@?$__crt_char_traits@_W@@SAH$$QEAPEAU_iobuf@@$$QEAPEB_WAEBQEB_W2AEBI@Z 000000018003b1cc f i libucrt:assert.obj
 0001:0003a1f4       _wassert                   000000018003b1f4 f   libucrt:assert.obj
 0001:0003a278       fwprintf                   000000018003b278 f i libucrt:assert.obj
 0001:0003a2bc       swprintf                   000000018003b2bc f i libucrt:assert.obj
 0001:0003a310       __acrt_call_reportfault    000000018003b310 f   libucrt:invalid_parameter.obj
 0001:0003a46c       __acrt_initialize_invalid_parameter_handler 000000018003b46c f   libucrt:invalid_parameter.obj
 0001:0003a474       _invalid_parameter         000000018003b474 f   libucrt:invalid_parameter.obj
 0001:0003a51c       _invalid_parameter_noinfo  000000018003b51c f   libucrt:invalid_parameter.obj
 0001:0003a53c       _invalid_parameter_noinfo_noreturn 000000018003b53c f   libucrt:invalid_parameter.obj
 0001:0003a56c       _invoke_watson             000000018003b56c f   libucrt:invalid_parameter.obj
 0001:0003a5b4       free                       000000018003b5b4 f   libucrt:free.obj
 0001:0003a5bc       malloc                     000000018003b5bc f   libucrt:malloc.obj
 0001:0003a5c4       ??0_LocaleUpdate@@QEAA@QEAU__crt_locale_pointers@@@Z 000000018003b5c4 f i libucrt:stricmp.obj
 0001:0003a654       __ascii_stricmp            000000018003b654 f   libucrt:stricmp.obj
 0001:0003a690       _stricmp                   000000018003b690 f   libucrt:stricmp.obj
 0001:0003a6d8       _stricmp_l                 000000018003b6d8 f   libucrt:stricmp.obj
 0001:0003a78c       ??$?RV<lambda_7b91131dde12e1c3dfc74ff76b3f2eac>@@AEAV<lambda_dd75445284c072d0bd3768540cc698fa>@@V<lambda_16bc4ecb55b4718497c16bceaea2ceaf>@@@?$__crt_seh_guarded_call@H@@QEAAH$$QEAV<lambda_7b91131dde12e1c3dfc74ff76b3f2eac>@@AEAV<lambda_dd75445284c072d0bd3768540cc698fa>@@$$QEAV<lambda_16bc4ecb55b4718497c16bceaea2ceaf>@@@Z 000000018003b78c f i libucrt:output.obj
 0001:0003a7cc       ??$?RV<lambda_aa279a7bcb127014629d5b1d62c7325d>@@AEAV<lambda_0a64b6a4deda75c01876f29c44fc5eb3>@@V<lambda_3323e69fbefe9d1a11713e670d47cdfa>@@@?$__crt_seh_guarded_call@H@@QEAAH$$QEAV<lambda_aa279a7bcb127014629d5b1d62c7325d>@@AEAV<lambda_0a64b6a4deda75c01876f29c44fc5eb3>@@$$QEAV<lambda_3323e69fbefe9d1a11713e670d47cdfa>@@@Z 000000018003b7cc f i libucrt:output.obj
 0001:0003a9b4       ??$ensure_buffer_is_big_enough@D@formatting_buffer@__crt_stdio_output@@QEAA_N_K@Z 000000018003b9b4 f i libucrt:output.obj
 0001:0003aa60       ??$is_wide_character_specifier@D@__crt_stdio_output@@YA_N_KDW4length_modifier@0@@Z 000000018003ba60 f i libucrt:output.obj
 0001:0003aa90       ??$is_wide_character_specifier@_W@__crt_stdio_output@@YA_N_K_WW4length_modifier@0@@Z 000000018003ba90 f i libucrt:output.obj
 0001:0003aad4       ??$type_case_integer_parse_into_buffer@I@?$output_processor@DV?$string_output_adapter@D@__crt_stdio_output@@V?$standard_base@DV?$string_output_adapter@D@__crt_stdio_output@@@2@@__crt_stdio_output@@AEAAXII_N@Z 000000018003bad4 f i libucrt:output.obj
 0001:0003aad4       ??$type_case_integer_parse_into_buffer@I@?$output_processor@_WV?$string_output_adapter@_W@__crt_stdio_output@@V?$standard_base@_WV?$string_output_adapter@_W@__crt_stdio_output@@@2@@__crt_stdio_output@@AEAAXII_N@Z 000000018003bad4 f i libucrt:output.obj
 0001:0003aad4       ??$type_case_integer_parse_into_buffer@I@?$output_processor@_WV?$stream_output_adapter@_W@__crt_stdio_output@@V?$standard_base@_WV?$stream_output_adapter@_W@__crt_stdio_output@@@2@@__crt_stdio_output@@AEAAXII_N@Z 000000018003bad4 f i libucrt:output.obj
 0001:0003aad4       ??$type_case_integer_parse_into_buffer@I@?$output_processor@DV?$string_output_adapter@D@__crt_stdio_output@@V?$format_validation_base@DV?$string_output_adapter@D@__crt_stdio_output@@@2@@__crt_stdio_output@@AEAAXII_N@Z 000000018003bad4 f i libucrt:output.obj
 0001:0003aad4       ??$type_case_integer_parse_into_buffer@I@?$output_processor@DV?$stream_output_adapter@D@__crt_stdio_output@@V?$standard_base@DV?$stream_output_adapter@D@__crt_stdio_output@@@2@@__crt_stdio_output@@AEAAXII_N@Z 000000018003bad4 f i libucrt:output.obj
 0001:0003ab70       ??$type_case_integer_parse_into_buffer@_K@?$output_processor@_WV?$string_output_adapter@_W@__crt_stdio_output@@V?$standard_base@_WV?$string_output_adapter@_W@__crt_stdio_output@@@2@@__crt_stdio_output@@AEAAX_KI_N@Z 000000018003bb70 f i libucrt:output.obj
 0001:0003ab70       ??$type_case_integer_parse_into_buffer@_K@?$output_processor@DV?$stream_output_adapter@D@__crt_stdio_output@@V?$standard_base@DV?$stream_output_adapter@D@__crt_stdio_output@@@2@@__crt_stdio_output@@AEAAX_KI_N@Z 000000018003bb70 f i libucrt:output.obj
 0001:0003ab70       ??$type_case_integer_parse_into_buffer@_K@?$output_processor@DV?$string_output_adapter@D@__crt_stdio_output@@V?$standard_base@DV?$string_output_adapter@D@__crt_stdio_output@@@2@@__crt_stdio_output@@AEAAX_KI_N@Z 000000018003bb70 f i libucrt:output.obj
 0001:0003ab70       ??$type_case_integer_parse_into_buffer@_K@?$output_processor@_WV?$stream_output_adapter@_W@__crt_stdio_output@@V?$standard_base@_WV?$stream_output_adapter@_W@__crt_stdio_output@@@2@@__crt_stdio_output@@AEAAX_KI_N@Z 000000018003bb70 f i libucrt:output.obj
 0001:0003ab70       ??$type_case_integer_parse_into_buffer@_K@?$output_processor@DV?$string_output_adapter@D@__crt_stdio_output@@V?$format_validation_base@DV?$string_output_adapter@D@__crt_stdio_output@@@2@@__crt_stdio_output@@AEAAX_KI_N@Z 000000018003bb70 f i libucrt:output.obj
 0001:0003ac0c       ??$write_multiple_characters@V?$stream_output_adapter@D@__crt_stdio_output@@D@__crt_stdio_output@@YAXAEBV?$stream_output_adapter@D@0@DHQEAH@Z 000000018003bc0c f i libucrt:output.obj
 0001:0003ac90       ??$write_multiple_characters@V?$stream_output_adapter@_W@__crt_stdio_output@@D@__crt_stdio_output@@YAXAEBV?$stream_output_adapter@_W@0@DHQEAH@Z 000000018003bc90 f i libucrt:output.obj
 0001:0003ad20       ??$write_multiple_characters@V?$string_output_adapter@D@__crt_stdio_output@@D@__crt_stdio_output@@YAXAEBV?$string_output_adapter@D@0@DHQEAH@Z 000000018003bd20 f i libucrt:output.obj
 0001:0003ad7c       ??$write_multiple_characters@V?$string_output_adapter@_W@__crt_stdio_output@@D@__crt_stdio_output@@YAXAEBV?$string_output_adapter@_W@0@DHQEAH@Z 000000018003bd7c f i libucrt:output.obj
 0001:0003adec       ??0?$output_processor@DV?$string_output_adapter@D@__crt_stdio_output@@V?$format_validation_base@DV?$string_output_adapter@D@__crt_stdio_output@@@2@@__crt_stdio_output@@QEAA@AEBV?$string_output_adapter@D@1@_KQEBDQEAU__crt_locale_pointers@@QEAD@Z 000000018003bdec f i libucrt:output.obj
 0001:0003adec       ??0?$output_processor@DV?$stream_output_adapter@D@__crt_stdio_output@@V?$standard_base@DV?$stream_output_adapter@D@__crt_stdio_output@@@2@@__crt_stdio_output@@QEAA@AEBV?$stream_output_adapter@D@1@_KQEBDQEAU__crt_locale_pointers@@QEAD@Z 000000018003bdec f i libucrt:output.obj
 0001:0003adec       ??0?$output_processor@DV?$string_output_adapter@D@__crt_stdio_output@@V?$standard_base@DV?$string_output_adapter@D@__crt_stdio_output@@@2@@__crt_stdio_output@@QEAA@AEBV?$string_output_adapter@D@1@_KQEBDQEAU__crt_locale_pointers@@QEAD@Z 000000018003bdec f i libucrt:output.obj
 0001:0003ae68       ??0?$output_processor@_WV?$string_output_adapter@_W@__crt_stdio_output@@V?$standard_base@_WV?$string_output_adapter@_W@__crt_stdio_output@@@2@@__crt_stdio_output@@QEAA@AEBV?$string_output_adapter@_W@1@_KQEB_WQEAU__crt_locale_pointers@@QEAD@Z 000000018003be68 f i libucrt:output.obj
 0001:0003ae68       ??0?$output_processor@_WV?$stream_output_adapter@_W@__crt_stdio_output@@V?$standard_base@_WV?$stream_output_adapter@_W@__crt_stdio_output@@@2@@__crt_stdio_output@@QEAA@AEBV?$stream_output_adapter@_W@1@_KQEB_WQEAU__crt_locale_pointers@@QEAD@Z 000000018003be68 f i libucrt:output.obj
 0001:0003b0c8       ?force_decimal_point@__crt_stdio_output@@YAXPEADQEAU__crt_locale_pointers@@@Z 000000018003c0c8 f i libucrt:output.obj
 0001:0003b138       ?parse_int_from_format_string@?$output_processor@DV?$string_output_adapter@D@__crt_stdio_output@@V?$standard_base@DV?$string_output_adapter@D@__crt_stdio_output@@@2@@__crt_stdio_output@@AEAA_NQEAH@Z 000000018003c138 f i libucrt:output.obj
 0001:0003b138       ?parse_int_from_format_string@?$output_processor@DV?$stream_output_adapter@D@__crt_stdio_output@@V?$standard_base@DV?$stream_output_adapter@D@__crt_stdio_output@@@2@@__crt_stdio_output@@AEAA_NQEAH@Z 000000018003c138 f i libucrt:output.obj
 0001:0003b138       ?parse_int_from_format_string@?$output_processor@DV?$string_output_adapter@D@__crt_stdio_output@@V?$format_validation_base@DV?$string_output_adapter@D@__crt_stdio_output@@@2@@__crt_stdio_output@@AEAA_NQEAH@Z 000000018003c138 f i libucrt:output.obj
 0001:0003b1bc       ?parse_int_from_format_string@?$output_processor@_WV?$stream_output_adapter@_W@__crt_stdio_output@@V?$standard_base@_WV?$stream_output_adapter@_W@__crt_stdio_output@@@2@@__crt_stdio_output@@AEAA_NQEAH@Z 000000018003c1bc f i libucrt:output.obj
 0001:0003b1bc       ?parse_int_from_format_string@?$output_processor@_WV?$string_output_adapter@_W@__crt_stdio_output@@V?$standard_base@_WV?$string_output_adapter@_W@__crt_stdio_output@@@2@@__crt_stdio_output@@AEAA_NQEAH@Z 000000018003c1bc f i libucrt:output.obj
 0001:0003b23c       ?process@?$output_processor@DV?$stream_output_adapter@D@__crt_stdio_output@@V?$standard_base@DV?$stream_output_adapter@D@__crt_stdio_output@@@2@@__crt_stdio_output@@QEAAHXZ 000000018003c23c f i libucrt:output.obj
 0001:0003b44c       ?process@?$output_processor@DV?$string_output_adapter@D@__crt_stdio_output@@V?$format_validation_base@DV?$string_output_adapter@D@__crt_stdio_output@@@2@@__crt_stdio_output@@QEAAHXZ 000000018003c44c f i libucrt:output.obj
 0001:0003b660       ?process@?$output_processor@DV?$string_output_adapter@D@__crt_stdio_output@@V?$standard_base@DV?$string_output_adapter@D@__crt_stdio_output@@@2@@__crt_stdio_output@@QEAAHXZ 000000018003c660 f i libucrt:output.obj
 0001:0003b864       ?process@?$output_processor@_WV?$stream_output_adapter@_W@__crt_stdio_output@@V?$standard_base@_WV?$stream_output_adapter@_W@__crt_stdio_output@@@2@@__crt_stdio_output@@QEAAHXZ 000000018003c864 f i libucrt:output.obj
 0001:0003badc       ?process@?$output_processor@_WV?$string_output_adapter@_W@__crt_stdio_output@@V?$standard_base@_WV?$string_output_adapter@_W@__crt_stdio_output@@@2@@__crt_stdio_output@@QEAAHXZ 000000018003cadc f i libucrt:output.obj
 0001:0003bd58       ?state_case_normal@?$output_processor@DV?$stream_output_adapter@D@__crt_stdio_output@@V?$standard_base@DV?$stream_output_adapter@D@__crt_stdio_output@@@2@@__crt_stdio_output@@AEAA_NXZ 000000018003cd58 f i libucrt:output.obj
 0001:0003bdc8       ?state_case_normal@?$output_processor@DV?$string_output_adapter@D@__crt_stdio_output@@V?$format_validation_base@DV?$string_output_adapter@D@__crt_stdio_output@@@2@@__crt_stdio_output@@AEAA_NXZ 000000018003cdc8 f i libucrt:output.obj
 0001:0003bdc8       ?state_case_normal@?$output_processor@DV?$string_output_adapter@D@__crt_stdio_output@@V?$standard_base@DV?$string_output_adapter@D@__crt_stdio_output@@@2@@__crt_stdio_output@@AEAA_NXZ 000000018003cdc8 f i libucrt:output.obj
 0001:0003be3c       ?state_case_normal_tchar@?$output_processor@DV?$stream_output_adapter@D@__crt_stdio_output@@V?$standard_base@DV?$stream_output_adapter@D@__crt_stdio_output@@@2@@__crt_stdio_output@@AEAA_ND@Z 000000018003ce3c f i libucrt:output.obj
 0001:0003bed0       ?state_case_normal_tchar@?$output_processor@DV?$string_output_adapter@D@__crt_stdio_output@@V?$format_validation_base@DV?$string_output_adapter@D@__crt_stdio_output@@@2@@__crt_stdio_output@@AEAA_ND@Z 000000018003ced0 f i libucrt:output.obj
 0001:0003bed0       ?state_case_normal_tchar@?$output_processor@DV?$string_output_adapter@D@__crt_stdio_output@@V?$standard_base@DV?$string_output_adapter@D@__crt_stdio_output@@@2@@__crt_stdio_output@@AEAA_ND@Z 000000018003ced0 f i libucrt:output.obj
 0001:0003bf68       ?state_case_size@?$output_processor@DV?$stream_output_adapter@D@__crt_stdio_output@@V?$standard_base@DV?$stream_output_adapter@D@__crt_stdio_output@@@2@@__crt_stdio_output@@AEAA_NXZ 000000018003cf68 f i libucrt:output.obj
 0001:0003c0e4       ?state_case_size@?$output_processor@DV?$string_output_adapter@D@__crt_stdio_output@@V?$standard_base@DV?$string_output_adapter@D@__crt_stdio_output@@@2@@__crt_stdio_output@@AEAA_NXZ 000000018003d0e4 f i libucrt:output.obj
 0001:0003c0e4       ?state_case_size@?$output_processor@DV?$string_output_adapter@D@__crt_stdio_output@@V?$format_validation_base@DV?$string_output_adapter@D@__crt_stdio_output@@@2@@__crt_stdio_output@@AEAA_NXZ 000000018003d0e4 f i libucrt:output.obj
 0001:0003c260       ?state_case_size@?$output_processor@_WV?$stream_output_adapter@_W@__crt_stdio_output@@V?$standard_base@_WV?$stream_output_adapter@_W@__crt_stdio_output@@@2@@__crt_stdio_output@@AEAA_NXZ 000000018003d260 f i libucrt:output.obj
 0001:0003c404       ?state_case_size@?$output_processor@_WV?$string_output_adapter@_W@__crt_stdio_output@@V?$standard_base@_WV?$string_output_adapter@_W@__crt_stdio_output@@@2@@__crt_stdio_output@@AEAA_NXZ 000000018003d404 f i libucrt:output.obj
 0001:0003c5a8       ?state_case_type@?$output_processor@DV?$stream_output_adapter@D@__crt_stdio_output@@V?$standard_base@DV?$stream_output_adapter@D@__crt_stdio_output@@@2@@__crt_stdio_output@@AEAA_NXZ 000000018003d5a8 f i libucrt:output.obj
 0001:0003c824       ?state_case_type@?$output_processor@DV?$string_output_adapter@D@__crt_stdio_output@@V?$format_validation_base@DV?$string_output_adapter@D@__crt_stdio_output@@@2@@__crt_stdio_output@@AEAA_NXZ 000000018003d824 f i libucrt:output.obj
 0001:0003c824       ?state_case_type@?$output_processor@DV?$string_output_adapter@D@__crt_stdio_output@@V?$standard_base@DV?$string_output_adapter@D@__crt_stdio_output@@@2@@__crt_stdio_output@@AEAA_NXZ 000000018003d824 f i libucrt:output.obj
 0001:0003caa0       ?state_case_type@?$output_processor@_WV?$stream_output_adapter@_W@__crt_stdio_output@@V?$standard_base@_WV?$stream_output_adapter@_W@__crt_stdio_output@@@2@@__crt_stdio_output@@AEAA_NXZ 000000018003daa0 f i libucrt:output.obj
 0001:0003cd6c       ?state_case_type@?$output_processor@_WV?$string_output_adapter@_W@__crt_stdio_output@@V?$standard_base@_WV?$string_output_adapter@_W@__crt_stdio_output@@@2@@__crt_stdio_output@@AEAA_NXZ 000000018003dd6c f i libucrt:output.obj
 0001:0003d038       ?type_case_Z@?$output_processor@DV?$stream_output_adapter@D@__crt_stdio_output@@V?$standard_base@DV?$stream_output_adapter@D@__crt_stdio_output@@@2@@__crt_stdio_output@@AEAA_NXZ 000000018003e038 f i libucrt:output.obj
 0001:0003d038       ?type_case_Z@?$output_processor@DV?$string_output_adapter@D@__crt_stdio_output@@V?$format_validation_base@DV?$string_output_adapter@D@__crt_stdio_output@@@2@@__crt_stdio_output@@AEAA_NXZ 000000018003e038 f i libucrt:output.obj
 0001:0003d038       ?type_case_Z@?$output_processor@DV?$string_output_adapter@D@__crt_stdio_output@@V?$standard_base@DV?$string_output_adapter@D@__crt_stdio_output@@@2@@__crt_stdio_output@@AEAA_NXZ 000000018003e038 f i libucrt:output.obj
 0001:0003d0b8       ?type_case_Z@?$output_processor@_WV?$string_output_adapter@_W@__crt_stdio_output@@V?$standard_base@_WV?$string_output_adapter@_W@__crt_stdio_output@@@2@@__crt_stdio_output@@AEAA_NXZ 000000018003e0b8 f i libucrt:output.obj
 0001:0003d0b8       ?type_case_Z@?$output_processor@_WV?$stream_output_adapter@_W@__crt_stdio_output@@V?$standard_base@_WV?$stream_output_adapter@_W@__crt_stdio_output@@@2@@__crt_stdio_output@@AEAA_NXZ 000000018003e0b8 f i libucrt:output.obj
 0001:0003d138       ?type_case_a@?$output_processor@DV?$string_output_adapter@D@__crt_stdio_output@@V?$standard_base@DV?$string_output_adapter@D@__crt_stdio_output@@@2@@__crt_stdio_output@@AEAA_NXZ 000000018003e138 f i libucrt:output.obj
 0001:0003d138       ?type_case_a@?$output_processor@DV?$string_output_adapter@D@__crt_stdio_output@@V?$format_validation_base@DV?$string_output_adapter@D@__crt_stdio_output@@@2@@__crt_stdio_output@@AEAA_NXZ 000000018003e138 f i libucrt:output.obj
 0001:0003d138       ?type_case_a@?$output_processor@DV?$stream_output_adapter@D@__crt_stdio_output@@V?$standard_base@DV?$stream_output_adapter@D@__crt_stdio_output@@@2@@__crt_stdio_output@@AEAA_NXZ 000000018003e138 f i libucrt:output.obj
 0001:0003d354       ?type_case_a@?$output_processor@_WV?$stream_output_adapter@_W@__crt_stdio_output@@V?$standard_base@_WV?$stream_output_adapter@_W@__crt_stdio_output@@@2@@__crt_stdio_output@@AEAA_NXZ 000000018003e354 f i libucrt:output.obj
 0001:0003d354       ?type_case_a@?$output_processor@_WV?$string_output_adapter@_W@__crt_stdio_output@@V?$standard_base@_WV?$string_output_adapter@_W@__crt_stdio_output@@@2@@__crt_stdio_output@@AEAA_NXZ 000000018003e354 f i libucrt:output.obj
 0001:0003d598       ?type_case_c_tchar@?$output_processor@DV?$string_output_adapter@D@__crt_stdio_output@@V?$format_validation_base@DV?$string_output_adapter@D@__crt_stdio_output@@@2@@__crt_stdio_output@@AEAA_ND@Z 000000018003e598 f i libucrt:output.obj
 0001:0003d598       ?type_case_c_tchar@?$output_processor@DV?$string_output_adapter@D@__crt_stdio_output@@V?$standard_base@DV?$string_output_adapter@D@__crt_stdio_output@@@2@@__crt_stdio_output@@AEAA_ND@Z 000000018003e598 f i libucrt:output.obj
 0001:0003d598       ?type_case_c_tchar@?$output_processor@DV?$stream_output_adapter@D@__crt_stdio_output@@V?$standard_base@DV?$stream_output_adapter@D@__crt_stdio_output@@@2@@__crt_stdio_output@@AEAA_ND@Z 000000018003e598 f i libucrt:output.obj
 0001:0003d64c       ?type_case_c_tchar@?$output_processor@_WV?$stream_output_adapter@_W@__crt_stdio_output@@V?$standard_base@_WV?$stream_output_adapter@_W@__crt_stdio_output@@@2@@__crt_stdio_output@@AEAA_N_W@Z 000000018003e64c f i libucrt:output.obj
 0001:0003d64c       ?type_case_c_tchar@?$output_processor@_WV?$string_output_adapter@_W@__crt_stdio_output@@V?$standard_base@_WV?$string_output_adapter@_W@__crt_stdio_output@@@2@@__crt_stdio_output@@AEAA_N_W@Z 000000018003e64c f i libucrt:output.obj
 0001:0003d6f4       ?type_case_integer@?$output_processor@_WV?$string_output_adapter@_W@__crt_stdio_output@@V?$standard_base@_WV?$string_output_adapter@_W@__crt_stdio_output@@@2@@__crt_stdio_output@@AEAA_NI_N@Z 000000018003e6f4 f i libucrt:output.obj
 0001:0003d6f4       ?type_case_integer@?$output_processor@DV?$string_output_adapter@D@__crt_stdio_output@@V?$standard_base@DV?$string_output_adapter@D@__crt_stdio_output@@@2@@__crt_stdio_output@@AEAA_NI_N@Z 000000018003e6f4 f i libucrt:output.obj
 0001:0003d6f4       ?type_case_integer@?$output_processor@_WV?$stream_output_adapter@_W@__crt_stdio_output@@V?$standard_base@_WV?$stream_output_adapter@_W@__crt_stdio_output@@@2@@__crt_stdio_output@@AEAA_NI_N@Z 000000018003e6f4 f i libucrt:output.obj
 0001:0003d6f4       ?type_case_integer@?$output_processor@DV?$stream_output_adapter@D@__crt_stdio_output@@V?$standard_base@DV?$stream_output_adapter@D@__crt_stdio_output@@@2@@__crt_stdio_output@@AEAA_NI_N@Z 000000018003e6f4 f i libucrt:output.obj
 0001:0003d6f4       ?type_case_integer@?$output_processor@DV?$string_output_adapter@D@__crt_stdio_output@@V?$format_validation_base@DV?$string_output_adapter@D@__crt_stdio_output@@@2@@__crt_stdio_output@@AEAA_NI_N@Z 000000018003e6f4 f i libucrt:output.obj
 0001:0003d894       ?type_case_n@?$output_processor@DV?$stream_output_adapter@D@__crt_stdio_output@@V?$standard_base@DV?$stream_output_adapter@D@__crt_stdio_output@@@2@@__crt_stdio_output@@AEAA_NXZ 000000018003e894 f i libucrt:output.obj
 0001:0003d894       ?type_case_n@?$output_processor@_WV?$string_output_adapter@_W@__crt_stdio_output@@V?$standard_base@_WV?$string_output_adapter@_W@__crt_stdio_output@@@2@@__crt_stdio_output@@AEAA_NXZ 000000018003e894 f i libucrt:output.obj
 0001:0003d894       ?type_case_n@?$output_processor@DV?$string_output_adapter@D@__crt_stdio_output@@V?$format_validation_base@DV?$string_output_adapter@D@__crt_stdio_output@@@2@@__crt_stdio_output@@AEAA_NXZ 000000018003e894 f i libucrt:output.obj
 0001:0003d894       ?type_case_n@?$output_processor@_WV?$stream_output_adapter@_W@__crt_stdio_output@@V?$standard_base@_WV?$stream_output_adapter@_W@__crt_stdio_output@@@2@@__crt_stdio_output@@AEAA_NXZ 000000018003e894 f i libucrt:output.obj
 0001:0003d894       ?type_case_n@?$output_processor@DV?$string_output_adapter@D@__crt_stdio_output@@V?$standard_base@DV?$string_output_adapter@D@__crt_stdio_output@@@2@@__crt_stdio_output@@AEAA_NXZ 000000018003e894 f i libucrt:output.obj
 0001:0003d970       ?type_case_s@?$output_processor@DV?$string_output_adapter@D@__crt_stdio_output@@V?$standard_base@DV?$string_output_adapter@D@__crt_stdio_output@@@2@@__crt_stdio_output@@AEAA_NXZ 000000018003e970 f i libucrt:output.obj
 0001:0003d970       ?type_case_s@?$output_processor@DV?$stream_output_adapter@D@__crt_stdio_output@@V?$standard_base@DV?$stream_output_adapter@D@__crt_stdio_output@@@2@@__crt_stdio_output@@AEAA_NXZ 000000018003e970 f i libucrt:output.obj
 0001:0003d970       ?type_case_s@?$output_processor@DV?$string_output_adapter@D@__crt_stdio_output@@V?$format_validation_base@DV?$string_output_adapter@D@__crt_stdio_output@@@2@@__crt_stdio_output@@AEAA_NXZ 000000018003e970 f i libucrt:output.obj
 0001:0003da00       ?type_case_s@?$output_processor@_WV?$string_output_adapter@_W@__crt_stdio_output@@V?$standard_base@_WV?$string_output_adapter@_W@__crt_stdio_output@@@2@@__crt_stdio_output@@AEAA_NXZ 000000018003ea00 f i libucrt:output.obj
 0001:0003da00       ?type_case_s@?$output_processor@_WV?$stream_output_adapter@_W@__crt_stdio_output@@V?$standard_base@_WV?$stream_output_adapter@_W@__crt_stdio_output@@@2@@__crt_stdio_output@@AEAA_NXZ 000000018003ea00 f i libucrt:output.obj
 0001:0003dac8       ?validate_stream_is_ansi_if_required@?$__acrt_stdio_char_traits@D@@SA_NQEAU_iobuf@@@Z 000000018003eac8 f i libucrt:output.obj
 0001:0003db54       ?write_stored_string_tchar@?$output_processor@DV?$stream_output_adapter@D@__crt_stdio_output@@V?$standard_base@DV?$stream_output_adapter@D@__crt_stdio_output@@@2@@__crt_stdio_output@@AEAA_ND@Z 000000018003eb54 f i libucrt:output.obj
 0001:0003dc2c       ?write_stored_string_tchar@?$output_processor@DV?$string_output_adapter@D@__crt_stdio_output@@V?$standard_base@DV?$string_output_adapter@D@__crt_stdio_output@@@2@@__crt_stdio_output@@AEAA_ND@Z 000000018003ec2c f i libucrt:output.obj
 0001:0003dc2c       ?write_stored_string_tchar@?$output_processor@DV?$string_output_adapter@D@__crt_stdio_output@@V?$format_validation_base@DV?$string_output_adapter@D@__crt_stdio_output@@@2@@__crt_stdio_output@@AEAA_ND@Z 000000018003ec2c f i libucrt:output.obj
 0001:0003dd04       ?write_stored_string_tchar@?$output_processor@_WV?$stream_output_adapter@_W@__crt_stdio_output@@V?$standard_base@_WV?$stream_output_adapter@_W@__crt_stdio_output@@@2@@__crt_stdio_output@@AEAA_N_W@Z 000000018003ed04 f i libucrt:output.obj
 0001:0003ddf0       ?write_stored_string_tchar@?$output_processor@_WV?$string_output_adapter@_W@__crt_stdio_output@@V?$standard_base@_WV?$string_output_adapter@_W@__crt_stdio_output@@@2@@__crt_stdio_output@@AEAA_N_W@Z 000000018003edf0 f i libucrt:output.obj
 0001:0003dee0       ?write_string@?$stream_output_adapter@D@__crt_stdio_output@@QEBAXQEBDHQEAH1@Z 000000018003eee0 f i libucrt:output.obj
 0001:0003dfd8       ?write_string@?$stream_output_adapter@_W@__crt_stdio_output@@QEBAXQEB_WHQEAH1@Z 000000018003efd8 f i libucrt:output.obj
 0001:0003e0e4       ?write_string@?$string_output_adapter@D@__crt_stdio_output@@QEBAXQEBDHQEAH1@Z 000000018003f0e4 f i libucrt:output.obj
 0001:0003e1a0       ?write_string@?$string_output_adapter@_W@__crt_stdio_output@@QEBAXQEB_WHQEAH1@Z 000000018003f1a0 f i libucrt:output.obj
 0001:0003e260       __stdio_common_vfprintf    000000018003f260 f   libucrt:output.obj
 0001:0003e2ec       __stdio_common_vfwprintf   000000018003f2ec f   libucrt:output.obj
 0001:0003e378       __stdio_common_vsnprintf_s 000000018003f378 f   libucrt:output.obj
 0001:0003e4d4       __stdio_common_vsprintf    000000018003f4d4 f   libucrt:output.obj
 0001:0003e708       __stdio_common_vswprintf   000000018003f708 f   libucrt:output.obj
 0001:0003e940       abort                      000000018003f940 f   libucrt:abort.obj
 0001:0003e998       __acrt_initialize_stdio    000000018003f998 f   libucrt:_file.obj
 0001:0003eab8       __acrt_iob_func            000000018003fab8 f   libucrt:_file.obj
 0001:0003eacc       __acrt_uninitialize_stdio  000000018003facc f   libucrt:_file.obj
 0001:0003eb28       _lock_file                 000000018003fb28 f   libucrt:_file.obj
 0001:0003eb34       _unlock_file               000000018003fb34 f   libucrt:_file.obj
 0001:0003ec8c       _beginthreadex             000000018003fc8c f   libucrt:thread.obj
 0001:0003ed60       _endthreadex               000000018003fd60 f   libucrt:thread.obj
 0001:0003ee3c       fopen                      000000018003fe3c f   libucrt:fopen.obj
 0001:0003ee48       _fclose_nolock             000000018003fe48 f   libucrt:fclose.obj
 0001:0003eecc       fclose                     000000018003fecc f   libucrt:fclose.obj
 0001:0003ef38       __acrt_errno_from_os_error 000000018003ff38 f   libucrt:errno.obj
 0001:0003ef80       __acrt_errno_map_os_error  000000018003ff80 f   libucrt:errno.obj
 0001:0003efd0       __doserrno                 000000018003ffd0 f   libucrt:errno.obj
 0001:0003eff0       _errno                     000000018003fff0 f   libucrt:errno.obj
 0001:0003f010       strerror                   0000000180040010 f   libucrt:strerror.obj
 0001:0003f0b4       __acrt_stdio_flush_nolock  00000001800400b4 f   libucrt:fflush.obj
 0001:0003f12c       _fflush_nolock             000000018004012c f   libucrt:fflush.obj
 0001:0003f178       _flushall                  0000000180040178 f   libucrt:fflush.obj
 0001:0003f268       fflush                     0000000180040268 f   libucrt:fflush.obj
 0001:0003f2ac       ??$?RV<lambda_5d4c3fee44080f75d5d9762853974fe0>@@AEAV<lambda_532e024f4337e6fc7ad266c2bef9f4ed>@@V<lambda_c87bdc10097eb2402edb8ba9bdf0697b>@@@?$__crt_seh_guarded_call@_K@@QEAA_K$$QEAV<lambda_5d4c3fee44080f75d5d9762853974fe0>@@AEAV<lambda_532e024f4337e6fc7ad266c2bef9f4ed>@@$$QEAV<lambda_c87bdc10097eb2402edb8ba9bdf0697b>@@@Z 00000001800402ac f i libucrt:fwrite.obj
 0001:0003f350       _fwrite_nolock             0000000180040350 f   libucrt:fwrite.obj
 0001:0003f4ec       fwrite                     00000001800404ec f   libucrt:fwrite.obj
 0001:0003f570       __acrt_initialize_new_handler 0000000180040570 f   libucrt:new_handler.obj
 0001:0003f578       _callnewh                  0000000180040578 f   libucrt:new_handler.obj
 0001:0003f5b8       _query_new_handler         00000001800405b8 f   libucrt:new_handler.obj
 0001:0003f5ec       _seh_filter_dll            00000001800405ec f   libucrt:exception_filter.obj
 0001:0003f600       _seh_filter_exe            0000000180040600 f   libucrt:exception_filter.obj
 0001:0003f9c0       __acrt_initialize_thread_local_exit_callback 00000001800409c0 f   libucrt:exit.obj
 0001:0003f9c8       _cexit                     00000001800409c8 f   libucrt:exit.obj
 0001:0003f9d8       _exit                      00000001800409d8 f   libucrt:exit.obj
 0001:0003f9e4       _is_c_termination_complete 00000001800409e4 f   libucrt:exit.obj
 0001:0003fba8       __acrt_allocate_buffer_for_argv 0000000180040ba8 f   libucrt:argv_parsing.obj
 0001:0003fc0c       _configure_narrow_argv     0000000180040c0c f   libucrt:argv_parsing.obj
 0001:0003ff68       __dcrt_uninitialize_environments_nolock 0000000180040f68 f   libucrt:environment_initialization.obj
 0001:0003ffa0       _initialize_narrow_environment 0000000180040fa0 f   libucrt:environment_initialization.obj
 0001:0003ffa8       ??$?RV<lambda_b8c45f8f788dd370798f47cfe8ac3a86>@@AEAV<lambda_4e60a939b0d047cfe11ddc22648dfba9>@@V<lambda_332c3edc96d0294ec56c57d38c1cdfd5>@@@?$__crt_seh_guarded_call@H@@QEAAH$$QEAV<lambda_b8c45f8f788dd370798f47cfe8ac3a86>@@AEAV<lambda_4e60a939b0d047cfe11ddc22648dfba9>@@$$QEAV<lambda_332c3edc96d0294ec56c57d38c1cdfd5>@@@Z 0000000180040fa8 f i libucrt:onexit.obj
 0001:0003ffe4       ??$?RV<lambda_e24bbb7b643b32fcea6fa61b31d4c984>@@AEAV<lambda_275893d493268fdec8709772e3fcec0e>@@V<lambda_9d71df4d7cf3f480f8d633942495c3b0>@@@?$__crt_seh_guarded_call@H@@QEAAH$$QEAV<lambda_e24bbb7b643b32fcea6fa61b31d4c984>@@AEAV<lambda_275893d493268fdec8709772e3fcec0e>@@$$QEAV<lambda_9d71df4d7cf3f480f8d633942495c3b0>@@@Z 0000000180040fe4 f i libucrt:onexit.obj
 0001:00040360       _crt_atexit                0000000180041360 f   libucrt:onexit.obj
 0001:00040370       _execute_onexit_table      0000000180041370 f   libucrt:onexit.obj
 0001:000403ac       _initialize_onexit_table   00000001800413ac f   libucrt:onexit.obj
 0001:000403ec       _register_onexit_function  00000001800413ec f   libucrt:onexit.obj
 0001:00040568       __acrt_uninitialize_command_line 0000000180041568 f   libucrt:argv_data.obj
 0001:0004056c       __acrt_initialize          000000018004156c f   libucrt:initialization.obj
 0001:00040580       __acrt_thread_attach       0000000180041580 f   libucrt:initialization.obj
 0001:00040594       __acrt_thread_detach       0000000180041594 f   libucrt:initialization.obj
 0001:000405a4       __acrt_uninitialize        00000001800415a4 f   libucrt:initialization.obj
 0001:000405b8       __acrt_uninitialize_critical 00000001800415b8 f   libucrt:initialization.obj
 0001:000405c8       _initterm                  00000001800415c8 f   libucrt:initterm.obj
 0001:00040640       _initterm_e                0000000180041640 f   libucrt:initterm.obj
 0001:0004068c       terminate                  000000018004168c f   libucrt:terminate.obj
 0001:000406b4       strcpy_s                   00000001800416b4 f   libucrt:strcpy_s.obj
 0001:00040714       _free_base                 0000000180041714 f   libucrt:free_base.obj
 0001:00040754       _malloc_base               0000000180041754 f   libucrt:malloc_base.obj
 0001:000407b4       _calloc_base               00000001800417b4 f   libucrt:calloc_base.obj
 0001:0004082c       ??$is_overflow_condition@K@__crt_strtox@@YA_NIK@Z 000000018004182c f i libucrt:atox.obj
 0001:00040858       ??$parse_integer@KV?$c_string_character_source@D@__crt_strtox@@@__crt_strtox@@YAKQEAU__crt_locale_pointers@@V?$c_string_character_source@D@0@H_N@Z 0000000180041858 f i libucrt:atox.obj
 0001:00040b6c       ??$parse_integer@KV?$c_string_character_source@_W@__crt_strtox@@@__crt_strtox@@YAKQEAU__crt_locale_pointers@@V?$c_string_character_source@_W@0@H_N@Z 0000000180041b6c f i libucrt:atox.obj
 0001:00041240       _query_app_type            0000000180042240 f   libucrt:report_runtime_error.obj
 0001:00041370       _itow_s                    0000000180042370 f   libucrt:xtoa.obj
 0001:00041390       _set_error_mode            0000000180042390 f   libucrt:set_error_mode.obj
 0001:000413d0       wcscat_s                   00000001800423d0 f   libucrt:wcscat_s.obj
 0001:00041450       wcscpy_s                   0000000180042450 f   libucrt:wcscpy_s.obj
 0001:000414b8       wcsncat_s                  00000001800424b8 f   libucrt:wcsncat_s.obj
 0001:000415e0       __acrt_show_wide_message_box 00000001800425e0 f   libucrt:crtmbox.obj
 0001:000416fc       ??$?RV<lambda_7a5ef57ff966f610505f1d28a3d40618>@@AEAV<lambda_b721fa326cdb32351d23dfa67958c160>@@V<lambda_5e0fb27672408a07956fe59e48ccb2aa>@@@?$__crt_seh_guarded_call@H@@QEAAH$$QEAV<lambda_7a5ef57ff966f610505f1d28a3d40618>@@AEAV<lambda_b721fa326cdb32351d23dfa67958c160>@@$$QEAV<lambda_5e0fb27672408a07956fe59e48ccb2aa>@@@Z 00000001800426fc f i libucrt:setvbuf.obj
 0001:0004182c       setvbuf                    000000018004282c f   libucrt:setvbuf.obj
 0001:000418cc       ??$?RV<lambda_c36588078e9f5dfd39652860aa6b3aaf>@@AEAV<lambda_ec61778202f4f5fc7e7711acc23c3bca>@@V<lambda_dc9d2797ccde5d239b4a0efae8ebd7db>@@@?$__crt_seh_guarded_call@P6AXH@Z@@QEAAP6AXH@Z$$QEAV<lambda_c36588078e9f5dfd39652860aa6b3aaf>@@AEAV<lambda_ec61778202f4f5fc7e7711acc23c3bca>@@$$QEAV<lambda_dc9d2797ccde5d239b4a0efae8ebd7db>@@@Z 00000001800428cc f i libucrt:signal.obj
 0001:00041914       __acrt_get_sigabrt_handler 0000000180042914 f   libucrt:signal.obj
 0001:00041944       __acrt_initialize_signal_handlers 0000000180042944 f   libucrt:signal.obj
 0001:00041964       raise                      0000000180042964 f   libucrt:signal.obj
 0001:00041c00       ??$?RV<lambda_46352004c1216016012b18bd6f87e700>@@AEAV<lambda_3bd07e1a1191394380780325891bf33f>@@V<lambda_334532d3f185bcaa59b5be82d7d22bff>@@@?$__crt_seh_guarded_call@X@@QEAAX$$QEAV<lambda_46352004c1216016012b18bd6f87e700>@@AEAV<lambda_3bd07e1a1191394380780325891bf33f>@@$$QEAV<lambda_334532d3f185bcaa59b5be82d7d22bff>@@@Z 0000000180042c00 f i libucrt:per_thread_data.obj
 0001:00041c60       ??$?RV<lambda_5e887d1dcbef67a5eb4283622ba103bf>@@AEAV<lambda_4466841279450cc726390878d4a41900>@@V<lambda_341c25c0346d94847f1f3c463c57e077>@@@?$__crt_seh_guarded_call@X@@QEAAX$$QEAV<lambda_5e887d1dcbef67a5eb4283622ba103bf>@@AEAV<lambda_4466841279450cc726390878d4a41900>@@$$QEAV<lambda_341c25c0346d94847f1f3c463c57e077>@@@Z 0000000180042c60 f i libucrt:per_thread_data.obj
 0001:00041ca8       ??$?RV<lambda_72d1df2b273a38828b1ce30cbf4cdab5>@@AEAV<lambda_876a65b173b8412d3a47c70a915b0cf4>@@V<lambda_41932305e351933ebe8f8be3ed8bb5dc>@@@?$__crt_seh_guarded_call@X@@QEAAX$$QEAV<lambda_72d1df2b273a38828b1ce30cbf4cdab5>@@AEAV<lambda_876a65b173b8412d3a47c70a915b0cf4>@@$$QEAV<lambda_41932305e351933ebe8f8be3ed8bb5dc>@@@Z 0000000180042ca8 f i libucrt:per_thread_data.obj
 0001:00041ce8       ??$?RV<lambda_fb3a7dec4e47f37f22dae91bb15c9095>@@AEAV<lambda_698284760c8add0bfb0756c19673e34b>@@V<lambda_dfb8eca1e75fef3034a8fb18dd509707>@@@?$__crt_seh_guarded_call@X@@QEAAX$$QEAV<lambda_fb3a7dec4e47f37f22dae91bb15c9095>@@AEAV<lambda_698284760c8add0bfb0756c19673e34b>@@$$QEAV<lambda_dfb8eca1e75fef3034a8fb18dd509707>@@@Z 0000000180042ce8 f i libucrt:per_thread_data.obj
 0001:00041f78       __acrt_freeptd             0000000180042f78 f   libucrt:per_thread_data.obj
 0001:00041fbc       __acrt_getptd              0000000180042fbc f   libucrt:per_thread_data.obj
 0001:00042050       __acrt_getptd_noexit       0000000180043050 f   libucrt:per_thread_data.obj
 0001:000420f0       __acrt_initialize_ptd      00000001800430f0 f   libucrt:per_thread_data.obj
 0001:0004212c       __acrt_uninitialize_ptd    000000018004312c f   libucrt:per_thread_data.obj
 0001:000421a0       _tolower_l                 00000001800431a0 f   libucrt:tolower_toupper.obj
 0001:000422e0       tolower                    00000001800432e0 f   libucrt:tolower_toupper.obj
 0001:0004230c       __acrt_update_locale_info  000000018004330c f   libucrt:locale_update.obj
 0001:00042340       __acrt_update_multibyte_info 0000000180043340 f   libucrt:locale_update.obj
 0001:00042374       __acrt_set_locale_changed  0000000180043374 f   libucrt:wsetlocale.obj
 0001:00042380       __acrt_uninitialize_locale 0000000180043380 f   libucrt:wsetlocale.obj
 0001:000423c8       isdigit                    00000001800433c8 f i libucrt:_ctype.obj
 0001:0004243c       ??$make_c_string_character_source@_WPEAPEA_W@__crt_strtox@@YA?AV?$c_string_character_source@_W@0@QEB_WQEAPEA_W@Z 000000018004343c f i libucrt:strtox.obj
 0001:0004243c       ??$make_c_string_character_source@DPEAPEAD@__crt_strtox@@YA?AV?$c_string_character_source@D@0@QEBDQEAPEAD@Z 000000018004343c f i libucrt:strtox.obj
 0001:00042450       strtol                     0000000180043450 f   libucrt:strtox.obj
 0001:00042480       wcstol                     0000000180043480 f   libucrt:strtox.obj
 0001:000424b0       _mbtowc_l                  00000001800434b0 f   libucrt:mbtowc.obj
 0001:000425f8       mbtowc                     00000001800435f8 f   libucrt:mbtowc.obj
 0001:00042600       _wctomb_s_l                0000000180043600 f   libucrt:wctomb.obj
 0001:00042784       wctomb_s                   0000000180043784 f   libucrt:wctomb.obj
 0001:00042798       strnlen                    0000000180043798 f   libucrt:strnlen.obj
 0001:000428f4       wcsnlen                    00000001800438f4 f   libucrt:strnlen.obj
 0001:00042ae4       ?__acrt_fp_classify@@YA?AW4__acrt_fp_class@@AEBN@Z 0000000180043ae4 f i libucrt:cvt.obj
 0001:0004351c       __acrt_fp_format           000000018004451c f   libucrt:cvt.obj
 0001:00043760       _fputwc_nolock             0000000180044760 f   libucrt:fputwc.obj
 0001:000438dc       _fileno                    00000001800448dc f   libucrt:fileno.obj
 0001:00043904       _fputc_nolock              0000000180044904 f   libucrt:fputc.obj
 0001:0004391c       _get_printf_count_output   000000018004491c f   libucrt:printf_count_output.obj
 0001:00043934       __acrt_stdio_begin_temporary_buffering_nolock 0000000180044934 f   libucrt:_sftbuf.obj
 0001:00043a04       __acrt_stdio_end_temporary_buffering_nolock 0000000180044a04 f   libucrt:_sftbuf.obj
 0001:00043c28       __acrt_initialize_lowio    0000000180044c28 f   libucrt:ioinit.obj
 0001:00043c64       __acrt_uninitialize_lowio  0000000180044c64 f   libucrt:ioinit.obj
 0001:00043e44       __acrt_AreFileApisANSI     0000000180044e44 f   libucrt:winapi_thunks.obj
 0001:00043e90       __acrt_FlsAlloc            0000000180044e90 f   libucrt:winapi_thunks.obj
 0001:00043ee8       __acrt_FlsFree             0000000180044ee8 f   libucrt:winapi_thunks.obj
 0001:00043f40       __acrt_FlsGetValue         0000000180044f40 f   libucrt:winapi_thunks.obj
 0001:00043f98       __acrt_FlsSetValue         0000000180044f98 f   libucrt:winapi_thunks.obj
 0001:00044000       __acrt_InitializeCriticalSectionEx 0000000180045000 f   libucrt:winapi_thunks.obj
 0001:00044078       __acrt_LCMapStringEx       0000000180045078 f   libucrt:winapi_thunks.obj
 0001:00044168       __acrt_LocaleNameToLCID    0000000180045168 f   libucrt:winapi_thunks.obj
 0001:000441d0       __acrt_MessageBoxW         00000001800451d0 f   libucrt:winapi_thunks.obj
 0001:00044258       __acrt_RoInitialize        0000000180045258 f   libucrt:winapi_thunks.obj
 0001:000442a4       __acrt_RoUninitialize      00000001800452a4 f   libucrt:winapi_thunks.obj
 0001:000442e4       __acrt_can_show_message_box 00000001800452e4 f   libucrt:winapi_thunks.obj
 0001:00044340       __acrt_get_parent_window   0000000180045340 f   libucrt:winapi_thunks.obj
 0001:000443d0       __acrt_initialize_winapi_thunks 00000001800453d0 f   libucrt:winapi_thunks.obj
 0001:00044408       __acrt_is_interactive      0000000180045408 f   libucrt:winapi_thunks.obj
 0001:000444dc       __acrt_is_packaged_app     00000001800454dc f   libucrt:winapi_thunks.obj
 0001:00044564       __acrt_uninitialize_winapi_thunks 0000000180045564 f   libucrt:winapi_thunks.obj
 0001:000445a8       _fcloseall                 00000001800455a8 f   libucrt:closeall.obj
 0001:0004465c       __acrt_stdio_free_buffer_nolock 000000018004565c f   libucrt:_freebuf.obj
 0001:0004469c       ?__acrt_stdio_allocate_stream@@YA?AV__crt_stdio_stream@@XZ 000000018004569c f   libucrt:stream.obj
 0001:000446f8       ?__acrt_stdio_free_stream@@YAXV__crt_stdio_stream@@@Z 00000001800456f8 f   libucrt:stream.obj
 0001:00044828       ??$__acrt_stdio_parse_mode@D@@YA?AU__acrt_stdio_stream_mode@@QEBD@Z 0000000180045828 f i libucrt:openfile.obj
 0001:00044ac4       _openfile                  0000000180045ac4 f   libucrt:openfile.obj
 0001:00044b60       ??$?RV<lambda_bfedae4ebbf01fab1bb6dcc6a9e276e0>@@AEAV<lambda_2fe9b910cf3cbf4a0ab98a02ba45b3ec>@@V<lambda_237c231691f317818eb88cc1d5d642d6>@@@?$__crt_seh_guarded_call@H@@QEAAH$$QEAV<lambda_bfedae4ebbf01fab1bb6dcc6a9e276e0>@@AEAV<lambda_2fe9b910cf3cbf4a0ab98a02ba45b3ec>@@$$QEAV<lambda_237c231691f317818eb88cc1d5d642d6>@@@Z 0000000180045b60 f i libucrt:close.obj
 0001:00044bd4       _close                     0000000180045bd4 f   libucrt:close.obj
 0001:00044c78       _close_nolock              0000000180045c78 f   libucrt:close.obj
 0001:00044d34       __sys_errlist              0000000180045d34 f   libucrt:syserr.obj
 0001:00044d3c       __sys_nerr                 0000000180045d3c f   libucrt:syserr.obj
 0001:00044d44       strncpy_s                  0000000180045d44 f   libucrt:strncpy_s.obj
 0001:00044e18       __acrt_initialize_locks    0000000180045e18 f   libucrt:locks.obj
 0001:00044e60       __acrt_lock                0000000180045e60 f   libucrt:locks.obj
 0001:00044e7c       __acrt_uninitialize_locks  0000000180045e7c f   libucrt:locks.obj
 0001:00044eb4       __acrt_unlock              0000000180045eb4 f   libucrt:locks.obj
 0001:00044ed0       ??$?RV<lambda_b521505b218e5242e90febf6bfebc422>@@AEAV<lambda_6978c1fb23f02e42e1d9e99668cc68aa>@@V<lambda_314360699dd331753a4119843814e9a7>@@@?$__crt_seh_guarded_call@H@@QEAAH$$QEAV<lambda_b521505b218e5242e90febf6bfebc422>@@AEAV<lambda_6978c1fb23f02e42e1d9e99668cc68aa>@@$$QEAV<lambda_314360699dd331753a4119843814e9a7>@@@Z 0000000180045ed0 f i libucrt:commit.obj
 0001:00044f5c       _commit                    0000000180045f5c f   libucrt:commit.obj
 0001:00045590       _write                     0000000180046590 f   libucrt:write.obj
 0001:0004567c       _write_nolock              000000018004667c f   libucrt:write.obj
 0001:00045b70       __acrt_stdio_flush_and_write_narrow_nolock 0000000180046b70 f   libucrt:_flsbuf.obj
 0001:00045c58       __acrt_stdio_flush_and_write_wide_nolock 0000000180046c58 f   libucrt:_flsbuf.obj
 0001:00046220       ?expand_if_necessary@?$argument_list@D@?A0xca0879c4@@AEAAHXZ 0000000180047220 f i libucrt:argv_wildcards.obj
 0001:000462e8       __acrt_expand_narrow_argv_wildcards 00000001800472e8 f   libucrt:argv_wildcards.obj
 0001:000462f0       ??$?RV<lambda_99476a1ad63dd22509b5d3e65b0ffc95>@@AEAV<lambda_ad1ced32f4ac17aa236e5ef05d6b3b7c>@@V<lambda_f7424dd8d45958661754dc4f2697e9c3>@@@?$__crt_seh_guarded_call@X@@QEAAX$$QEAV<lambda_99476a1ad63dd22509b5d3e65b0ffc95>@@AEAV<lambda_ad1ced32f4ac17aa236e5ef05d6b3b7c>@@$$QEAV<lambda_f7424dd8d45958661754dc4f2697e9c3>@@@Z 00000001800472f0 f i libucrt:mbctype.obj
 0001:000469ec       __acrt_initialize_multibyte 00000001800479ec f   libucrt:mbctype.obj
 0001:00046a14       __acrt_update_thread_multibyte_data 0000000180047a14 f   libucrt:mbctype.obj
 0001:00046ad4       _setmbcp_nolock            0000000180047ad4 f   libucrt:mbctype.obj
 0001:00046df4       _ismbblead                 0000000180047df4 f   libucrt:ismbbyte.obj
 0001:00046e08       __acrt_initialize_command_line 0000000180047e08 f   libucrt:argv_data.obj
 0001:00046e30       __dcrt_get_narrow_environment_from_os 0000000180047e30 f   libucrt:get_environment_from_os.obj
 0001:00046f34       _recalloc                  0000000180047f34 f   libucrt:recalloc.obj
 0001:00046f3c       _recalloc_base             0000000180047f3c f   libucrt:recalloc.obj
 0001:00046fd4       __acrt_initialize_heap     0000000180047fd4 f   libucrt:heap_handle.obj
 0001:00046ff0       __acrt_uninitialize_heap   0000000180047ff0 f   libucrt:heap_handle.obj
 0001:00046ffc       __acrt_execute_initializers 0000000180047ffc f   libucrt:shared_initialization.obj
 0001:00047090       __acrt_execute_uninitializers 0000000180048090 f   libucrt:shared_initialization.obj
 0001:000470e0       __acrt_has_user_matherr    00000001800480e0 f   libucrt:matherr.obj
 0001:00047100       __acrt_initialize_user_matherr 0000000180048100 f   libucrt:matherr.obj
 0001:00047108       __acrt_invoke_user_matherr 0000000180048108 f   libucrt:matherr.obj
 0001:00047150       _query_new_mode            0000000180048150 f   libucrt:new_mode.obj
 0001:00047158       __pctype_func              0000000180048158 f   libucrt:ctype.obj
 0001:00047188       iswctype                   0000000180048188 f   libucrt:iswctype.obj
 0001:000471f8       _isctype_l                 00000001800481f8 f   libucrt:isctype.obj
 0001:00047308       __acrt_add_locale_ref      0000000180048308 f   libucrt:locale_refcounting.obj
 0001:00047394       __acrt_free_locale         0000000180048394 f   libucrt:locale_refcounting.obj
 0001:0004750c       __acrt_locale_add_lc_time_reference 000000018004850c f   libucrt:locale_refcounting.obj
 0001:00047534       __acrt_locale_free_lc_time_if_unreferenced 0000000180048534 f   libucrt:locale_refcounting.obj
 0001:0004756c       __acrt_locale_release_lc_time_reference 000000018004856c f   libucrt:locale_refcounting.obj
 0001:00047594       __acrt_release_locale_ref  0000000180048594 f   libucrt:locale_refcounting.obj
 0001:0004763c       __acrt_update_thread_locale_data 000000018004863c f   libucrt:locale_refcounting.obj
 0001:000476ac       _updatetlocinfoEx_nolock   00000001800486ac f   libucrt:locale_refcounting.obj
 0001:00047714       _isleadbyte_l              0000000180048714 f i libucrt:_wctype.obj
 0001:00047ab0       __acrt_LCMapStringA        0000000180048ab0 f   libucrt:lcmapstringa.obj
 0001:00047b48       __acrt_locale_free_monetary 0000000180048b48 f   libucrt:initmon.obj
 0001:00047c54       __acrt_locale_free_numeric 0000000180048c54 f   libucrt:initnum.obj
 0001:00047d18       __acrt_locale_free_time    0000000180048d18 f   libucrt:inittime.obj
 0001:00047e20       __acrt_GetStringTypeA      0000000180048e20 f   libucrt:getstringtypea.obj
 0001:00047fd4       __acrt_fp_strflt_to_string 0000000180048fd4 f   libucrt:_fptostr.obj
 0001:000480a0       ?divide@__crt_strtox@@YA_KAEAUbig_integer@1@AEBU21@@Z 00000001800490a0 f i libucrt:cfout.obj
 0001:00048570       __acrt_fltout              0000000180049570 f   libucrt:cfout.obj
 0001:00049964       _isatty                    000000018004a964 f   libucrt:isatty.obj
 0001:000499c4       __acrt_lowio_create_handle_array 000000018004a9c4 f   libucrt:osfinfo.obj
 0001:00049a5c       __acrt_lowio_destroy_handle_array 000000018004aa5c f   libucrt:osfinfo.obj
 0001:00049aac       __acrt_lowio_ensure_fh_exists 000000018004aaac f   libucrt:osfinfo.obj
 0001:00049b64       __acrt_lowio_lock_fh       000000018004ab64 f   libucrt:osfinfo.obj
 0001:00049b88       __acrt_lowio_set_os_handle 000000018004ab88 f   libucrt:osfinfo.obj
 0001:00049c48       __acrt_lowio_unlock_fh     000000018004ac48 f   libucrt:osfinfo.obj
 0001:00049c6c       _alloc_osfhnd              000000018004ac6c f   libucrt:osfinfo.obj
 0001:00049d9c       _free_osfhnd               000000018004ad9c f   libucrt:osfinfo.obj
 0001:00049e58       _get_osfhandle             000000018004ae58 f   libucrt:osfinfo.obj
 0001:00049f98       __acrt_DownlevelLocaleNameToLCID 000000018004af98 f   libucrt:lcidtoname_downlevel.obj
 0001:00049fe0       strncmp                    000000018004afe0 f   libucrt:strncmp.obj
 0001:0004a060       __ascii_strnicmp           000000018004b060 f   libucrt:strnicmp.obj
 0001:0004a0a8       _strnicmp                  000000018004b0a8 f   libucrt:strnicmp.obj
 0001:0004a0f8       _strnicmp_l                000000018004b0f8 f   libucrt:strnicmp.obj
 0001:0004a818       _sopen_nolock              000000018004b818 f   libucrt:open.obj
 0001:0004a8a8       _sopen_s                   000000018004b8a8 f   libucrt:open.obj
 0001:0004a8dc       _wsopen_nolock             000000018004b8dc f   libucrt:open.obj
 0001:0004ae58       _lseeki64                  000000018004be58 f   libucrt:lseek.obj
 0001:0004ae60       _lseeki64_nolock           000000018004be60 f   libucrt:lseek.obj
 0001:0004ae68       _putwch_nolock             000000018004be68 f   libucrt:putwch.obj
 0001:0004aec4       __acrt_stdio_allocate_buffer_nolock 000000018004bec4 f   libucrt:_getbuf.obj
 0001:0004b000       qsort                      000000018004c000 f   libucrt:qsort.obj
 0001:0004b334       strpbrk                    000000018004c334 f   libucrt:strpbrk.obj
 0001:0004b3d4       _mbsdec                    000000018004c3d4 f   libucrt:mbsdec.obj
 0001:0004b3dc       _mbsdec_l                  000000018004c3dc f   libucrt:mbsdec.obj
 0001:0004b48c       _msize                     000000018004c48c f   libucrt:msize.obj
 0001:0004b4c8       _realloc_base              000000018004c4c8 f   libucrt:realloc_base.obj
 0001:0004b54c       __strncnt                  000000018004c54c f   libucrt:strncnt.obj
 0001:0004b564       fegetenv                   000000018004c564 f   libucrt:fegetenv.obj
 0001:0004b584       fesetenv                   000000018004c584 f   libucrt:fesetenv.obj
 0001:0004b5d0       feholdexcept               000000018004c5d0 f   libucrt:feholdexcept.obj
 0001:0004b620       ceil                       000000018004c620 f   libucrt:ceil.obj
 0001:0004b6f0       log10                      000000018004c6f0 f   libucrt:log10.obj
 0001:0004bc9c       _get_fmode                 000000018004cc9c f   libucrt:setmode.obj
 0001:0004bccc       _setmode_nolock            000000018004cccc f   libucrt:setmode.obj
 0001:0004bdac       __acrt_copy_path_to_wide_string 000000018004cdac f   libucrt:string_utilities.obj
 0001:0004bea4       _chsize_nolock             000000018004cea4 f   libucrt:chsize.obj
 0001:0004c550       _read_nolock               000000018004d550 f   libucrt:read.obj
 0001:0004c9b8       __dcrt_lowio_initialize_console_output 000000018004d9b8 f   libucrt:initcon.obj
 0001:0004c9f4       __dcrt_terminate_console_output 000000018004d9f4 f   libucrt:initcon.obj
 0001:0004ca14       _getfpcontrolword          000000018004da14 f   libucrt:_fenvutils.obj
 0001:0004ca2c       _getfpstatusword           000000018004da2c f   libucrt:_fenvutils.obj
 0001:0004ca40       _setfpcontrolword          000000018004da40 f   libucrt:_fenvutils.obj
 0001:0004ca4c       _setfpstatusword           000000018004da4c f   libucrt:_fenvutils.obj
 0001:0004ca9c       _clearfp                   000000018004da9c f   libucrt:ieee.obj
 0001:0004caf0       _controlfp                 000000018004daf0 f   libucrt:ieee.obj
 0001:0004cafc       _statusfp                  000000018004dafc f   libucrt:ieee.obj
 0001:0004cf00       _handle_error              000000018004df00 f   libucrt:libm_error.obj
 0001:0004d028       _handle_nan                000000018004e028 f   libucrt:libm_error.obj
 0001:0004d050       __acrt_initialize_fma3     000000018004e050 f   libucrt:fma3_available.obj
 0001:0004d0c0       _log10_special             000000018004e0c0 f   libucrt:log_special.obj
 0001:0004d190       _get_fpsr                  000000018004e190 f   libucrt:fpsr.obj
 0001:0004d1a0       _set_fpsr                  000000018004e1a0 f   libucrt:fpsr.obj
 0001:0004d1aa       _fclrf                     000000018004e1aa f   libucrt:fpsr.obj
 0001:0004d1be       _frnd                      000000018004e1be f   libucrt:fpsr.obj
 0001:0004d1e0       _raise_exc                 000000018004e1e0 f   libucrt:fpexcept.obj
 0001:0004d208       _raise_exc_ex              000000018004e208 f   libucrt:fpexcept.obj
 0001:0004d510       _set_errno_from_matherr    000000018004e510 f   libucrt:fpexcept.obj
 0001:0004d540       _clrfp                     000000018004e540 f   libucrt:fpctrl.obj
 0001:0004d560       _ctrlfp                    000000018004e560 f   libucrt:fpctrl.obj
 0001:0004d5dc       _set_statfp                000000018004e5dc f   libucrt:fpctrl.obj
 0001:0004d5fc       _statfp                    000000018004e5fc f   libucrt:fpctrl.obj
 0001:0004d60e       IsProcessorFeaturePresent  000000018004e60e f   kernel32:KERNEL32.dll
 0001:0004d614       RtlUnwindEx                000000018004e614 f   kernel32:KERNEL32.dll
 0001:0004d61c       ?DloadAcquireSectionWriteAccess@@YAXXZ 000000018004e61c f i DelayImp:delayhlp.obj
 0001:0004d6d8       ?DloadGetSRWLockFunctionPointers@@YAEXZ 000000018004e6d8 f i DelayImp:delayhlp.obj
 0001:0004d774       ?DloadMakePermanentImageCommit@@YAXPEAX_K@Z 000000018004e774 f i DelayImp:delayhlp.obj
 0001:0004d80c       ?DloadObtainSection@@YAPEAXPEAK0@Z 000000018004e80c f i DelayImp:delayhlp.obj
 0001:0004d8a4       ?DloadProtectSection@@YAXKPEAK@Z 000000018004e8a4 f i DelayImp:delayhlp.obj
 0001:0004d934       ?DloadReleaseSectionWriteAccess@@YAXXZ 000000018004e934 f i DelayImp:delayhlp.obj
 0001:0004d9d8       __delayLoadHelper2         000000018004e9d8 f   DelayImp:delayhlp.obj
 0001:0004dcd1       __imp_load_uv_cond_signal  000000018004ecd1 f   node:node.exe
 0001:0004dcdd       __imp_load_uv_cond_destroy 000000018004ecdd f   node:node.exe
 0001:0004dce9       __imp_load_uv_mutex_unlock 000000018004ece9 f   node:node.exe
 0001:0004dcf5       __imp_load_uv_cond_init    000000018004ecf5 f   node:node.exe
 0001:0004dd01       __imp_load_uv_once         000000018004ed01 f   node:node.exe
 0001:0004dd0d       __imp_load_uv_mutex_lock   000000018004ed0d f   node:node.exe
 0001:0004dd19       __imp_load_uv_cond_wait    000000018004ed19 f   node:node.exe
 0001:0004dd25       __imp_load_uv_mutex_destroy 000000018004ed25 f   node:node.exe
 0001:0004dd31       __imp_load_uv_cond_broadcast 000000018004ed31 f   node:node.exe
 0001:0004dd3d       __imp_load_uv_mutex_init   000000018004ed3d f   node:node.exe
 0001:0004dd50       _FindPESection             000000018004ed50 f   LIBCMT:pesect.obj
 0001:0004dda0       _IsNonwritableInCurrentImage 000000018004eda0 f   LIBCMT:pesect.obj
 0001:0004ddf0       _ValidateImageBase         000000018004edf0 f   LIBCMT:pesect.obj
 0001:0004de20       __GSHandlerCheck           000000018004ee20 f   LIBCMT:_gshandler_.obj
 0001:0004de40       __GSHandlerCheckCommon     000000018004ee40 f   LIBCMT:_gshandler_.obj
 0001:0004deb0       __chkstk                   000000018004eeb0 f   LIBCMT:_chkstk_.obj
 0001:0004deb0       _alloca_probe              000000018004eeb0 f   LIBCMT:_chkstk_.obj
 0001:0004df20       memcmp                     000000018004ef20 f   libvcruntime:memcmp.obj
 0001:0004dfe8       __GSHandlerCheck_EH        000000018004efe8 f   LIBCMT:gshandlereh.obj
 0001:0004e068       ?_ExecutionInCatch@@YAHPEAU_xDISPATCHER_CONTEXT@@PEBU_s_FuncInfo@@@Z 000000018004f068 f   libvcruntime:trnsctrl.obj
 0001:0004e0dc       ?_GetEstablisherFrame@@YAPEA_KPEA_KPEAU_xDISPATCHER_CONTEXT@@PEBU_s_FuncInfo@@0@Z 000000018004f0dc f   libvcruntime:trnsctrl.obj
 0001:0004e1a8       ?_GetRangeOfTrysToCheck@@YAPEBU_s_TryBlockMapEntry@@PEA_KPEBU_s_FuncInfo@@HHPEAI2PEAU_xDISPATCHER_CONTEXT@@@Z 000000018004f1a8 f   libvcruntime:trnsctrl.obj
 0001:0004e2d4       ?__FrameUnwindToEmptyState@@YAXPEA_KPEAU_xDISPATCHER_CONTEXT@@PEBU_s_FuncInfo@@@Z 000000018004f2d4 f   libvcruntime:trnsctrl.obj
 0001:0004e368       ?__SehTransFilter@@YAHPEAU_EXCEPTION_POINTERS@@PEAUEHExceptionRecord@@PEA_KPEAU_CONTEXT@@PEAU_xDISPATCHER_CONTEXT@@PEBU_s_FuncInfo@@PEAH@Z 000000018004f368 f   libvcruntime:trnsctrl.obj
 0001:0004e400       _CallSETranslator          000000018004f400 f   libvcruntime:trnsctrl.obj
 0001:0004e458       _CreateFrameInfo           000000018004f458 f   libvcruntime:trnsctrl.obj
 0001:0004e494       _FindAndUnlinkFrame        000000018004f494 f   libvcruntime:trnsctrl.obj
 0001:0004e4ec       _GetImageBase              000000018004f4ec f   libvcruntime:trnsctrl.obj
 0001:0004e500       _GetThrowImageBase         000000018004f500 f   libvcruntime:trnsctrl.obj
 0001:0004e514       _IsExceptionObjectToBeDestroyed 000000018004f514 f   libvcruntime:trnsctrl.obj
 0001:0004e544       _SetImageBase              000000018004f544 f   libvcruntime:trnsctrl.obj
 0001:0004e55c       _SetThrowImageBase         000000018004f55c f   libvcruntime:trnsctrl.obj
 0001:0004e574       _UnwindNestedFrames        000000018004f574 f   libvcruntime:trnsctrl.obj
 0001:0004e698       __CxxFrameHandler3         000000018004f698 f   libvcruntime:trnsctrl.obj
 0001:0004e718       ?__GetCurrentState@@YAHPEA_KPEAU_xDISPATCHER_CONTEXT@@PEBU_s_FuncInfo@@@Z 000000018004f718 f   libvcruntime:ehstate.obj
 0001:0004e740       ?__GetUnwindTryBlock@@YAHPEA_KPEAU_xDISPATCHER_CONTEXT@@PEBU_s_FuncInfo@@@Z 000000018004f740 f   libvcruntime:ehstate.obj
 0001:0004e76c       ?__SetState@@YAXPEA_KPEAU_xDISPATCHER_CONTEXT@@PEBU_s_FuncInfo@@H@Z 000000018004f76c f   libvcruntime:ehstate.obj
 0001:0004e778       ?__SetUnwindTryBlock@@YAXPEA_KPEAU_xDISPATCHER_CONTEXT@@PEBU_s_FuncInfo@@H@Z 000000018004f778 f   libvcruntime:ehstate.obj
 0001:0004e7b4       ?__StateFromControlPc@@YAHPEBU_s_FuncInfo@@PEAU_xDISPATCHER_CONTEXT@@@Z 000000018004f7b4 f   libvcruntime:ehstate.obj
 0001:0004e7bc       ?__StateFromIp@@YAHPEBU_s_FuncInfo@@PEAU_xDISPATCHER_CONTEXT@@_J@Z 000000018004f7bc f   libvcruntime:ehstate.obj
 0001:0004e828       __DestructExceptionObject  000000018004f828 f   libvcruntime:frame.obj
 0001:0004e8b0       ??0bad_exception@std@@QEAA@AEBV01@@Z 000000018004f8b0 f i libvcruntime:frame.obj
 0001:0004e8f0       ??0bad_exception@std@@QEAA@XZ 000000018004f8f0 f i libvcruntime:frame.obj
 0001:0004f26c       ?_CallMemberFunction0@@YAXPEAXP6AX0@Z@Z 000000018005026c f i libvcruntime:frame.obj
 0001:0004f270       ?_CallMemberFunction1@@YAXPEAXP6AX0@Z0@Z 0000000180050270 f i libvcruntime:frame.obj
 0001:0004f27c       ?_CallMemberFunction2@@YAXPEAXP6AX0@Z0H@Z 000000018005027c f i libvcruntime:frame.obj
 0001:0004f28c       __AdjustPointer            000000018005028c f   libvcruntime:frame.obj
 0001:0004f2b0       __BuildCatchObject         00000001800502b0 f   libvcruntime:frame.obj
 0001:0004f374       __BuildCatchObjectHelper   0000000180050374 f   libvcruntime:frame.obj
 0001:0004f554       __CxxCallCatchBlock        0000000180050554 f   libvcruntime:frame.obj
 0001:0004f740       __FrameUnwindFilter        0000000180050740 f   libvcruntime:frame.obj
 0001:0004f78c       __FrameUnwindToState       000000018005078c f   libvcruntime:frame.obj
 0001:0004f920       __InternalCxxFrameHandler  0000000180050920 f   libvcruntime:frame.obj
 0001:0004fb78       __TypeMatch                0000000180050b78 f   libvcruntime:frame.obj
 0001:0004fcd0       _CallSettingFrame          0000000180050cd0 f   libvcruntime:handlers.obj
 0001:0004fd20       _guard_dispatch_icall_nop  0000000180050d20 f   LIBCMT:_guard_dispatch_.obj
 0002:00000000       __imp_GetModuleHandleA     0000000180058000     kernel32:KERNEL32.dll
 0002:00000008       __imp_CreateDirectoryW     0000000180058008     kernel32:KERNEL32.dll
 0002:00000010       __imp_ReadFile             0000000180058010     kernel32:KERNEL32.dll
 0002:00000018       __imp_FindFirstFileW       0000000180058018     kernel32:KERNEL32.dll
 0002:00000020       __imp_GetFileSizeEx        0000000180058020     kernel32:KERNEL32.dll
 0002:00000028       __imp_FindNextFileW        0000000180058028     kernel32:KERNEL32.dll
 0002:00000030       __imp_WriteFile            0000000180058030     kernel32:KERNEL32.dll
 0002:00000038       __imp_RemoveDirectoryW     0000000180058038     kernel32:KERNEL32.dll
 0002:00000040       __imp_GetTempPathW         0000000180058040     kernel32:KERNEL32.dll
 0002:00000048       __imp_FindClose            0000000180058048     kernel32:KERNEL32.dll
 0002:00000050       __imp_CreateFileW          0000000180058050     kernel32:KERNEL32.dll
 0002:00000058       __imp_MultiByteToWideChar  0000000180058058     kernel32:KERNEL32.dll
 0002:00000060       __imp_Sleep                0000000180058060     kernel32:KERNEL32.dll
 0002:00000068       __imp_GetLastError         0000000180058068     kernel32:KERNEL32.dll
 0002:00000070       __imp_GetFileAttributesExW 0000000180058070     kernel32:KERNEL32.dll
 0002:00000078       __imp_QueryPerformanceFrequency 0000000180058078     kernel32:KERNEL32.dll
 0002:00000080       __imp_DeleteFileW          0000000180058080     kernel32:KERNEL32.dll
 0002:00000088       __imp_CloseHandle          0000000180058088     kernel32:KERNEL32.dll
 0002:00000090       __imp_SetFilePointerEx     0000000180058090     kernel32:KERNEL32.dll
 0002:00000098       __imp_LocalFree            0000000180058098     kernel32:KERNEL32.dll
 0002:000000a0       __imp_MoveFileExW          00000001800580a0     kernel32:KERNEL32.dll
 0002:000000a8       __imp_WideCharToMultiByte  00000001800580a8     kernel32:KERNEL32.dll
 0002:000000b0       __imp_FormatMessageA       00000001800580b0     kernel32:KERNEL32.dll
 0002:000000b8       __imp_QueryPerformanceCounter 00000001800580b8     kernel32:KERNEL32.dll
 0002:000000c0       __imp_FlushFileBuffers     00000001800580c0     kernel32:KERNEL32.dll
 0002:000000c8       __imp_GetCurrentThreadId   00000001800580c8     kernel32:KERNEL32.dll
 0002:000000d0       __imp_GetLocalTime         00000001800580d0     kernel32:KERNEL32.dll
 0002:000000d8       __imp_EnterCriticalSection 00000001800580d8     kernel32:KERNEL32.dll
 0002:000000e0       __imp_LeaveCriticalSection 00000001800580e0     kernel32:KERNEL32.dll
 0002:000000e8       __imp_DeleteCriticalSection 00000001800580e8     kernel32:KERNEL32.dll
 0002:000000f0       __imp_SetEvent             00000001800580f0     kernel32:KERNEL32.dll
 0002:000000f8       __imp_ResetEvent           00000001800580f8     kernel32:KERNEL32.dll
 0002:00000100       __imp_WaitForSingleObjectEx 0000000180058100     kernel32:KERNEL32.dll
 0002:00000108       __imp_CreateEventW         0000000180058108     kernel32:KERNEL32.dll
 0002:00000110       __imp_GetModuleHandleW     0000000180058110     kernel32:KERNEL32.dll
 0002:00000118       __imp_GetProcAddress       0000000180058118     kernel32:KERNEL32.dll
 0002:00000120       __imp_RtlCaptureContext    0000000180058120     kernel32:KERNEL32.dll
 0002:00000128       __imp_RtlLookupFunctionEntry 0000000180058128     kernel32:KERNEL32.dll
 0002:00000130       __imp_RtlVirtualUnwind     0000000180058130     kernel32:KERNEL32.dll
 0002:00000138       __imp_UnhandledExceptionFilter 0000000180058138     kernel32:KERNEL32.dll
 0002:00000140       __imp_SetUnhandledExceptionFilter 0000000180058140     kernel32:KERNEL32.dll
 0002:00000148       __imp_GetCurrentProcess    0000000180058148     kernel32:KERNEL32.dll
 0002:00000150       __imp_TerminateProcess     0000000180058150     kernel32:KERNEL32.dll
 0002:00000158       __imp_IsProcessorFeaturePresent 0000000180058158     kernel32:KERNEL32.dll
 0002:00000160       __imp_IsDebuggerPresent    0000000180058160     kernel32:KERNEL32.dll
 0002:00000168       __imp_GetStartupInfoW      0000000180058168     kernel32:KERNEL32.dll
 0002:00000170       __imp_GetCurrentProcessId  0000000180058170     kernel32:KERNEL32.dll
 0002:00000178       __imp_GetSystemTimeAsFileTime 0000000180058178     kernel32:KERNEL32.dll
 0002:00000180       __imp_InitializeSListHead  0000000180058180     kernel32:KERNEL32.dll
 0002:00000188       __imp_RtlPcToFileHeader    0000000180058188     kernel32:KERNEL32.dll
 0002:00000190       __imp_RaiseException       0000000180058190     kernel32:KERNEL32.dll
 0002:00000198       __imp_RtlUnwindEx          0000000180058198     kernel32:KERNEL32.dll
 0002:000001a0       __imp_InitializeCriticalSectionAndSpinCount 00000001800581a0     kernel32:KERNEL32.dll
 0002:000001a8       __imp_TlsAlloc             00000001800581a8     kernel32:KERNEL32.dll
 0002:000001b0       __imp_TlsGetValue          00000001800581b0     kernel32:KERNEL32.dll
 0002:000001b8       __imp_TlsSetValue          00000001800581b8     kernel32:KERNEL32.dll
 0002:000001c0       __imp_TlsFree              00000001800581c0     kernel32:KERNEL32.dll
 0002:000001c8       __imp_FreeLibrary          00000001800581c8     kernel32:KERNEL32.dll
 0002:000001d0       __imp_LoadLibraryExW       00000001800581d0     kernel32:KERNEL32.dll
 0002:000001d8       __imp_InterlockedFlushSList 00000001800581d8     kernel32:KERNEL32.dll
 0002:000001e0       __imp_SetLastError         00000001800581e0     kernel32:KERNEL32.dll
 0002:000001e8       __imp_GetStdHandle         00000001800581e8     kernel32:KERNEL32.dll
 0002:000001f0       __imp_GetFileType          00000001800581f0     kernel32:KERNEL32.dll
 0002:000001f8       __imp_GetModuleFileNameA   00000001800581f8     kernel32:KERNEL32.dll
 0002:00000200       __imp_GetModuleFileNameW   0000000180058200     kernel32:KERNEL32.dll
 0002:00000208       __imp_GetModuleHandleExW   0000000180058208     kernel32:KERNEL32.dll
 0002:00000210       __imp_WriteConsoleW        0000000180058210     kernel32:KERNEL32.dll
 0002:00000218       __imp_CreateThread         0000000180058218     kernel32:KERNEL32.dll
 0002:00000220       __imp_ExitThread           0000000180058220     kernel32:KERNEL32.dll
 0002:00000228       __imp_FreeLibraryAndExitThread 0000000180058228     kernel32:KERNEL32.dll
 0002:00000230       __imp_ExitProcess          0000000180058230     kernel32:KERNEL32.dll
 0002:00000238       __imp_HeapFree             0000000180058238     kernel32:KERNEL32.dll
 0002:00000240       __imp_HeapAlloc            0000000180058240     kernel32:KERNEL32.dll
 0002:00000248       __imp_OutputDebugStringW   0000000180058248     kernel32:KERNEL32.dll
 0002:00000250       __imp_GetACP               0000000180058250     kernel32:KERNEL32.dll
 0002:00000258       __imp_LCMapStringW         0000000180058258     kernel32:KERNEL32.dll
 0002:00000260       __imp_GetConsoleCP         0000000180058260     kernel32:KERNEL32.dll
 0002:00000268       __imp_GetConsoleMode       0000000180058268     kernel32:KERNEL32.dll
 0002:00000270       __imp_FindFirstFileExA     0000000180058270     kernel32:KERNEL32.dll
 0002:00000278       __imp_FindNextFileA        0000000180058278     kernel32:KERNEL32.dll
 0002:00000280       __imp_IsValidCodePage      0000000180058280     kernel32:KERNEL32.dll
 0002:00000288       __imp_GetOEMCP             0000000180058288     kernel32:KERNEL32.dll
 0002:00000290       __imp_GetCPInfo            0000000180058290     kernel32:KERNEL32.dll
 0002:00000298       __imp_GetCommandLineA      0000000180058298     kernel32:KERNEL32.dll
 0002:000002a0       __imp_GetCommandLineW      00000001800582a0     kernel32:KERNEL32.dll
 0002:000002a8       __imp_GetEnvironmentStringsW 00000001800582a8     kernel32:KERNEL32.dll
 0002:000002b0       __imp_FreeEnvironmentStringsW 00000001800582b0     kernel32:KERNEL32.dll
 0002:000002b8       __imp_GetProcessHeap       00000001800582b8     kernel32:KERNEL32.dll
 0002:000002c0       __imp_GetStringTypeW       00000001800582c0     kernel32:KERNEL32.dll
 0002:000002c8       __imp_SetStdHandle         00000001800582c8     kernel32:KERNEL32.dll
 0002:000002d0       __imp_HeapSize             00000001800582d0     kernel32:KERNEL32.dll
 0002:000002d8       __imp_HeapReAlloc          00000001800582d8     kernel32:KERNEL32.dll
 0002:000002e0       __imp_SetEndOfFile         00000001800582e0     kernel32:KERNEL32.dll
 0002:000002e8       __imp_ReadConsoleW         00000001800582e8     kernel32:KERNEL32.dll
 0002:000002f0       __imp_GetSystemInfo        00000001800582f0     kernel32:KERNEL32.dll
 0002:000002f8       __imp_VirtualProtect       00000001800582f8     kernel32:KERNEL32.dll
 0002:00000300       __imp_VirtualQuery         0000000180058300     kernel32:KERNEL32.dll
 0002:00000308       __imp_LoadLibraryExA       0000000180058308     kernel32:KERNEL32.dll
 0002:00000310       __imp_EncodePointer        0000000180058310     kernel32:KERNEL32.dll
 0002:00000318       \177KERNEL32_NULL_THUNK_DATA 0000000180058318     kernel32:KERNEL32.dll
 0002:00000320       __guard_check_icall_fptr   0000000180058320     LIBCMT:guard_support.obj
 0002:00000328       __guard_dispatch_icall_fptr 0000000180058328     LIBCMT:guard_support.obj
 0002:00000330       __xc_a                     0000000180058330     LIBCMT:initializers.obj
 0002:00000338       _register_leveldown_       0000000180058338     leveldown.obj
 0002:00000360       __xc_z                     0000000180058360     LIBCMT:initializers.obj
 0002:00000368       __xi_a                     0000000180058368     LIBCMT:initializers.obj
 0002:00000378       __acrt_stdio_initializer   0000000180058378     libucrt:stdio_initializer.obj
 0002:00000380       __acrt_multibyte_initializer 0000000180058380     libucrt:multibyte_initializer.obj
 0002:00000388       __acrt_tran_fma3_initializer 0000000180058388     libucrt:fma3_initializer.obj
 0002:00000390       __xi_z                     0000000180058390     LIBCMT:initializers.obj
 0002:00000398       __xl_a                     0000000180058398     LIBCMT:tlssup.obj
 0002:000003a0       __xl_z                     00000001800583a0     LIBCMT:tlssup.obj
 0002:000003a8       __xp_a                     00000001800583a8     LIBCMT:initializers.obj
 0002:000003b0       __acrt_locale_terminator   00000001800583b0     libucrt:locale_initializer.obj
 0002:000003b8       __dcrt_console_output_terminator 00000001800583b8     libucrt:console_output_initializer.obj
 0002:000003c0       __acrt_stdio_terminator    00000001800583c0     libucrt:stdio_initializer.obj
 0002:000003c8       __xp_z                     00000001800583c8     LIBCMT:initializers.obj
 0002:000003d0       __xt_a                     00000001800583d0     LIBCMT:initializers.obj
 0002:000003d8       __xt_z                     00000001800583d8     LIBCMT:initializers.obj
 0002:000003e0       __sz_node_exe              00000001800583e0     node:node.exe
 0002:000003f8       ??_7exception@std@@6B@     00000001800583f8     libcpmt:xthrow.obj
 0002:00000408       ??_C@_0BC@EOODALEL@Unknown?5exception?$AA@ 0000000180058408     libcpmt:xthrow.obj
 0002:00000428       ??_7bad_alloc@std@@6B@     0000000180058428     libcpmt:xthrow.obj
 0002:00000438       ??_C@_0P@GHFPNOJB@bad?5allocation?$AA@ 0000000180058438     libcpmt:xthrow.obj
 0002:00000450       ??_7logic_error@std@@6B@   0000000180058450     libcpmt:xthrow.obj
 0002:00000468       ??_7length_error@std@@6B@  0000000180058468     libcpmt:xthrow.obj
 0002:00000480       ??_7out_of_range@std@@6B@  0000000180058480     libcpmt:xthrow.obj
 0002:00000490       _pDefaultRawDllMain        0000000180058490     LIBCMT:dll_dllmain.obj
 0002:00000490       _pRawDllMain               0000000180058490     LIBCMT:dll_dllmain.obj
 0002:00000498       ??_C@_1BK@MGMFAEKH@?$AAk?$AAe?$AAr?$AAn?$AAe?$AAl?$AA3?$AA2?$AA?4?$AAd?$AAl?$AAl?$AA?$AA@ 0000000180058498     LIBCMT:thread_safe_statics.obj
 0002:000004b8       ??_C@_0BM@HLJJNPAH@InitializeConditionVariable?$AA@ 00000001800584b8     LIBCMT:thread_safe_statics.obj
 0002:000004d8       ??_C@_0BJ@JEBJOJFJ@SleepConditionVariableCS?$AA@ 00000001800584d8     LIBCMT:thread_safe_statics.obj
 0002:000004f8       ??_C@_0BJ@PGPPEPCC@WakeAllConditionVariable?$AA@ 00000001800584f8     LIBCMT:thread_safe_statics.obj
 0002:00000520       ??_7type_info@@6B@         0000000180058520     LIBCMT:std_type_info_static.obj
 0002:00000540       ??_7bad_array_new_length@std@@6B@ 0000000180058540     LIBCMT:throw_bad_alloc.obj
 0002:00000550       ??_C@_0BF@KINCDENJ@bad?5array?5new?5length?$AA@ 0000000180058550     LIBCMT:throw_bad_alloc.obj
 0002:000005d0       ??_C@_1BC@DNHGCMLG@?$AAa?$AAd?$AAv?$AAa?$AAp?$AAi?$AA3?$AA2?$AA?$AA@ 00000001800585d0     libvcruntime:winapi_downlevel.obj
 0002:000005e8       ??_C@_1DM@KHCHBNEB@?$AAa?$AAp?$AAi?$AA?9?$AAm?$AAs?$AA?9?$AAw?$AAi?$AAn?$AA?9?$AAc?$AAo?$AAr?$AAe?$AA?9?$AAf?$AAi?$AAb?$AAe?$AAr?$AAs?$AA?9?$AAl?$AA1?$AA?9?$AA1?$AA?9?$AA1?$AA?$AA@ 00000001800585e8     libvcruntime:winapi_downlevel.obj
 0002:00000628       ??_C@_1DK@LPPGFMPP@?$AAa?$AAp?$AAi?$AA?9?$AAm?$AAs?$AA?9?$AAw?$AAi?$AAn?$AA?9?$AAc?$AAo?$AAr?$AAe?$AA?9?$AAs?$AAy?$AAn?$AAc?$AAh?$AA?9?$AAl?$AA1?$AA?9?$AA2?$AA?9?$AA0?$AA?$AA@ 0000000180058628     libvcruntime:winapi_downlevel.obj
 0002:00000668       ??_C@_1BC@GDMECMAK@?$AAk?$AAe?$AAr?$AAn?$AAe?$AAl?$AA3?$AA2?$AA?$AA@ 0000000180058668     libvcruntime:winapi_downlevel.obj
 0002:00000688       ??_C@_08KNHFBNJ@FlsAlloc?$AA@ 0000000180058688     libvcruntime:winapi_downlevel.obj
 0002:000006a0       ??_C@_07PEJMOBNF@FlsFree?$AA@ 00000001800586a0     libvcruntime:winapi_downlevel.obj
 0002:000006b0       ??_C@_0M@GDNOONDI@FlsGetValue?$AA@ 00000001800586b0     libvcruntime:winapi_downlevel.obj
 0002:000006c8       ??_C@_0M@JCPCPOEF@FlsSetValue?$AA@ 00000001800586c8     libvcruntime:winapi_downlevel.obj
 0002:000006e0       ??_C@_0BM@HCFOFFN@InitializeCriticalSectionEx?$AA@ 00000001800586e0     libvcruntime:winapi_downlevel.obj
 0002:00000a20       ??_C@_08EHJDFFNH@__based?$CI?$AA@ 0000000180058a20     libvcruntime:undname.obj
 0002:00000a30       ??_C@_07KOLFKCDI@__cdecl?$AA@ 0000000180058a30     libvcruntime:undname.obj
 0002:00000a38       ??_C@_08GHMPAG@__pascal?$AA@ 0000000180058a38     libvcruntime:undname.obj
 0002:00000a48       ??_C@_09IFJBGAPI@__stdcall?$AA@ 0000000180058a48     libvcruntime:undname.obj
 0002:00000a58       ??_C@_0L@NPHFGOKO@__thiscall?$AA@ 0000000180058a58     libvcruntime:undname.obj
 0002:00000a68       ??_C@_0L@JMKHOMEK@__fastcall?$AA@ 0000000180058a68     libvcruntime:undname.obj
 0002:00000a78       ??_C@_0N@BCKKPABJ@__vectorcall?$AA@ 0000000180058a78     libvcruntime:undname.obj
 0002:00000a88       ??_C@_09HIJEGCPM@__clrcall?$AA@ 0000000180058a88     libvcruntime:undname.obj
 0002:00000a94       ??_C@_06GHPCKEAG@__eabi?$AA@ 0000000180058a94     libvcruntime:undname.obj
 0002:00000aa0       ??_C@_07JOMMBBKO@__ptr64?$AA@ 0000000180058aa0     libvcruntime:undname.obj
 0002:00000aa8       ??_C@_0L@PILCLIHE@__restrict?$AA@ 0000000180058aa8     libvcruntime:undname.obj
 0002:00000ab8       ??_C@_0M@GFIIJFMG@__unaligned?$AA@ 0000000180058ab8     libvcruntime:undname.obj
 0002:00000ac8       ??_C@_09DHDLOLLB@restrict?$CI?$AA@ 0000000180058ac8     libvcruntime:undname.obj
 0002:00000ad4       ??_C@_04NIHEBCM@?5new?$AA@ 0000000180058ad4     libvcruntime:undname.obj
 0002:00000ae0       ??_C@_07FPCDHGMM@?5delete?$AA@ 0000000180058ae0     libvcruntime:undname.obj
 0002:00000ae8       ??_C@_01NEMOKFLO@?$DN?$AA@ 0000000180058ae8     libvcruntime:undname.obj
 0002:00000aec       ??_C@_02GPIOPFAK@?$DO?$DO?$AA@ 0000000180058aec     libvcruntime:undname.obj
 0002:00000af0       ??_C@_02FODMEDOG@?$DM?$DM?$AA@ 0000000180058af0     libvcruntime:undname.obj
 0002:00000af4       ??_C@_01DCLJPIOD@?$CB?$AA@ 0000000180058af4     libvcruntime:undname.obj
 0002:00000af8       ??_C@_02EGOFBIJA@?$DN?$DN?$AA@ 0000000180058af8     libvcruntime:undname.obj
 0002:00000afc       ??_C@_02FDNJECIE@?$CB?$DN?$AA@ 0000000180058afc     libvcruntime:undname.obj
 0002:00000b00       ??_C@_02GPECMEKF@?$FL?$FN?$AA@ 0000000180058b00     libvcruntime:undname.obj
 0002:00000b08       ??_C@_08LHJFAFGD@operator?$AA@ 0000000180058b08     libvcruntime:undname.obj
 0002:00000b14       ??_C@_02HBOOOICD@?9?$DO?$AA@ 0000000180058b14     libvcruntime:undname.obj
 0002:00000b18       ??_C@_01NBENCBCI@?$CK?$AA@ 0000000180058b18     libvcruntime:undname.obj
 0002:00000b1c       ??_C@_02ECNGHCIF@?$CL?$CL?$AA@ 0000000180058b1c     libvcruntime:undname.obj
 0002:00000b20       ??_C@_02BAABKJLB@?9?9?$AA@ 0000000180058b20     libvcruntime:undname.obj
 0002:00000b24       ??_C@_01JOAMLHOP@?9?$AA@   0000000180058b24     libvcruntime:undname.obj
 0002:00000b28       ??_C@_01MIFGBAGJ@?$CL?$AA@ 0000000180058b28     libvcruntime:undname.obj
 0002:00000b2c       ??_C@_01HNPIGOCE@?$CG?$AA@ 0000000180058b2c     libvcruntime:undname.obj
 0002:00000b30       ??_C@_03MNHNFDLC@?9?$DO?$CK?$AA@ 0000000180058b30     libvcruntime:undname.obj
 0002:00000b34       ??_C@_01FGNFDNOH@?$CF?$AA@ 0000000180058b34     libvcruntime:undname.obj
 0002:00000b38       ??_C@_01MNNFJEPP@?$DM?$AA@ 0000000180058b38     libvcruntime:undname.obj
 0002:00000b3c       ??_C@_02EHCHHCKH@?$DM?$DN?$AA@ 0000000180058b3c     libvcruntime:undname.obj
 0002:00000b40       ??_C@_01PPODPGHN@?$DO?$AA@ 0000000180058b40     libvcruntime:undname.obj
 0002:00000b44       ??_C@_02EEKDKGMJ@?$DO?$DN?$AA@ 0000000180058b44     libvcruntime:undname.obj
 0002:00000b48       ??_C@_01IHBHIGKO@?0?$AA@   0000000180058b48     libvcruntime:undname.obj
 0002:00000b4c       ??_C@_02HCKGKOFO@?$CI?$CJ?$AA@ 0000000180058b4c     libvcruntime:undname.obj
 0002:00000b50       ??_C@_01PJKLJHI@?$HO?$AA@  0000000180058b50     libvcruntime:undname.obj
 0002:00000b54       ??_C@_01JKBOJNNK@?$FO?$AA@ 0000000180058b54     libvcruntime:undname.obj
 0002:00000b58       ??_C@_01DNKMNLPK@?$HM?$AA@ 0000000180058b58     libvcruntime:undname.obj
 0002:00000b5c       ??_C@_02PPKAJPJL@?$CG?$CG?$AA@ 0000000180058b5c     libvcruntime:undname.obj
 0002:00000b60       ??_C@_02NONPIBCD@?$HM?$HM?$AA@ 0000000180058b60     libvcruntime:undname.obj
 0002:00000b64       ??_C@_02FPIMKNGF@?$CK?$DN?$AA@ 0000000180058b64     libvcruntime:undname.obj
 0002:00000b68       ??_C@_02FOEOMHFC@?$CL?$DN?$AA@ 0000000180058b68     libvcruntime:undname.obj
 0002:00000b6c       ??_C@_02FKMDLLOA@?9?$DN?$AA@ 0000000180058b6c     libvcruntime:undname.obj
 0002:00000b70       ??_C@_02FJEHGPIO@?1?$DN?$AA@ 0000000180058b70     libvcruntime:undname.obj
 0002:00000b74       ??_C@_02FENAOKFI@?$CF?$DN?$AA@ 0000000180058b74     libvcruntime:undname.obj
 0002:00000b78       ??_C@_03IKFCCPFF@?$DO?$DO?$DN?$AA@ 0000000180058b78     libvcruntime:undname.obj
 0002:00000b7c       ??_C@_03CDNPDDLA@?$DM?$DM?$DN?$AA@ 0000000180058b7c     libvcruntime:undname.obj
 0002:00000b80       ??_C@_02FGJGFEAB@?$CG?$DN?$AA@ 0000000180058b80     libvcruntime:undname.obj
 0002:00000b84       ??_C@_02DHLNPPGH@?$HM?$DN?$AA@ 0000000180058b84     libvcruntime:undname.obj
 0002:00000b88       ??_C@_02MHEGNOJ@?$FO?$DN?$AA@ 0000000180058b88     libvcruntime:undname.obj
 0002:00000b90       ??_C@_09IFPLHPGF@?$GAvftable?8?$AA@ 0000000180058b90     libvcruntime:undname.obj
 0002:00000ba0       ??_C@_09BLBHBJP@?$GAvbtable?8?$AA@ 0000000180058ba0     libvcruntime:undname.obj
 0002:00000bb0       ??_C@_07FEEIOKP@?$GAvcall?8?$AA@ 0000000180058bb0     libvcruntime:undname.obj
 0002:00000bb8       ??_C@_08LLFFHHDJ@?$GAtypeof?8?$AA@ 0000000180058bb8     libvcruntime:undname.obj
 0002:00000bc8       ??_C@_0BF@KDPPACIK@?$GAlocal?5static?5guard?8?$AA@ 0000000180058bc8     libvcruntime:undname.obj
 0002:00000be0       ??_C@_08OBABFOLI@?$GAstring?8?$AA@ 0000000180058be0     libvcruntime:undname.obj
 0002:00000bf0       ??_C@_0BD@JDLKDPAB@?$GAvbase?5destructor?8?$AA@ 0000000180058bf0     libvcruntime:undname.obj
 0002:00000c08       ??_C@_0BN@DEGPLNFK@?$GAvector?5deleting?5destructor?8?$AA@ 0000000180058c08     libvcruntime:undname.obj
 0002:00000c28       ??_C@_0BO@OBMKPJIG@?$GAdefault?5constructor?5closure?8?$AA@ 0000000180058c28     libvcruntime:undname.obj
 0002:00000c48       ??_C@_0BN@IMDCHIKM@?$GAscalar?5deleting?5destructor?8?$AA@ 0000000180058c48     libvcruntime:undname.obj
 0002:00000c68       ??_C@_0BO@PFGOCPJJ@?$GAvector?5constructor?5iterator?8?$AA@ 0000000180058c68     libvcruntime:undname.obj
 0002:00000c88       ??_C@_0BN@LFPFMEDL@?$GAvector?5destructor?5iterator?8?$AA@ 0000000180058c88     libvcruntime:undname.obj
 0002:00000ca8       ??_C@_0CE@IKBNEHA@?$GAvector?5vbase?5constructor?5iterat@ 0000000180058ca8     libvcruntime:undname.obj
 0002:00000cd0       ??_C@_0BL@NILFHHPC@?$GAvirtual?5displacement?5map?8?$AA@ 0000000180058cd0     libvcruntime:undname.obj
 0002:00000cf0       ??_C@_0CB@JONCMFFK@?$GAeh?5vector?5constructor?5iterator?8@ 0000000180058cf0     libvcruntime:undname.obj
 0002:00000d18       ??_C@_0CA@GCEOPDGL@?$GAeh?5vector?5destructor?5iterator?8?$AA@ 0000000180058d18     libvcruntime:undname.obj
 0002:00000d38       ??_C@_0CH@OOJPLCPH@?$GAeh?5vector?5vbase?5constructor?5ite@ 0000000180058d38     libvcruntime:undname.obj
 0002:00000d60       ??_C@_0BL@LLKPOHJI@?$GAcopy?5constructor?5closure?8?$AA@ 0000000180058d60     libvcruntime:undname.obj
 0002:00000d80       ??_C@_0BA@KBCDOMBN@?$GAudt?5returning?8?$AA@ 0000000180058d80     libvcruntime:undname.obj
 0002:00000d90       ??_C@_03KLGMFNMG@?$GAEH?$AA@ 0000000180058d90     libvcruntime:undname.obj
 0002:00000d94       ??_C@_05KHLCHHI@?$GARTTI?$AA@ 0000000180058d94     libvcruntime:undname.obj
 0002:00000da0       ??_C@_0BA@KKLDJDLB@?$GAlocal?5vftable?8?$AA@ 0000000180058da0     libvcruntime:undname.obj
 0002:00000db0       ??_C@_0CE@IIHCMGGL@?$GAlocal?5vftable?5constructor?5closu@ 0000000180058db0     libvcruntime:undname.obj
 0002:00000dd4       ??_C@_06FHBGPFGH@?5new?$FL?$FN?$AA@ 0000000180058dd4     libvcruntime:undname.obj
 0002:00000de0       ??_C@_09LBNFPBCA@?5delete?$FL?$FN?$AA@ 0000000180058de0     libvcruntime:undname.obj
 0002:00000df0       ??_C@_0P@HJKNJFNN@?$GAomni?5callsig?8?$AA@ 0000000180058df0     libvcruntime:undname.obj
 0002:00000e00       ??_C@_0BL@CNOONJFP@?$GAplacement?5delete?5closure?8?$AA@ 0000000180058e00     libvcruntime:undname.obj
 0002:00000e20       ??_C@_0BN@CKNJLHMB@?$GAplacement?5delete?$FL?$FN?5closure?8?$AA@ 0000000180058e20     libvcruntime:undname.obj
 0002:00000e40       ??_C@_0CG@CFDHKGGD@?$GAmanaged?5vector?5constructor?5iter@ 0000000180058e40     libvcruntime:undname.obj
 0002:00000e68       ??_C@_0CF@IMGKMJNO@?$GAmanaged?5vector?5destructor?5itera@ 0000000180058e68     libvcruntime:undname.obj
 0002:00000e90       ??_C@_0CG@HLDDJMAG@?$GAeh?5vector?5copy?5constructor?5iter@ 0000000180058e90     libvcruntime:undname.obj
 0002:00000eb8       ??_C@_0CM@FCBBDIGB@?$GAeh?5vector?5vbase?5copy?5constructo@ 0000000180058eb8     libvcruntime:undname.obj
 0002:00000ee8       ??_C@_0BL@CLIPGLGB@?$GAdynamic?5initializer?5for?5?8?$AA@ 0000000180058ee8     libvcruntime:undname.obj
 0002:00000f08       ??_C@_0CB@PDBIFEP@?$GAdynamic?5atexit?5destructor?5for?5?8@ 0000000180058f08     libvcruntime:undname.obj
 0002:00000f30       ??_C@_0CD@CGAJBKEJ@?$GAvector?5copy?5constructor?5iterato@ 0000000180058f30     libvcruntime:undname.obj
 0002:00000f58       ??_C@_0CJ@GJELGAMM@?$GAvector?5vbase?5copy?5constructor?5i@ 0000000180058f58     libvcruntime:undname.obj
 0002:00000f88       ??_C@_0CL@FGIJHLCE@?$GAmanaged?5vector?5copy?5constructor@ 0000000180058f88     libvcruntime:undname.obj
 0002:00000fb8       ??_C@_0BM@PMGGMLDN@?$GAlocal?5static?5thread?5guard?8?$AA@ 0000000180058fb8     libvcruntime:undname.obj
 0002:00000fd8       ??_C@_0N@BDNMDMOL@operator?5?$CC?$CC?5?$AA@ 0000000180058fd8     libvcruntime:undname.obj
 0002:00000fe8       ??_C@_0BC@DAFEJGAK@?5Type?5Descriptor?8?$AA@ 0000000180058fe8     libvcruntime:undname.obj
 0002:00001000       ??_C@_0BM@LDKODKLH@?5Base?5Class?5Descriptor?5at?5?$CI?$AA@ 0000000180059000     libvcruntime:undname.obj
 0002:00001020       ??_C@_0BD@LGICGFMM@?5Base?5Class?5Array?8?$AA@ 0000000180059020     libvcruntime:undname.obj
 0002:00001038       ??_C@_0BN@MECKDCOJ@?5Class?5Hierarchy?5Descriptor?8?$AA@ 0000000180059038     libvcruntime:undname.obj
 0002:00001058       ??_C@_0BK@CFCOFLF@?5Complete?5Object?5Locator?8?$AA@ 0000000180059058     libvcruntime:undname.obj
 0002:00001080       ??_C@_1EK@MBDPDCGA@?$AAM?$AAi?$AAc?$AAr?$AAo?$AAs?$AAo?$AAf?$AAt?$AA?5?$AAV?$AAi?$AAs?$AAu?$AAa?$AAl?$AA?5?$AAC?$AA?$CL?$AA?$CL?$AA?5?$AAR?$AAu?$AAn?$AAt?$AAi?$AAm?$AAe?$AA?5?$AAL?$AAi?$AAb@ 0000000180059080     libucrt:assert.obj
 0002:000010d0       ??_C@_1FE@LHBLIKM@?$AAA?$AAs?$AAs?$AAe?$AAr?$AAt?$AAi?$AAo?$AAn?$AA?5?$AAf?$AAa?$AAi?$AAl?$AAe?$AAd?$AA?3?$AA?5?$AA?$CF?$AAT?$AAs?$AA?0?$AA?5?$AAf?$AAi?$AAl?$AAe?$AA?5?$AA?$CF?$AAT?$AAs?$AA?0@ 00000001800590d0     libucrt:assert.obj
 0002:00001128       ??_C@_1CE@OJBNHDMO@?$AAA?$AAs?$AAs?$AAe?$AAr?$AAt?$AAi?$AAo?$AAn?$AA?5?$AAf?$AAa?$AAi?$AAl?$AAe?$AAd?$AA?$CB?$AA?$AA@ 0000000180059128     libucrt:assert.obj
 0002:00001150       ??_C@_1BE@PHKBBGE@?$AAP?$AAr?$AAo?$AAg?$AAr?$AAa?$AAm?$AA?3?$AA?5?$AA?$AA@ 0000000180059150     libucrt:assert.obj
 0002:00001168       ??_C@_1O@HEMHKNDC@?$AAF?$AAi?$AAl?$AAe?$AA?3?$AA?5?$AA?$AA@ 0000000180059168     libucrt:assert.obj
 0002:00001178       ??_C@_1O@KCAFKHJE@?$AAL?$AAi?$AAn?$AAe?$AA?3?$AA?5?$AA?$AA@ 0000000180059178     libucrt:assert.obj
 0002:00001188       ??_C@_1BK@PEDCIPMA@?$AAE?$AAx?$AAp?$AAr?$AAe?$AAs?$AAs?$AAi?$AAo?$AAn?$AA?3?$AA?5?$AA?$AA@ 0000000180059188     libucrt:assert.obj
 0002:000011b0       ??_C@_1OA@EGMLFBHJ@?$AAF?$AAo?$AAr?$AA?5?$AAi?$AAn?$AAf?$AAo?$AAr?$AAm?$AAa?$AAt?$AAi?$AAo?$AAn?$AA?5?$AAo?$AAn?$AA?5?$AAh?$AAo?$AAw?$AA?5?$AAy?$AAo?$AAu?$AAr?$AA?5?$AAp?$AAr?$AAo?$AAg@ 00000001800591b0     libucrt:assert.obj
 0002:00001290       ??_C@_1HK@POCJMFGK@?$AA?$CI?$AAP?$AAr?$AAe?$AAs?$AAs?$AA?5?$AAR?$AAe?$AAt?$AAr?$AAy?$AA?5?$AAt?$AAo?$AA?5?$AAd?$AAe?$AAb?$AAu?$AAg?$AA?5?$AAt?$AAh?$AAe?$AA?5?$AAa?$AAp?$AAp?$AAl?$AAi?$AAc@ 0000000180059290     libucrt:assert.obj
 0002:00001310       ??_C@_17LGKOMLJ@?$AA?4?$AA?4?$AA?4?$AA?$AA@ 0000000180059310     libucrt:assert.obj
 0002:00001318       ??_C@_13LBAGMAIH@?$AA?6?$AA?$AA@ 0000000180059318     libucrt:assert.obj
 0002:0000131c       ??_C@_15IABLJNFO@?$AA?6?$AA?6?$AA?$AA@ 000000018005931c     libucrt:assert.obj
 0002:00001328       ??_C@_1CO@EAEJAADC@?$AA?$DM?$AAp?$AAr?$AAo?$AAg?$AAr?$AAa?$AAm?$AA?5?$AAn?$AAa?$AAm?$AAe?$AA?5?$AAu?$AAn?$AAk?$AAn?$AAo?$AAw?$AAn?$AA?$DO?$AA?$AA@ 0000000180059328     libucrt:assert.obj
 0002:00001360       standard_lookup_table      0000000180059360     libucrt:output.obj
 0002:000013c0       format_validation_lookup_table 00000001800593c0     libucrt:output.obj
 0002:0000141c       ??_C@_06OJHGLDPL@?$CInull?$CJ?$AA@ 000000018005941c     libucrt:output.obj
 0002:00001428       ??_C@_1O@CEDCILHN@?$AA?$CI?$AAn?$AAu?$AAl?$AAl?$AA?$CJ?$AA?$AA@ 0000000180059428     libucrt:output.obj
 0002:000015b0       ??_C@_0EA@FCLIIPNN@Visual?5C?$CL?$CL?5CRT?3?5Not?5enough?5memor@ 00000001800595b0     libucrt:strerror.obj
 0002:000015f0       __acrt_exception_action_table 00000001800595f0     libucrt:exception_filter.obj
 0002:000016b0       __acrt_signal_action_table_count 00000001800596b0     libucrt:exception_filter.obj
 0002:000016b8       __acrt_signal_action_first_fpe_index 00000001800596b8     libucrt:exception_filter.obj
 0002:000016c0       __acrt_signal_action_fpe_count 00000001800596c0     libucrt:exception_filter.obj
 0002:000016c8       ??_C@_1BI@BGOHAHKC@?$AAm?$AAs?$AAc?$AAo?$AAr?$AAe?$AAe?$AA?4?$AAd?$AAl?$AAl?$AA?$AA@ 00000001800596c8     libucrt:exit.obj
 0002:000016e0       ??_C@_0P@MIGLKIOC@CorExitProcess?$AA@ 00000001800596e0     libucrt:exit.obj
 0002:000017e0       __lc_time_c                00000001800597e0     libucrt:nlsdata.obj
 0002:00001aa0       ??_C@_03KOEHGMDN@Sun?$AA@  0000000180059aa0     libucrt:nlsdata.obj
 0002:00001aa4       ??_C@_03PDAGKDH@Mon?$AA@   0000000180059aa4     libucrt:nlsdata.obj
 0002:00001aa8       ??_C@_03NAGEINEP@Tue?$AA@  0000000180059aa8     libucrt:nlsdata.obj
 0002:00001aac       ??_C@_03MHOMLAJA@Wed?$AA@  0000000180059aac     libucrt:nlsdata.obj
 0002:00001ab0       ??_C@_03IOFIKPDN@Thu?$AA@  0000000180059ab0     libucrt:nlsdata.obj
 0002:00001ab4       ??_C@_03IDIOELNC@Fri?$AA@  0000000180059ab4     libucrt:nlsdata.obj
 0002:00001ab8       ??_C@_03FEFJNEK@Sat?$AA@   0000000180059ab8     libucrt:nlsdata.obj
 0002:00001abc       ??_C@_06OOPIFAJ@Sunday?$AA@ 0000000180059abc     libucrt:nlsdata.obj
 0002:00001ac4       ??_C@_06JLEDEDGH@Monday?$AA@ 0000000180059ac4     libucrt:nlsdata.obj
 0002:00001ad0       ??_C@_07BAAGCFCM@Tuesday?$AA@ 0000000180059ad0     libucrt:nlsdata.obj
 0002:00001ad8       ??_C@_09DLIGFAKA@Wednesday?$AA@ 0000000180059ad8     libucrt:nlsdata.obj
 0002:00001ae8       ??_C@_08HACCIKIA@Thursday?$AA@ 0000000180059ae8     libucrt:nlsdata.obj
 0002:00001af4       ??_C@_06JECMNKMI@Friday?$AA@ 0000000180059af4     libucrt:nlsdata.obj
 0002:00001b00       ??_C@_08INBOOONO@Saturday?$AA@ 0000000180059b00     libucrt:nlsdata.obj
 0002:00001b0c       ??_C@_03JIHJHPIE@Jan?$AA@  0000000180059b0c     libucrt:nlsdata.obj
 0002:00001b10       ??_C@_03HJBDCHOM@Feb?$AA@  0000000180059b10     libucrt:nlsdata.obj
 0002:00001b14       ??_C@_03ODNJBKGA@Mar?$AA@  0000000180059b14     libucrt:nlsdata.obj
 0002:00001b18       ??_C@_03LEOLGMJP@Apr?$AA@  0000000180059b18     libucrt:nlsdata.obj
 0002:00001b1c       ??_C@_03CNMDKL@May?$AA@    0000000180059b1c     libucrt:nlsdata.obj
 0002:00001b20       ??_C@_03IDFGHECI@Jun?$AA@  0000000180059b20     libucrt:nlsdata.obj
 0002:00001b24       ??_C@_03LBGABGKK@Jul?$AA@  0000000180059b24     libucrt:nlsdata.obj
 0002:00001b28       ??_C@_03IFJFEIGA@Aug?$AA@  0000000180059b28     libucrt:nlsdata.obj
 0002:00001b2c       ??_C@_03GGCAPAJC@Sep?$AA@  0000000180059b2c     libucrt:nlsdata.obj
 0002:00001b30       ??_C@_03BMAOKBAD@Oct?$AA@  0000000180059b30     libucrt:nlsdata.obj
 0002:00001b34       ??_C@_03JPJOFNIA@Nov?$AA@  0000000180059b34     libucrt:nlsdata.obj
 0002:00001b38       ??_C@_03MKABNOCG@Dec?$AA@  0000000180059b38     libucrt:nlsdata.obj
 0002:00001b40       ??_C@_07CGJPFGJA@January?$AA@ 0000000180059b40     libucrt:nlsdata.obj
 0002:00001b48       ??_C@_08GNJGEPFN@February?$AA@ 0000000180059b48     libucrt:nlsdata.obj
 0002:00001b54       ??_C@_05HPCKOFNC@March?$AA@ 0000000180059b54     libucrt:nlsdata.obj
 0002:00001b5c       ??_C@_05DMJDNLEJ@April?$AA@ 0000000180059b5c     libucrt:nlsdata.obj
 0002:00001b64       ??_C@_04CNLMGBGM@June?$AA@ 0000000180059b64     libucrt:nlsdata.obj
 0002:00001b6c       ??_C@_04MIEPOIFP@July?$AA@ 0000000180059b6c     libucrt:nlsdata.obj
 0002:00001b74       ??_C@_06LBBHFDDG@August?$AA@ 0000000180059b74     libucrt:nlsdata.obj
 0002:00001b80       ??_C@_09BHHEALKD@September?$AA@ 0000000180059b80     libucrt:nlsdata.obj
 0002:00001b90       ??_C@_07JJNFCEND@October?$AA@ 0000000180059b90     libucrt:nlsdata.obj
 0002:00001b98       ??_C@_08HCHEGEOA@November?$AA@ 0000000180059b98     libucrt:nlsdata.obj
 0002:00001ba8       ??_C@_08EDHMEBNP@December?$AA@ 0000000180059ba8     libucrt:nlsdata.obj
 0002:00001bb4       ??_C@_02DEDBPAFC@AM?$AA@   0000000180059bb4     libucrt:nlsdata.obj
 0002:00001bb8       ??_C@_02CJNFDJBF@PM?$AA@   0000000180059bb8     libucrt:nlsdata.obj
 0002:00001bc0       ??_C@_08BPBNCDIB@MM?1dd?1yy?$AA@ 0000000180059bc0     libucrt:nlsdata.obj
 0002:00001bd0       ??_C@_0BE@CKGJFCPC@dddd?0?5MMMM?5dd?0?5yyyy?$AA@ 0000000180059bd0     libucrt:nlsdata.obj
 0002:00001be8       ??_C@_08JCCMCCIL@HH?3mm?3ss?$AA@ 0000000180059be8     libucrt:nlsdata.obj
 0002:00001bf8       ??_C@_17MBGCMIPB@?$AAS?$AAu?$AAn?$AA?$AA@ 0000000180059bf8     libucrt:nlsdata.obj
 0002:00001c00       ??_C@_17KBOMKBF@?$AAM?$AAo?$AAn?$AA?$AA@ 0000000180059c00     libucrt:nlsdata.obj
 0002:00001c08       ??_C@_17BMKGEGOJ@?$AAT?$AAu?$AAe?$AA?$AA@ 0000000180059c08     libucrt:nlsdata.obj
 0002:00001c10       ??_C@_17CJEDCEPE@?$AAW?$AAe?$AAd?$AA?$AA@ 0000000180059c10     libucrt:nlsdata.obj
 0002:00001c18       ??_C@_17PDPHAADD@?$AAT?$AAh?$AAu?$AA?$AA@ 0000000180059c18     libucrt:nlsdata.obj
 0002:00001c20       ??_C@_17HFOLPPLP@?$AAF?$AAr?$AAi?$AA?$AA@ 0000000180059c20     libucrt:nlsdata.obj
 0002:00001c28       ??_C@_17GGIBDPIH@?$AAS?$AAa?$AAt?$AA?$AA@ 0000000180059c28     libucrt:nlsdata.obj
 0002:00001c30       ??_C@_1O@IHNHDHPB@?$AAS?$AAu?$AAn?$AAd?$AAa?$AAy?$AA?$AA@ 0000000180059c30     libucrt:nlsdata.obj
 0002:00001c40       ??_C@_1O@MMNBFLIA@?$AAM?$AAo?$AAn?$AAd?$AAa?$AAy?$AA?$AA@ 0000000180059c40     libucrt:nlsdata.obj
 0002:00001c50       ??_C@_1BA@ENFBFFEK@?$AAT?$AAu?$AAe?$AAs?$AAd?$AAa?$AAy?$AA?$AA@ 0000000180059c50     libucrt:nlsdata.obj
 0002:00001c60       ??_C@_1BE@EBOGMDOH@?$AAW?$AAe?$AAd?$AAn?$AAe?$AAs?$AAd?$AAa?$AAy?$AA?$AA@ 0000000180059c60     libucrt:nlsdata.obj
 0002:00001c78       ??_C@_1BC@HHMNLIHE@?$AAT?$AAh?$AAu?$AAr?$AAs?$AAd?$AAa?$AAy?$AA?$AA@ 0000000180059c78     libucrt:nlsdata.obj
 0002:00001c90       ??_C@_1O@PDICJHAG@?$AAF?$AAr?$AAi?$AAd?$AAa?$AAy?$AA?$AA@ 0000000180059c90     libucrt:nlsdata.obj
 0002:00001ca0       ??_C@_1BC@ENMNNPAJ@?$AAS?$AAa?$AAt?$AAu?$AAr?$AAd?$AAa?$AAy?$AA?$AA@ 0000000180059ca0     libucrt:nlsdata.obj
 0002:00001cb8       ??_C@_17DKNBKCHM@?$AAJ?$AAa?$AAn?$AA?$AA@ 0000000180059cb8     libucrt:nlsdata.obj
 0002:00001cc0       ??_C@_17LMDJEKJN@?$AAF?$AAe?$AAb?$AA?$AA@ 0000000180059cc0     libucrt:nlsdata.obj
 0002:00001cc8       ??_C@_17CKNLEDEC@?$AAM?$AAa?$AAr?$AA?$AA@ 0000000180059cc8     libucrt:nlsdata.obj
 0002:00001cd0       ??_C@_17LFPOIHDD@?$AAA?$AAp?$AAr?$AA?$AA@ 0000000180059cd0     libucrt:nlsdata.obj
 0002:00001cd8       ??_C@_17PNNKMEED@?$AAM?$AAa?$AAy?$AA?$AA@ 0000000180059cd8     libucrt:nlsdata.obj
 0002:00001ce0       ??_C@_17KCJGOCPB@?$AAJ?$AAu?$AAn?$AA?$AA@ 0000000180059ce0     libucrt:nlsdata.obj
 0002:00001ce8       ??_C@_17IJPCKHK@?$AAJ?$AAu?$AAl?$AA?$AA@ 0000000180059ce8     libucrt:nlsdata.obj
 0002:00001cf0       ??_C@_17ICPELBCN@?$AAA?$AAu?$AAg?$AA?$AA@ 0000000180059cf0     libucrt:nlsdata.obj
 0002:00001cf8       ??_C@_17HCHCOKMG@?$AAS?$AAe?$AAp?$AA?$AA@ 0000000180059cf8     libucrt:nlsdata.obj
 0002:00001d00       ??_C@_17FNLKOI@?$AAO?$AAc?$AAt?$AA?$AA@ 0000000180059d00     libucrt:nlsdata.obj
 0002:00001d08       ??_C@_17BBDMLCIG@?$AAN?$AAo?$AAv?$AA?$AA@ 0000000180059d08     libucrt:nlsdata.obj
 0002:00001d10       ??_C@_17EGKACKIF@?$AAD?$AAe?$AAc?$AA?$AA@ 0000000180059d10     libucrt:nlsdata.obj
 0002:00001d18       ??_C@_1BA@EFMEIEBA@?$AAJ?$AAa?$AAn?$AAu?$AAa?$AAr?$AAy?$AA?$AA@ 0000000180059d18     libucrt:nlsdata.obj
 0002:00001d28       ??_C@_1BC@JGDDFFAM@?$AAF?$AAe?$AAb?$AAr?$AAu?$AAa?$AAr?$AAy?$AA?$AA@ 0000000180059d28     libucrt:nlsdata.obj
 0002:00001d40       ??_C@_1M@IKEENEDF@?$AAM?$AAa?$AAr?$AAc?$AAh?$AA?$AA@ 0000000180059d40     libucrt:nlsdata.obj
 0002:00001d50       ??_C@_1M@GJNLMHFD@?$AAA?$AAp?$AAr?$AAi?$AAl?$AA?$AA@ 0000000180059d50     libucrt:nlsdata.obj
 0002:00001d60       ??_C@_19EPFLPGAP@?$AAJ?$AAu?$AAn?$AAe?$AA?$AA@ 0000000180059d60     libucrt:nlsdata.obj
 0002:00001d70       ??_C@_19BIFMLPCD@?$AAJ?$AAu?$AAl?$AAy?$AA?$AA@ 0000000180059d70     libucrt:nlsdata.obj
 0002:00001d80       ??_C@_1O@PAHLKOAC@?$AAA?$AAu?$AAg?$AAu?$AAs?$AAt?$AA?$AA@ 0000000180059d80     libucrt:nlsdata.obj
 0002:00001d90       ??_C@_1BE@DKAAMBJL@?$AAS?$AAe?$AAp?$AAt?$AAe?$AAm?$AAb?$AAe?$AAr?$AA?$AA@ 0000000180059d90     libucrt:nlsdata.obj
 0002:00001da8       ??_C@_1BA@EPANDLNG@?$AAO?$AAc?$AAt?$AAo?$AAb?$AAe?$AAr?$AA?$AA@ 0000000180059da8     libucrt:nlsdata.obj
 0002:00001db8       ??_C@_1BC@BGLIFPF@?$AAN?$AAo?$AAv?$AAe?$AAm?$AAb?$AAe?$AAr?$AA?$AA@ 0000000180059db8     libucrt:nlsdata.obj
 0002:00001dd0       ??_C@_1BC@FEMKIFH@?$AAD?$AAe?$AAc?$AAe?$AAm?$AAb?$AAe?$AAr?$AA?$AA@ 0000000180059dd0     libucrt:nlsdata.obj
 0002:00001de4       ??_C@_15ODEHAHHF@?$AAA?$AAM?$AA?$AA@ 0000000180059de4     libucrt:nlsdata.obj
 0002:00001dec       ??_C@_15CLMNNGEL@?$AAP?$AAM?$AA?$AA@ 0000000180059dec     libucrt:nlsdata.obj
 0002:00001df8       ??_C@_1BC@IEBCMHCM@?$AAM?$AAM?$AA?1?$AAd?$AAd?$AA?1?$AAy?$AAy?$AA?$AA@ 0000000180059df8     libucrt:nlsdata.obj
 0002:00001e10       ??_C@_1CI@KNAKOEBC@?$AAd?$AAd?$AAd?$AAd?$AA?0?$AA?5?$AAM?$AAM?$AAM?$AAM?$AA?5?$AAd?$AAd?$AA?0?$AA?5?$AAy?$AAy?$AAy?$AAy?$AA?$AA@ 0000000180059e10     libucrt:nlsdata.obj
 0002:00001e38       ??_C@_1BC@GDGBMEMK@?$AAH?$AAH?$AA?3?$AAm?$AAm?$AA?3?$AAs?$AAs?$AA?$AA@ 0000000180059e38     libucrt:nlsdata.obj
 0002:00001e50       ??_C@_1M@BMHNFIME@?$AAe?$AAn?$AA?9?$AAU?$AAS?$AA?$AA@ 0000000180059e50     libucrt:nlsdata.obj
 0002:00001e5c       ??_C@_03OEIAHPBN@INF?$AA@  0000000180059e5c     libucrt:cvt.obj
 0002:00001e60       ??_C@_03OJHLLCGB@inf?$AA@  0000000180059e60     libucrt:cvt.obj
 0002:00001e64       ??_C@_03LKNCIKJB@NAN?$AA@  0000000180059e64     libucrt:cvt.obj
 0002:00001e68       ??_C@_03LHCJEHON@nan?$AA@  0000000180059e68     libucrt:cvt.obj
 0002:00001e70       ??_C@_09OFJJIMPC@NAN?$CISNAN?$CJ?$AA@ 0000000180059e70     libucrt:cvt.obj
 0002:00001e80       ??_C@_09IPFBKMDL@nan?$CIsnan?$CJ?$AA@ 0000000180059e80     libucrt:cvt.obj
 0002:00001e90       ??_C@_08IKHNHAJ@NAN?$CIIND?$CJ?$AA@ 0000000180059e90     libucrt:cvt.obj
 0002:00001ea0       ??_C@_08OFCDMILK@nan?$CIind?$CJ?$AA@ 0000000180059ea0     libucrt:cvt.obj
 0002:00001eac       ??_C@_05KLBDPFGC@e?$CL000?$AA@ 0000000180059eac     libucrt:cvt.obj
 0002:00001f60       ??_C@_1EG@CNNIPFIM@?$AAa?$AAp?$AAi?$AA?9?$AAm?$AAs?$AA?9?$AAw?$AAi?$AAn?$AA?9?$AAa?$AAp?$AAp?$AAm?$AAo?$AAd?$AAe?$AAl?$AA?9?$AAr?$AAu?$AAn?$AAt?$AAi?$AAm?$AAe?$AA?9?$AAl?$AA1?$AA?9?$AA1@ 0000000180059f60     libucrt:winapi_thunks.obj
 0002:00001fb0       ??_C@_1EA@JGEFHKEI@?$AAa?$AAp?$AAi?$AA?9?$AAm?$AAs?$AA?9?$AAw?$AAi?$AAn?$AA?9?$AAc?$AAo?$AAr?$AAe?$AA?9?$AAd?$AAa?$AAt?$AAe?$AAt?$AAi?$AAm?$AAe?$AA?9?$AAl?$AA1?$AA?9?$AA1?$AA?9?$AA1?$AA?$AA@ 0000000180059fb0     libucrt:winapi_thunks.obj
 0002:00001ff0       ??_C@_1DI@GCIAAENM@?$AAa?$AAp?$AAi?$AA?9?$AAm?$AAs?$AA?9?$AAw?$AAi?$AAn?$AA?9?$AAc?$AAo?$AAr?$AAe?$AA?9?$AAf?$AAi?$AAl?$AAe?$AA?9?$AAl?$AA2?$AA?9?$AA1?$AA?9?$AA1?$AA?$AA@ 0000000180059ff0     libucrt:winapi_thunks.obj
 0002:00002030       ??_C@_1EI@MPIAOHOC@?$AAa?$AAp?$AAi?$AA?9?$AAm?$AAs?$AA?9?$AAw?$AAi?$AAn?$AA?9?$AAc?$AAo?$AAr?$AAe?$AA?9?$AAl?$AAo?$AAc?$AAa?$AAl?$AAi?$AAz?$AAa?$AAt?$AAi?$AAo?$AAn?$AA?9?$AAl?$AA1?$AA?9@ 000000018005a030     libucrt:winapi_thunks.obj
 0002:00002080       ??_C@_1FK@FPHCKFIE@?$AAa?$AAp?$AAi?$AA?9?$AAm?$AAs?$AA?9?$AAw?$AAi?$AAn?$AA?9?$AAc?$AAo?$AAr?$AAe?$AA?9?$AAl?$AAo?$AAc?$AAa?$AAl?$AAi?$AAz?$AAa?$AAt?$AAi?$AAo?$AAn?$AA?9?$AAo?$AAb?$AAs@ 000000018005a080     libucrt:winapi_thunks.obj
 0002:000020e0       ??_C@_1EM@DILCGIIO@?$AAa?$AAp?$AAi?$AA?9?$AAm?$AAs?$AA?9?$AAw?$AAi?$AAn?$AA?9?$AAc?$AAo?$AAr?$AAe?$AA?9?$AAp?$AAr?$AAo?$AAc?$AAe?$AAs?$AAs?$AAt?$AAh?$AAr?$AAe?$AAa?$AAd?$AAs?$AA?9?$AAl@ 000000018005a0e0     libucrt:winapi_thunks.obj
 0002:00002130       ??_C@_1DM@LNCGDDPN@?$AAa?$AAp?$AAi?$AA?9?$AAm?$AAs?$AA?9?$AAw?$AAi?$AAn?$AA?9?$AAc?$AAo?$AAr?$AAe?$AA?9?$AAs?$AAt?$AAr?$AAi?$AAn?$AAg?$AA?9?$AAl?$AA1?$AA?9?$AA1?$AA?9?$AA0?$AA?$AA@ 000000018005a130     libucrt:winapi_thunks.obj
 0002:00002170       ??_C@_1DO@FPAPJEMD@?$AAa?$AAp?$AAi?$AA?9?$AAm?$AAs?$AA?9?$AAw?$AAi?$AAn?$AA?9?$AAc?$AAo?$AAr?$AAe?$AA?9?$AAs?$AAy?$AAs?$AAi?$AAn?$AAf?$AAo?$AA?9?$AAl?$AA1?$AA?9?$AA2?$AA?9?$AA1?$AA?$AA@ 000000018005a170     libucrt:winapi_thunks.obj
 0002:000021b0       ??_C@_1DK@NDHNAHIO@?$AAa?$AAp?$AAi?$AA?9?$AAm?$AAs?$AA?9?$AAw?$AAi?$AAn?$AA?9?$AAc?$AAo?$AAr?$AAe?$AA?9?$AAw?$AAi?$AAn?$AAr?$AAt?$AA?9?$AAl?$AA1?$AA?9?$AA1?$AA?9?$AA0?$AA?$AA@ 000000018005a1b0     libucrt:winapi_thunks.obj
 0002:000021f0       ??_C@_1DM@KGHDGBCM@?$AAa?$AAp?$AAi?$AA?9?$AAm?$AAs?$AA?9?$AAw?$AAi?$AAn?$AA?9?$AAc?$AAo?$AAr?$AAe?$AA?9?$AAx?$AAs?$AAt?$AAa?$AAt?$AAe?$AA?9?$AAl?$AA2?$AA?9?$AA1?$AA?9?$AA0?$AA?$AA@ 000000018005a1f0     libucrt:winapi_thunks.obj
 0002:00002230       ??_C@_1EO@IJIOEFOH@?$AAa?$AAp?$AAi?$AA?9?$AAm?$AAs?$AA?9?$AAw?$AAi?$AAn?$AA?9?$AAr?$AAt?$AAc?$AAo?$AAr?$AAe?$AA?9?$AAn?$AAt?$AAu?$AAs?$AAe?$AAr?$AA?9?$AAw?$AAi?$AAn?$AAd?$AAo?$AAw?$AA?9@ 000000018005a230     libucrt:winapi_thunks.obj
 0002:00002280       ??_C@_1FG@HHGEKANL@?$AAa?$AAp?$AAi?$AA?9?$AAm?$AAs?$AA?9?$AAw?$AAi?$AAn?$AA?9?$AAs?$AAe?$AAc?$AAu?$AAr?$AAi?$AAt?$AAy?$AA?9?$AAs?$AAy?$AAs?$AAt?$AAe?$AAm?$AAf?$AAu?$AAn?$AAc?$AAt?$AAi@ 000000018005a280     libucrt:winapi_thunks.obj
 0002:000022e0       ??_C@_1FG@NCKKOLKO@?$AAe?$AAx?$AAt?$AA?9?$AAm?$AAs?$AA?9?$AAw?$AAi?$AAn?$AA?9?$AAk?$AAe?$AAr?$AAn?$AAe?$AAl?$AA3?$AA2?$AA?9?$AAp?$AAa?$AAc?$AAk?$AAa?$AAg?$AAe?$AA?9?$AAc?$AAu?$AAr?$AAr@ 000000018005a2e0     libucrt:winapi_thunks.obj
 0002:00002340       ??_C@_1EG@DBIOJECG@?$AAe?$AAx?$AAt?$AA?9?$AAm?$AAs?$AA?9?$AAw?$AAi?$AAn?$AA?9?$AAn?$AAt?$AAu?$AAs?$AAe?$AAr?$AA?9?$AAd?$AAi?$AAa?$AAl?$AAo?$AAg?$AAb?$AAo?$AAx?$AA?9?$AAl?$AA1?$AA?9?$AA1@ 000000018005a340     libucrt:winapi_thunks.obj
 0002:00002390       ??_C@_1EO@FIHMJCLF@?$AAe?$AAx?$AAt?$AA?9?$AAm?$AAs?$AA?9?$AAw?$AAi?$AAn?$AA?9?$AAn?$AAt?$AAu?$AAs?$AAe?$AAr?$AA?9?$AAw?$AAi?$AAn?$AAd?$AAo?$AAw?$AAs?$AAt?$AAa?$AAt?$AAi?$AAo?$AAn?$AA?9@ 000000018005a390     libucrt:winapi_thunks.obj
 0002:000023e0       ??_C@_1O@BCCLBEOE@?$AAu?$AAs?$AAe?$AAr?$AA3?$AA2?$AA?$AA@ 000000018005a3e0     libucrt:winapi_thunks.obj
 0002:000023f8       ??_C@_0BA@FHFNEAED@AreFileApisANSI?$AA@ 000000018005a3f8     libucrt:winapi_thunks.obj
 0002:00002430       ??_C@_0BA@HNOPNCHB@GetActiveWindow?$AA@ 000000018005a430     libucrt:winapi_thunks.obj
 0002:00002448       ??_C@_0BE@JOGNEJCI@GetCurrentPackageId?$AA@ 000000018005a448     libucrt:winapi_thunks.obj
 0002:00002468       ??_C@_0BD@HHGDFDBJ@GetLastActivePopup?$AA@ 000000018005a468     libucrt:winapi_thunks.obj
 0002:00002488       ??_C@_0BI@DFKBFLJE@GetProcessWindowStation?$AA@ 000000018005a488     libucrt:winapi_thunks.obj
 0002:000024a8       ??_C@_0BK@DEKFELLI@GetUserObjectInformationW?$AA@ 000000018005a4a8     libucrt:winapi_thunks.obj
 0002:000024d8       ??_C@_0O@KKBNKAPF@LCMapStringEx?$AA@ 000000018005a4d8     libucrt:winapi_thunks.obj
 0002:000024f0       ??_C@_0BB@HBDEELFH@LocaleNameToLCID?$AA@ 000000018005a4f0     libucrt:winapi_thunks.obj
 0002:00002510       ??_C@_0M@CHKKJDAI@MessageBoxA?$AA@ 000000018005a510     libucrt:winapi_thunks.obj
 0002:00002528       ??_C@_0M@DLDCCGNP@MessageBoxW?$AA@ 000000018005a528     libucrt:winapi_thunks.obj
 0002:00002538       ??_C@_0N@PPOMPGGK@RoInitialize?$AA@ 000000018005a538     libucrt:winapi_thunks.obj
 0002:00002550       ??_C@_0P@LLFHBIJD@RoUninitialize?$AA@ 000000018005a550     libucrt:winapi_thunks.obj
 0002:00002560       ?ccs@?BL@???$__acrt_stdio_parse_mode@D@@YA?AU__acrt_stdio_stream_mode@@QEBD@Z@4QBDB 000000018005a560     libucrt:openfile.obj
 0002:00002564       ?utf8_encoding@?BL@???$__acrt_stdio_parse_mode@D@@YA?AU__acrt_stdio_stream_mode@@QEBD@Z@4QBDB 000000018005a564     libucrt:openfile.obj
 0002:00002570       ?utf16_encoding@?BL@???$__acrt_stdio_parse_mode@D@@YA?AU__acrt_stdio_stream_mode@@QEBD@Z@4QBDB 000000018005a570     libucrt:openfile.obj
 0002:00002578       ?unicode_encoding@?BL@???$__acrt_stdio_parse_mode@D@@YA?AU__acrt_stdio_stream_mode@@QEBD@Z@4QBDB 000000018005a578     libucrt:openfile.obj
 0002:00002580       _sys_errlist               000000018005a580     libucrt:syserr.obj
 0002:000026e0       ??_C@_08INEPGKHH@No?5error?$AA@ 000000018005a6e0     libucrt:syserr.obj
 0002:000026f0       ??_C@_0BI@BJFCGOHL@Operation?5not?5permitted?$AA@ 000000018005a6f0     libucrt:syserr.obj
 0002:00002708       ??_C@_0BK@FMDHKPNF@No?5such?5file?5or?5directory?$AA@ 000000018005a708     libucrt:syserr.obj
 0002:00002728       ??_C@_0BA@FKIAIBGA@No?5such?5process?$AA@ 000000018005a728     libucrt:syserr.obj
 0002:00002738       ??_C@_0BK@FJBOAFDK@Interrupted?5function?5call?$AA@ 000000018005a738     libucrt:syserr.obj
 0002:00002758       ??_C@_0BD@KKNFOBBD@Input?1output?5error?$AA@ 000000018005a758     libucrt:syserr.obj
 0002:00002770       ??_C@_0BK@DPKMCKJ@No?5such?5device?5or?5address?$AA@ 000000018005a770     libucrt:syserr.obj
 0002:00002790       ??_C@_0BC@MFFGCDFL@Arg?5list?5too?5long?$AA@ 000000018005a790     libucrt:syserr.obj
 0002:000027a8       ??_C@_0BC@HKPNECK@Exec?5format?5error?$AA@ 000000018005a7a8     libucrt:syserr.obj
 0002:000027c0       ??_C@_0BE@NFGDDCEF@Bad?5file?5descriptor?$AA@ 000000018005a7c0     libucrt:syserr.obj
 0002:000027d8       ??_C@_0BD@LOHELEP@No?5child?5processes?$AA@ 000000018005a7d8     libucrt:syserr.obj
 0002:000027f0       ??_C@_0CB@EPFKGNAK@Resource?5temporarily?5unavailable@ 000000018005a7f0     libucrt:syserr.obj
 0002:00002818       ??_C@_0BB@IMDKMPFB@Not?5enough?5space?$AA@ 000000018005a818     libucrt:syserr.obj
 0002:00002830       ??_C@_0BC@HFNFNKAI@Permission?5denied?$AA@ 000000018005a830     libucrt:syserr.obj
 0002:00002848       ??_C@_0M@LOEHLCJD@Bad?5address?$AA@ 000000018005a848     libucrt:syserr.obj
 0002:00002858       ??_C@_0O@NIPGCINC@Unknown?5error?$AA@ 000000018005a858     libucrt:syserr.obj
 0002:00002868       ??_C@_0BA@BIBLIOEK@Resource?5device?$AA@ 000000018005a868     libucrt:syserr.obj
 0002:00002878       ??_C@_0M@NAAJNNGH@File?5exists?$AA@ 000000018005a878     libucrt:syserr.obj
 0002:00002888       ??_C@_0O@OAMDNOCP@Improper?5link?$AA@ 000000018005a888     libucrt:syserr.obj
 0002:00002898       ??_C@_0P@NLEIANHE@No?5such?5device?$AA@ 000000018005a898     libucrt:syserr.obj
 0002:000028a8       ??_C@_0BA@CJBACOOL@Not?5a?5directory?$AA@ 000000018005a8a8     libucrt:syserr.obj
 0002:000028b8       ??_C@_0P@NDHGCGKE@Is?5a?5directory?$AA@ 000000018005a8b8     libucrt:syserr.obj
 0002:000028c8       ??_C@_0BB@HMGGCEBG@Invalid?5argument?$AA@ 000000018005a8c8     libucrt:syserr.obj
 0002:000028e0       ??_C@_0BO@IIFBODJE@Too?5many?5open?5files?5in?5system?$AA@ 000000018005a8e0     libucrt:syserr.obj
 0002:00002900       ??_C@_0BE@INBJMKGG@Too?5many?5open?5files?$AA@ 000000018005a900     libucrt:syserr.obj
 0002:00002918       ??_C@_0CE@ONOKNLPF@Inappropriate?5I?1O?5control?5operat@ 000000018005a918     libucrt:syserr.obj
 0002:00002940       ??_C@_0P@LFMMIPAE@File?5too?5large?$AA@ 000000018005a940     libucrt:syserr.obj
 0002:00002950       ??_C@_0BI@FEALHKLD@No?5space?5left?5on?5device?$AA@ 000000018005a950     libucrt:syserr.obj
 0002:00002968       ??_C@_0N@FEHLOILP@Invalid?5seek?$AA@ 000000018005a968     libucrt:syserr.obj
 0002:00002978       ??_C@_0BG@DDBFNKBH@Read?9only?5file?5system?$AA@ 000000018005a978     libucrt:syserr.obj
 0002:00002990       ??_C@_0P@PKCJJLLM@Too?5many?5links?$AA@ 000000018005a990     libucrt:syserr.obj
 0002:000029a0       ??_C@_0M@LHEPIIOM@Broken?5pipe?$AA@ 000000018005a9a0     libucrt:syserr.obj
 0002:000029b0       ??_C@_0N@MMJPGLJK@Domain?5error?$AA@ 000000018005a9b0     libucrt:syserr.obj
 0002:000029c0       ??_C@_0BB@FCBJFCAJ@Result?5too?5large?$AA@ 000000018005a9c0     libucrt:syserr.obj
 0002:000029d8       ??_C@_0BK@JAEBMJJM@Resource?5deadlock?5avoided?$AA@ 000000018005a9d8     libucrt:syserr.obj
 0002:000029f8       ??_C@_0BC@BEDIHIDK@Filename?5too?5long?$AA@ 000000018005a9f8     libucrt:syserr.obj
 0002:00002a10       ??_C@_0BD@CLHBCGPB@No?5locks?5available?$AA@ 000000018005aa10     libucrt:syserr.obj
 0002:00002a28       ??_C@_0BJ@IHEHINLI@Function?5not?5implemented?$AA@ 000000018005aa28     libucrt:syserr.obj
 0002:00002a48       ??_C@_0BE@ICMCHPHH@Directory?5not?5empty?$AA@ 000000018005aa48     libucrt:syserr.obj
 0002:00002a60       ??_C@_0BG@KLEAJEFJ@Illegal?5byte?5sequence?$AA@ 000000018005aa60     libucrt:syserr.obj
 0002:00002a78       _sys_nerr                  000000018005aa78     libucrt:syserr.obj
 0002:00002aa0       ??_C@_1M@HPNHIDJI@?$AAj?$AAa?$AA?9?$AAJ?$AAP?$AA?$AA@ 000000018005aaa0     libucrt:mbctype.obj
 0002:00002ab0       ??_C@_1M@BIBDDEMK@?$AAz?$AAh?$AA?9?$AAC?$AAN?$AA?$AA@ 000000018005aab0     libucrt:mbctype.obj
 0002:00002ac0       ??_C@_1M@JLOOOEGK@?$AAk?$AAo?$AA?9?$AAK?$AAR?$AA?$AA@ 000000018005aac0     libucrt:mbctype.obj
 0002:00002ad0       ??_C@_1M@CLNBBOPM@?$AAz?$AAh?$AA?9?$AAT?$AAW?$AA?$AA@ 000000018005aad0     libucrt:mbctype.obj
 0002:00002ae0       __newctype                 000000018005aae0     libucrt:ctype.obj
 0002:00002de0       __newclmap                 000000018005ade0     libucrt:ctype.obj
 0002:00002f60       __newcumap                 000000018005af60     libucrt:ctype.obj
 0002:000030e0       _wctype                    000000018005b0e0     libucrt:ctype.obj
 0002:000032e4       ??_C@_15PJPFLCCM@?$AAu?$AAk?$AA?$AA@ 000000018005b2e4     libucrt:get_qualified_locale.obj
 0002:000032f0       ?large_power_data@?1??multiply_by_power_of_ten@__crt_strtox@@YA_NAEAUbig_integer@2@I@Z@4QBIB 000000018005b2f0     libucrt:cfout.obj
 0002:00003c00       ?large_power_indices@?1??multiply_by_power_of_ten@__crt_strtox@@YA_NAEAUbig_integer@2@I@Z@4QBUunpack_index@?1??12@YA_N0I@Z@B 000000018005bc00     libucrt:cfout.obj
 0002:00003c98       ?small_powers_of_ten@?6??multiply_by_power_of_ten@__crt_strtox@@YA_NAEAUbig_integer@2@I@Z@4QBIB 000000018005bc98     libucrt:cfout.obj
 0002:00003cbc       ??_C@_01GBGANLPD@0?$AA@    000000018005bcbc     libucrt:cfout.obj
 0002:00003cc0       ??_C@_05DNEBIAHO@1?$CDINF?$AA@ 000000018005bcc0     libucrt:cfout.obj
 0002:00003cc8       ??_C@_06IMKFLFPG@1?$CDQNAN?$AA@ 000000018005bcc8     libucrt:cfout.obj
 0002:00003cd0       ??_C@_06PGGFOGJG@1?$CDSNAN?$AA@ 000000018005bcd0     libucrt:cfout.obj
 0002:00003cd8       ??_C@_05PHHOCPM@1?$CDIND?$AA@ 000000018005bcd8     libucrt:cfout.obj
 0002:00004b20       ??_C@_15EMKDOKLE@?$AAa?$AAr?$AA?$AA@ 000000018005cb20     libucrt:lcidtoname_downlevel.obj
 0002:00004b28       ??_C@_15KNPADPLH@?$AAb?$AAg?$AA?$AA@ 000000018005cb28     libucrt:lcidtoname_downlevel.obj
 0002:00004b30       ??_C@_15EDMHLDMO@?$AAc?$AAa?$AA?$AA@ 000000018005cb30     libucrt:lcidtoname_downlevel.obj
 0002:00004b38       ??_C@_1O@BPEAJADD@?$AAz?$AAh?$AA?9?$AAC?$AAH?$AAS?$AA?$AA@ 000000018005cb38     libucrt:lcidtoname_downlevel.obj
 0002:00004b48       ??_C@_15LJNHCMNK@?$AAc?$AAs?$AA?$AA@ 000000018005cb48     libucrt:lcidtoname_downlevel.obj
 0002:00004b50       ??_C@_15FOMCIDHG@?$AAd?$AAa?$AA?$AA@ 000000018005cb50     libucrt:lcidtoname_downlevel.obj
 0002:00004b58       ??_C@_15NBKABECB@?$AAd?$AAe?$AA?$AA@ 000000018005cb58     libucrt:lcidtoname_downlevel.obj
 0002:00004b60       ??_C@_15GHPEIIAO@?$AAe?$AAl?$AA?$AA@ 000000018005cb60     libucrt:lcidtoname_downlevel.obj
 0002:00004b68       ??_C@_15MNPNEAIF@?$AAe?$AAn?$AA?$AA@ 000000018005cb68     libucrt:lcidtoname_downlevel.obj
 0002:00004b70       ??_C@_15GPIOMPMH@?$AAe?$AAs?$AA?$AA@ 000000018005cb70     libucrt:lcidtoname_downlevel.obj
 0002:00004b78       ??_C@_15NGLOAKJC@?$AAf?$AAi?$AA?$AA@ 000000018005cb78     libucrt:lcidtoname_downlevel.obj
 0002:00004b80       ??_C@_15FBKGNKAM@?$AAf?$AAr?$AA?$AA@ 000000018005cb80     libucrt:lcidtoname_downlevel.obj
 0002:00004b88       ??_C@_15KGGCNEFK@?$AAh?$AAe?$AA?$AA@ 000000018005cb88     libucrt:lcidtoname_downlevel.obj
 0002:00004b90       ??_C@_15PGHLIDMF@?$AAh?$AAu?$AA?$AA@ 000000018005cb90     libucrt:lcidtoname_downlevel.obj
 0002:00004b98       ??_C@_15BIEMAPLM@?$AAi?$AAs?$AA?$AA@ 000000018005cb98     libucrt:lcidtoname_downlevel.obj
 0002:00004ba0       ??_C@_15IFJLDHAF@?$AAi?$AAt?$AA?$AA@ 000000018005cba0     libucrt:lcidtoname_downlevel.obj
 0002:00004ba8       ??_C@_15GEMIOCAG@?$AAj?$AAa?$AA?$AA@ 000000018005cba8     libucrt:lcidtoname_downlevel.obj
 0002:00004bb0       ??_C@_15EPELEGJA@?$AAk?$AAo?$AA?$AA@ 000000018005cbb0     libucrt:lcidtoname_downlevel.obj
 0002:00004bb8       ??_C@_15NDDHIMN@?$AAn?$AAl?$AA?$AA@ 000000018005cbb8     libucrt:lcidtoname_downlevel.obj
 0002:00004bc0       ??_C@_15BPIGNHCD@?$AAn?$AAo?$AA?$AA@ 000000018005cbc0     libucrt:lcidtoname_downlevel.obj
 0002:00004bc8       ??_C@_15DEOPBLCG@?$AAp?$AAl?$AA?$AA@ 000000018005cbc8     libucrt:lcidtoname_downlevel.obj
 0002:00004bd0       ??_C@_15KBECGEFG@?$AAp?$AAt?$AA?$AA@ 000000018005cbd0     libucrt:lcidtoname_downlevel.obj
 0002:00004bd8       ??_C@_15GLJCBFMD@?$AAr?$AAo?$AA?$AA@ 000000018005cbd8     libucrt:lcidtoname_downlevel.obj
 0002:00004be0       ??_C@_15FEDGKCDI@?$AAr?$AAu?$AA?$AA@ 000000018005cbe0     libucrt:lcidtoname_downlevel.obj
 0002:00004be8       ??_C@_15GLKMLLHM@?$AAh?$AAr?$AA?$AA@ 000000018005cbe8     libucrt:lcidtoname_downlevel.obj
 0002:00004bf0       ??_C@_15CPKMFBDB@?$AAs?$AAk?$AA?$AA@ 000000018005cbf0     libucrt:lcidtoname_downlevel.obj
 0002:00004bf8       ??_C@_15BAAIOGMK@?$AAs?$AAq?$AA?$AA@ 000000018005cbf8     libucrt:lcidtoname_downlevel.obj
 0002:00004c00       ??_C@_15INNPNOHD@?$AAs?$AAv?$AA?$AA@ 000000018005cc00     libucrt:lcidtoname_downlevel.obj
 0002:00004c08       ??_C@_15CABMMOGH@?$AAt?$AAh?$AA?$AA@ 000000018005cc08     libucrt:lcidtoname_downlevel.obj
 0002:00004c10       ??_C@_15BPLIHJJM@?$AAt?$AAr?$AA?$AA@ 000000018005cc10     libucrt:lcidtoname_downlevel.obj
 0002:00004c18       ??_C@_15NEOEKKDJ@?$AAu?$AAr?$AA?$AA@ 000000018005cc18     libucrt:lcidtoname_downlevel.obj
 0002:00004c20       ??_C@_15NFICGAJK@?$AAi?$AAd?$AA?$AA@ 000000018005cc20     libucrt:lcidtoname_downlevel.obj
 0002:00004c28       ??_C@_15HPJPHDM@?$AAb?$AAe?$AA?$AA@ 000000018005cc28     libucrt:lcidtoname_downlevel.obj
 0002:00004c30       ??_C@_15LCHLGJII@?$AAs?$AAl?$AA?$AA@ 000000018005cc30     libucrt:lcidtoname_downlevel.obj
 0002:00004c38       ??_C@_15PCFJPHHO@?$AAe?$AAt?$AA?$AA@ 000000018005cc38     libucrt:lcidtoname_downlevel.obj
 0002:00004c40       ??_C@_15HPFPGODN@?$AAl?$AAv?$AA?$AA@ 000000018005cc40     libucrt:lcidtoname_downlevel.obj
 0002:00004c48       ??_C@_15NFFGKGLG@?$AAl?$AAt?$AA?$AA@ 000000018005cc48     libucrt:lcidtoname_downlevel.obj
 0002:00004c50       ??_C@_15BDAKCCHN@?$AAf?$AAa?$AA?$AA@ 000000018005cc50     libucrt:lcidtoname_downlevel.obj
 0002:00004c58       ??_C@_15NFGIAIAJ@?$AAv?$AAi?$AA?$AA@ 000000018005cc58     libucrt:lcidtoname_downlevel.obj
 0002:00004c60       ??_C@_15LMKNDMHN@?$AAh?$AAy?$AA?$AA@ 000000018005cc60     libucrt:lcidtoname_downlevel.obj
 0002:00004c68       ??_C@_15IJBHMCFL@?$AAa?$AAz?$AA?$AA@ 000000018005cc68     libucrt:lcidtoname_downlevel.obj
 0002:00004c70       ??_C@_15EKOFJABL@?$AAe?$AAu?$AA?$AA@ 000000018005cc70     libucrt:lcidtoname_downlevel.obj
 0002:00004c78       ??_C@_15BGHADCNK@?$AAm?$AAk?$AA?$AA@ 000000018005cc78     libucrt:lcidtoname_downlevel.obj
 0002:00004c80       ??_C@_15JDNICKHM@?$AAa?$AAf?$AA?$AA@ 000000018005cc80     libucrt:lcidtoname_downlevel.obj
 0002:00004c88       ??_C@_15KPJEDBKD@?$AAk?$AAa?$AA?$AA@ 000000018005cc88     libucrt:lcidtoname_downlevel.obj
 0002:00004c90       ??_C@_15PDNFFFEO@?$AAf?$AAo?$AA?$AA@ 000000018005cc90     libucrt:lcidtoname_downlevel.obj
 0002:00004c98       ??_C@_15OMLEGLOC@?$AAh?$AAi?$AA?$AA@ 000000018005cc98     libucrt:lcidtoname_downlevel.obj
 0002:00004ca0       ??_C@_15IDNNENKK@?$AAm?$AAs?$AA?$AA@ 000000018005cca0     libucrt:lcidtoname_downlevel.obj
 0002:00004ca8       ??_C@_15MACJNBMH@?$AAk?$AAk?$AA?$AA@ 000000018005cca8     libucrt:lcidtoname_downlevel.obj
 0002:00004cb0       ??_C@_15DKDJEOND@?$AAk?$AAy?$AA?$AA@ 000000018005ccb0     libucrt:lcidtoname_downlevel.obj
 0002:00004cb8       ??_C@_15DFGDLJBG@?$AAs?$AAw?$AA?$AA@ 000000018005ccb8     libucrt:lcidtoname_downlevel.obj
 0002:00004cc0       ??_C@_15BBFAICNG@?$AAu?$AAz?$AA?$AA@ 000000018005ccc0     libucrt:lcidtoname_downlevel.obj
 0002:00004cc8       ??_C@_15DKNDCGEA@?$AAt?$AAt?$AA?$AA@ 000000018005ccc8     libucrt:lcidtoname_downlevel.obj
 0002:00004cd0       ??_C@_15MGIFMDPL@?$AAp?$AAa?$AA?$AA@ 000000018005ccd0     libucrt:lcidtoname_downlevel.obj
 0002:00004cd8       ??_C@_15HCNDBBA@?$AAg?$AAu?$AA?$AA@ 000000018005ccd8     libucrt:lcidtoname_downlevel.obj
 0002:00004ce0       ??_C@_15FNBEIBON@?$AAt?$AAa?$AA?$AA@ 000000018005cce0     libucrt:lcidtoname_downlevel.obj
 0002:00004ce8       ??_C@_15NCHGBGLK@?$AAt?$AAe?$AA?$AA@ 000000018005cce8     libucrt:lcidtoname_downlevel.obj
 0002:00004cf0       ??_C@_15PHPHCBPF@?$AAk?$AAn?$AA?$AA@ 000000018005ccf0     libucrt:lcidtoname_downlevel.obj
 0002:00004cf8       ??_C@_15DLGBCKMP@?$AAm?$AAr?$AA?$AA@ 000000018005ccf8     libucrt:lcidtoname_downlevel.obj
 0002:00004d00       ??_C@_15EABBLBFF@?$AAs?$AAa?$AA?$AA@ 000000018005cd00     libucrt:lcidtoname_downlevel.obj
 0002:00004d08       ??_C@_15CBKOMCOI@?$AAm?$AAn?$AA?$AA@ 000000018005cd08     libucrt:lcidtoname_downlevel.obj
 0002:00004d10       ??_C@_15CKDMCJAF@?$AAg?$AAl?$AA?$AA@ 000000018005cd10     libucrt:lcidtoname_downlevel.obj
 0002:00004d18       ??_C@_17CNJFBPG@?$AAk?$AAo?$AAk?$AA?$AA@ 000000018005cd18     libucrt:lcidtoname_downlevel.obj
 0002:00004d20       ??_C@_17FFBJICPL@?$AAs?$AAy?$AAr?$AA?$AA@ 000000018005cd20     libucrt:lcidtoname_downlevel.obj
 0002:00004d28       ??_C@_17KPNDCPAF@?$AAd?$AAi?$AAv?$AA?$AA@ 000000018005cd28     libucrt:lcidtoname_downlevel.obj
 0002:00004d30       ??_C@_11LOCGONAA@?$AA?$AA@ 000000018005cd30     libucrt:lcidtoname_downlevel.obj
 0002:00004d38       ??_C@_1M@OKAHONE@?$AAa?$AAr?$AA?9?$AAS?$AAA?$AA?$AA@ 000000018005cd38     libucrt:lcidtoname_downlevel.obj
 0002:00004d48       ??_C@_1M@FFFIGIGK@?$AAb?$AAg?$AA?9?$AAB?$AAG?$AA?$AA@ 000000018005cd48     libucrt:lcidtoname_downlevel.obj
 0002:00004d58       ??_C@_1M@BJNKEDC@?$AAc?$AAa?$AA?9?$AAE?$AAS?$AA?$AA@ 000000018005cd58     libucrt:lcidtoname_downlevel.obj
 0002:00004d68       ??_C@_1M@IJJHFJHA@?$AAc?$AAs?$AA?9?$AAC?$AAZ?$AA?$AA@ 000000018005cd68     libucrt:lcidtoname_downlevel.obj
 0002:00004d78       ??_C@_1M@CLPEOBGI@?$AAd?$AAa?$AA?9?$AAD?$AAK?$AA?$AA@ 000000018005cd78     libucrt:lcidtoname_downlevel.obj
 0002:00004d88       ??_C@_1M@MCMADGCB@?$AAd?$AAe?$AA?9?$AAD?$AAE?$AA?$AA@ 000000018005cd88     libucrt:lcidtoname_downlevel.obj
 0002:00004d98       ??_C@_1M@OOCKEMAM@?$AAe?$AAl?$AA?9?$AAG?$AAR?$AA?$AA@ 000000018005cd98     libucrt:lcidtoname_downlevel.obj
 0002:00004da8       ??_C@_1M@DDNJFGID@?$AAf?$AAi?$AA?9?$AAF?$AAI?$AA?$AA@ 000000018005cda8     libucrt:lcidtoname_downlevel.obj
 0002:00004db8       ??_C@_1M@GLIPPMAC@?$AAf?$AAr?$AA?9?$AAF?$AAR?$AA?$AA@ 000000018005cdb8     libucrt:lcidtoname_downlevel.obj
 0002:00004dc8       ??_C@_1M@GFMCHPE@?$AAh?$AAe?$AA?9?$AAI?$AAL?$AA?$AA@ 000000018005cdc8     libucrt:lcidtoname_downlevel.obj
 0002:00004dd8       ??_C@_1M@MHLPGNKM@?$AAh?$AAu?$AA?9?$AAH?$AAU?$AA?$AA@ 000000018005cdd8     libucrt:lcidtoname_downlevel.obj
 0002:00004de8       ??_C@_1M@LPDDNNPN@?$AAi?$AAs?$AA?9?$AAI?$AAS?$AA?$AA@ 000000018005cde8     libucrt:lcidtoname_downlevel.obj
 0002:00004df8       ??_C@_1M@MADIPODN@?$AAi?$AAt?$AA?9?$AAI?$AAT?$AA?$AA@ 000000018005cdf8     libucrt:lcidtoname_downlevel.obj
 0002:00004e08       ??_C@_1M@IHBJJGG@?$AAn?$AAl?$AA?9?$AAN?$AAL?$AA?$AA@ 000000018005ce08     libucrt:lcidtoname_downlevel.obj
 0002:00004e18       ??_C@_1M@EANAGDL@?$AAn?$AAb?$AA?9?$AAN?$AAO?$AA?$AA@ 000000018005ce18     libucrt:lcidtoname_downlevel.obj
 0002:00004e28       ??_C@_1M@NEIEMEGP@?$AAp?$AAl?$AA?9?$AAP?$AAL?$AA?$AA@ 000000018005ce28     libucrt:lcidtoname_downlevel.obj
 0002:00004e38       ??_C@_1M@BOCFIGEP@?$AAp?$AAt?$AA?9?$AAB?$AAR?$AA?$AA@ 000000018005ce38     libucrt:lcidtoname_downlevel.obj
 0002:00004e48       ??_C@_1M@IMPFOPBG@?$AAr?$AAo?$AA?9?$AAR?$AAO?$AA?$AA@ 000000018005ce48     libucrt:lcidtoname_downlevel.obj
 0002:00004e58       ??_C@_1M@IDNNEJMM@?$AAr?$AAu?$AA?9?$AAR?$AAU?$AA?$AA@ 000000018005ce58     libucrt:lcidtoname_downlevel.obj
 0002:00004e68       ??_C@_1M@LILEEOGM@?$AAh?$AAr?$AA?9?$AAH?$AAR?$AA?$AA@ 000000018005ce68     libucrt:lcidtoname_downlevel.obj
 0002:00004e78       ??_C@_1M@FKIFEHPB@?$AAs?$AAk?$AA?9?$AAS?$AAK?$AA?$AA@ 000000018005ce78     libucrt:lcidtoname_downlevel.obj
 0002:00004e88       ??_C@_1M@LJMAMNPJ@?$AAs?$AAq?$AA?9?$AAA?$AAL?$AA?$AA@ 000000018005ce88     libucrt:lcidtoname_downlevel.obj
 0002:00004e98       ??_C@_1M@GIAKDKJK@?$AAs?$AAv?$AA?9?$AAS?$AAE?$AA?$AA@ 000000018005ce98     libucrt:lcidtoname_downlevel.obj
 0002:00004ea8       ??_C@_1M@MKJKIKCL@?$AAt?$AAh?$AA?9?$AAT?$AAH?$AA?$AA@ 000000018005cea8     libucrt:lcidtoname_downlevel.obj
 0002:00004eb8       ??_C@_1M@MFLCCMPB@?$AAt?$AAr?$AA?9?$AAT?$AAR?$AA?$AA@ 000000018005ceb8     libucrt:lcidtoname_downlevel.obj
 0002:00004ec8       ??_C@_1M@OIJHDKJN@?$AAu?$AAr?$AA?9?$AAP?$AAK?$AA?$AA@ 000000018005cec8     libucrt:lcidtoname_downlevel.obj
 0002:00004ed8       ??_C@_1M@LHIPCIEK@?$AAi?$AAd?$AA?9?$AAI?$AAD?$AA?$AA@ 000000018005ced8     libucrt:lcidtoname_downlevel.obj
 0002:00004ee8       ??_C@_1M@MFMOBGI@?$AAu?$AAk?$AA?9?$AAU?$AAA?$AA?$AA@ 000000018005cee8     libucrt:lcidtoname_downlevel.obj
 0002:00004ef8       ??_C@_1M@OBGLJIPL@?$AAb?$AAe?$AA?9?$AAB?$AAY?$AA?$AA@ 000000018005cef8     libucrt:lcidtoname_downlevel.obj
 0002:00004f08       ??_C@_1M@BCFAJEAD@?$AAs?$AAl?$AA?9?$AAS?$AAI?$AA?$AA@ 000000018005cf08     libucrt:lcidtoname_downlevel.obj
 0002:00004f18       ??_C@_1M@FKFFEDDN@?$AAe?$AAt?$AA?9?$AAE?$AAE?$AA?$AA@ 000000018005cf18     libucrt:lcidtoname_downlevel.obj
 0002:00004f28       ??_C@_1M@KGKKAACI@?$AAl?$AAv?$AA?9?$AAL?$AAV?$AA?$AA@ 000000018005cf28     libucrt:lcidtoname_downlevel.obj
 0002:00004f38       ??_C@_1M@IFGBIJO@?$AAl?$AAt?$AA?9?$AAL?$AAT?$AA?$AA@ 000000018005cf38     libucrt:lcidtoname_downlevel.obj
 0002:00004f48       ??_C@_1M@FGEAHEDM@?$AAf?$AAa?$AA?9?$AAI?$AAR?$AA?$AA@ 000000018005cf48     libucrt:lcidtoname_downlevel.obj
 0002:00004f58       ??_C@_1M@KBMAIBFN@?$AAv?$AAi?$AA?9?$AAV?$AAN?$AA?$AA@ 000000018005cf58     libucrt:lcidtoname_downlevel.obj
 0002:00004f68       ??_C@_1M@GPCBKDJK@?$AAh?$AAy?$AA?9?$AAA?$AAM?$AA?$AA@ 000000018005cf68     libucrt:lcidtoname_downlevel.obj
 0002:00004f78       ??_C@_1BG@BECMDDJB@?$AAa?$AAz?$AA?9?$AAA?$AAZ?$AA?9?$AAL?$AAa?$AAt?$AAn?$AA?$AA@ 000000018005cf78     libucrt:lcidtoname_downlevel.obj
 0002:00004f90       ??_C@_1M@MAOFCAEA@?$AAe?$AAu?$AA?9?$AAE?$AAS?$AA?$AA@ 000000018005cf90     libucrt:lcidtoname_downlevel.obj
 0002:00004fa0       ??_C@_1M@IGHABKPI@?$AAm?$AAk?$AA?9?$AAM?$AAK?$AA?$AA@ 000000018005cfa0     libucrt:lcidtoname_downlevel.obj
 0002:00004fb0       ??_C@_1M@IAIGNEJG@?$AAt?$AAn?$AA?9?$AAZ?$AAA?$AA?$AA@ 000000018005cfb0     libucrt:lcidtoname_downlevel.obj
 0002:00004fc0       ??_C@_1M@IIJCOJFA@?$AAx?$AAh?$AA?9?$AAZ?$AAA?$AA?$AA@ 000000018005cfc0     libucrt:lcidtoname_downlevel.obj
 0002:00004fd0       ??_C@_1M@LGPJHNJH@?$AAz?$AAu?$AA?9?$AAZ?$AAA?$AA?$AA@ 000000018005cfd0     libucrt:lcidtoname_downlevel.obj
 0002:00004fe0       ??_C@_1M@HOKAOIO@?$AAa?$AAf?$AA?9?$AAZ?$AAA?$AA?$AA@ 000000018005cfe0     libucrt:lcidtoname_downlevel.obj
 0002:00004ff0       ??_C@_1M@DPCLHLIE@?$AAk?$AAa?$AA?9?$AAG?$AAE?$AA?$AA@ 000000018005cff0     libucrt:lcidtoname_downlevel.obj
 0002:00005000       ??_C@_1M@BLKMHJBI@?$AAf?$AAo?$AA?9?$AAF?$AAO?$AA?$AA@ 000000018005d000     libucrt:lcidtoname_downlevel.obj
 0002:00005010       ??_C@_1M@LGGJAPPB@?$AAh?$AAi?$AA?9?$AAI?$AAN?$AA?$AA@ 000000018005d010     libucrt:lcidtoname_downlevel.obj
 0002:00005020       ??_C@_1M@FIKPIHFE@?$AAm?$AAt?$AA?9?$AAM?$AAT?$AA?$AA@ 000000018005d020     libucrt:lcidtoname_downlevel.obj
 0002:00005030       ??_C@_1M@HEGGPBFA@?$AAs?$AAe?$AA?9?$AAN?$AAO?$AA?$AA@ 000000018005d030     libucrt:lcidtoname_downlevel.obj
 0002:00005040       ??_C@_1M@EIBJEEPA@?$AAm?$AAs?$AA?9?$AAM?$AAY?$AA?$AA@ 000000018005d040     libucrt:lcidtoname_downlevel.obj
 0002:00005050       ??_C@_1M@FHLBGMPP@?$AAk?$AAk?$AA?9?$AAK?$AAZ?$AA?$AA@ 000000018005d050     libucrt:lcidtoname_downlevel.obj
 0002:00005060       ??_C@_1M@NGJJLCGI@?$AAk?$AAy?$AA?9?$AAK?$AAG?$AA?$AA@ 000000018005d060     libucrt:lcidtoname_downlevel.obj
 0002:00005070       ??_C@_1M@GIENNBFC@?$AAs?$AAw?$AA?9?$AAK?$AAE?$AA?$AA@ 000000018005d070     libucrt:lcidtoname_downlevel.obj
 0002:00005080       ??_C@_1BG@NDGMJIMJ@?$AAu?$AAz?$AA?9?$AAU?$AAZ?$AA?9?$AAL?$AAa?$AAt?$AAn?$AA?$AA@ 000000018005d080     libucrt:lcidtoname_downlevel.obj
 0002:00005098       ??_C@_1M@IDCCIHBC@?$AAt?$AAt?$AA?9?$AAR?$AAU?$AA?$AA@ 000000018005d098     libucrt:lcidtoname_downlevel.obj
 0002:000050a8       ??_C@_1M@LOICPMOJ@?$AAb?$AAn?$AA?9?$AAI?$AAN?$AA?$AA@ 000000018005d0a8     libucrt:lcidtoname_downlevel.obj
 0002:000050b8       ??_C@_1M@KPKKNEAH@?$AAp?$AAa?$AA?9?$AAI?$AAN?$AA?$AA@ 000000018005d0b8     libucrt:lcidtoname_downlevel.obj
 0002:000050c8       ??_C@_1M@PJGPPBOG@?$AAg?$AAu?$AA?9?$AAI?$AAN?$AA?$AA@ 000000018005d0c8     libucrt:lcidtoname_downlevel.obj
 0002:000050d8       ??_C@_1M@KMKMOPHI@?$AAt?$AAa?$AA?9?$AAI?$AAN?$AA?$AA@ 000000018005d0d8     libucrt:lcidtoname_downlevel.obj
 0002:000050e8       ??_C@_1M@KFEHEPAC@?$AAt?$AAe?$AA?9?$AAI?$AAN?$AA?$AA@ 000000018005d0e8     libucrt:lcidtoname_downlevel.obj
 0002:000050f8       ??_C@_1M@CDCLMGHI@?$AAk?$AAn?$AA?9?$AAI?$AAN?$AA?$AA@ 000000018005d0f8     libucrt:lcidtoname_downlevel.obj
 0002:00005108       ??_C@_1M@MIODLDKF@?$AAm?$AAl?$AA?9?$AAI?$AAN?$AA?$AA@ 000000018005d108     libucrt:lcidtoname_downlevel.obj
 0002:00005118       ??_C@_1M@PBIEACPO@?$AAm?$AAr?$AA?9?$AAI?$AAN?$AA?$AA@ 000000018005d118     libucrt:lcidtoname_downlevel.obj
 0002:00005128       ??_C@_1M@NIDEAGPH@?$AAs?$AAa?$AA?9?$AAI?$AAN?$AA?$AA@ 000000018005d128     libucrt:lcidtoname_downlevel.obj
 0002:00005138       ??_C@_1M@FHIHCBIO@?$AAm?$AAn?$AA?9?$AAM?$AAN?$AA?$AA@ 000000018005d138     libucrt:lcidtoname_downlevel.obj
 0002:00005148       ??_C@_1M@JAIJPENP@?$AAc?$AAy?$AA?9?$AAG?$AAB?$AA?$AA@ 000000018005d148     libucrt:lcidtoname_downlevel.obj
 0002:00005158       ??_C@_1M@PHGFBEPN@?$AAg?$AAl?$AA?9?$AAE?$AAS?$AA?$AA@ 000000018005d158     libucrt:lcidtoname_downlevel.obj
 0002:00005168       ??_C@_1O@KPIPDNCP@?$AAk?$AAo?$AAk?$AA?9?$AAI?$AAN?$AA?$AA@ 000000018005d168     libucrt:lcidtoname_downlevel.obj
 0002:00005178       ??_C@_1O@KNHJLDJA@?$AAs?$AAy?$AAr?$AA?9?$AAS?$AAY?$AA?$AA@ 000000018005d178     libucrt:lcidtoname_downlevel.obj
 0002:00005188       ??_C@_1O@MKEKBLAH@?$AAd?$AAi?$AAv?$AA?9?$AAM?$AAV?$AA?$AA@ 000000018005d188     libucrt:lcidtoname_downlevel.obj
 0002:00005198       ??_C@_1O@OHDCKDDF@?$AAq?$AAu?$AAz?$AA?9?$AAB?$AAO?$AA?$AA@ 000000018005d198     libucrt:lcidtoname_downlevel.obj
 0002:000051a8       ??_C@_1M@LEPJNLFD@?$AAn?$AAs?$AA?9?$AAZ?$AAA?$AA?$AA@ 000000018005d1a8     libucrt:lcidtoname_downlevel.obj
 0002:000051b8       ??_C@_1M@OMLEIIJB@?$AAm?$AAi?$AA?9?$AAN?$AAZ?$AA?$AA@ 000000018005d1b8     libucrt:lcidtoname_downlevel.obj
 0002:000051c8       ??_C@_1M@PMPEAILG@?$AAa?$AAr?$AA?9?$AAI?$AAQ?$AA?$AA@ 000000018005d1c8     libucrt:lcidtoname_downlevel.obj
 0002:000051d8       ??_C@_1M@CNKPNOEE@?$AAd?$AAe?$AA?9?$AAC?$AAH?$AA?$AA@ 000000018005d1d8     libucrt:lcidtoname_downlevel.obj
 0002:000051e8       ??_C@_1M@LKMGMLKO@?$AAe?$AAn?$AA?9?$AAG?$AAB?$AA?$AA@ 000000018005d1e8     libucrt:lcidtoname_downlevel.obj
 0002:000051f8       ??_C@_1M@PGKJFFGL@?$AAe?$AAs?$AA?9?$AAM?$AAX?$AA?$AA@ 000000018005d1f8     libucrt:lcidtoname_downlevel.obj
 0002:00005208       ??_C@_1M@DNNANBDC@?$AAf?$AAr?$AA?9?$AAB?$AAE?$AA?$AA@ 000000018005d208     libucrt:lcidtoname_downlevel.obj
 0002:00005218       ??_C@_1M@HLGMDFHM@?$AAi?$AAt?$AA?9?$AAC?$AAH?$AA?$AA@ 000000018005d218     libucrt:lcidtoname_downlevel.obj
 0002:00005228       ??_C@_1M@CLLBGJH@?$AAn?$AAl?$AA?9?$AAB?$AAE?$AA?$AA@ 000000018005d228     libucrt:lcidtoname_downlevel.obj
 0002:00005238       ??_C@_1M@BODBOGLF@?$AAn?$AAn?$AA?9?$AAN?$AAO?$AA?$AA@ 000000018005d238     libucrt:lcidtoname_downlevel.obj
 0002:00005248       ??_C@_1M@HFFAHKAD@?$AAp?$AAt?$AA?9?$AAP?$AAT?$AA?$AA@ 000000018005d248     libucrt:lcidtoname_downlevel.obj
 0002:00005258       ??_C@_1BG@LNOAKHIE@?$AAs?$AAr?$AA?9?$AAS?$AAP?$AA?9?$AAL?$AAa?$AAt?$AAn?$AA?$AA@ 000000018005d258     libucrt:lcidtoname_downlevel.obj
 0002:00005270       ??_C@_1M@HBMHBGAK@?$AAs?$AAv?$AA?9?$AAF?$AAI?$AA?$AA@ 000000018005d270     libucrt:lcidtoname_downlevel.obj
 0002:00005280       ??_C@_1BG@DGCJGJBE@?$AAa?$AAz?$AA?9?$AAA?$AAZ?$AA?9?$AAC?$AAy?$AAr?$AAl?$AA?$AA@ 000000018005d280     libucrt:lcidtoname_downlevel.obj
 0002:00005298       ??_C@_1M@KEJDAAHB@?$AAs?$AAe?$AA?9?$AAS?$AAE?$AA?$AA@ 000000018005d298     libucrt:lcidtoname_downlevel.obj
 0002:000052a8       ??_C@_1M@HEIBJJAD@?$AAm?$AAs?$AA?9?$AAB?$AAN?$AA?$AA@ 000000018005d2a8     libucrt:lcidtoname_downlevel.obj
 0002:000052b8       ??_C@_1BG@PBGJMCEM@?$AAu?$AAz?$AA?9?$AAU?$AAZ?$AA?9?$AAC?$AAy?$AAr?$AAl?$AA?$AA@ 000000018005d2b8     libucrt:lcidtoname_downlevel.obj
 0002:000052d0       ??_C@_1O@LAOBCMDF@?$AAq?$AAu?$AAz?$AA?9?$AAE?$AAC?$AA?$AA@ 000000018005d2d0     libucrt:lcidtoname_downlevel.obj
 0002:000052e0       ??_C@_1M@POEEMAIO@?$AAa?$AAr?$AA?9?$AAE?$AAG?$AA?$AA@ 000000018005d2e0     libucrt:lcidtoname_downlevel.obj
 0002:000052f0       ??_C@_1M@EFAKDEDL@?$AAz?$AAh?$AA?9?$AAH?$AAK?$AA?$AA@ 000000018005d2f0     libucrt:lcidtoname_downlevel.obj
 0002:00005300       ??_C@_1M@HKKIJHGI@?$AAd?$AAe?$AA?9?$AAA?$AAT?$AA?$AA@ 000000018005d300     libucrt:lcidtoname_downlevel.obj
 0002:00005310       ??_C@_1M@KBFBEHJF@?$AAe?$AAn?$AA?9?$AAA?$AAU?$AA?$AA@ 000000018005d310     libucrt:lcidtoname_downlevel.obj
 0002:00005320       ??_C@_1M@MNPLFAAH@?$AAe?$AAs?$AA?9?$AAE?$AAS?$AA?$AA@ 000000018005d320     libucrt:lcidtoname_downlevel.obj
 0002:00005330       ??_C@_1M@HJOOJFMA@?$AAf?$AAr?$AA?9?$AAC?$AAA?$AA?$AA@ 000000018005d330     libucrt:lcidtoname_downlevel.obj
 0002:00005340       ??_C@_1BG@JPOFPNAB@?$AAs?$AAr?$AA?9?$AAS?$AAP?$AA?9?$AAC?$AAy?$AAr?$AAl?$AA?$AA@ 000000018005d340     libucrt:lcidtoname_downlevel.obj
 0002:00005358       ??_C@_1M@LNFOCMOB@?$AAs?$AAe?$AA?9?$AAF?$AAI?$AA?$AA@ 000000018005d358     libucrt:lcidtoname_downlevel.obj
 0002:00005368       ??_C@_1O@MGJBOAMB@?$AAq?$AAu?$AAz?$AA?9?$AAP?$AAE?$AA?$AA@ 000000018005d368     libucrt:lcidtoname_downlevel.obj
 0002:00005378       ??_C@_1M@GJINLBOK@?$AAa?$AAr?$AA?9?$AAL?$AAY?$AA?$AA@ 000000018005d378     libucrt:lcidtoname_downlevel.obj
 0002:00005388       ??_C@_1M@GGMNHJNL@?$AAz?$AAh?$AA?9?$AAS?$AAG?$AA?$AA@ 000000018005d388     libucrt:lcidtoname_downlevel.obj
 0002:00005398       ??_C@_1M@HOIKODND@?$AAd?$AAe?$AA?9?$AAL?$AAU?$AA?$AA@ 000000018005d398     libucrt:lcidtoname_downlevel.obj
 0002:000053a8       ??_C@_1M@DDOCCGFG@?$AAe?$AAn?$AA?9?$AAC?$AAA?$AA?$AA@ 000000018005d3a8     libucrt:lcidtoname_downlevel.obj
 0002:000053b8       ??_C@_1M@BNOEMJLF@?$AAe?$AAs?$AA?9?$AAG?$AAT?$AA?$AA@ 000000018005d3b8     libucrt:lcidtoname_downlevel.obj
 0002:000053c8       ??_C@_1M@EOGNKEK@?$AAf?$AAr?$AA?9?$AAC?$AAH?$AA?$AA@ 000000018005d3c8     libucrt:lcidtoname_downlevel.obj
 0002:000053d8       ??_C@_1M@FLIDJFHL@?$AAh?$AAr?$AA?9?$AAB?$AAA?$AA?$AA@ 000000018005d3d8     libucrt:lcidtoname_downlevel.obj
 0002:000053e8       ??_C@_1O@FMCELNAJ@?$AAs?$AAm?$AAj?$AA?9?$AAN?$AAO?$AA?$AA@ 000000018005d3e8     libucrt:lcidtoname_downlevel.obj
 0002:000053f8       ??_C@_1M@JHGLJMGJ@?$AAa?$AAr?$AA?9?$AAD?$AAZ?$AA?$AA@ 000000018005d3f8     libucrt:lcidtoname_downlevel.obj
 0002:00005408       ??_C@_1M@JKKFDCNP@?$AAz?$AAh?$AA?9?$AAM?$AAO?$AA?$AA@ 000000018005d408     libucrt:lcidtoname_downlevel.obj
 0002:00005418       ??_C@_1M@GEEFALPE@?$AAd?$AAe?$AA?9?$AAL?$AAI?$AA?$AA@ 000000018005d418     libucrt:lcidtoname_downlevel.obj
 0002:00005428       ??_C@_1M@IGEOFBG@?$AAe?$AAn?$AA?9?$AAN?$AAZ?$AA?$AA@ 000000018005d428     libucrt:lcidtoname_downlevel.obj
 0002:00005438       ??_C@_1M@KDBONEHP@?$AAe?$AAs?$AA?9?$AAC?$AAR?$AA?$AA@ 000000018005d438     libucrt:lcidtoname_downlevel.obj
 0002:00005448       ??_C@_1M@FHMDOHNN@?$AAf?$AAr?$AA?9?$AAL?$AAU?$AA?$AA@ 000000018005d448     libucrt:lcidtoname_downlevel.obj
 0002:00005458       ??_C@_1BG@NFKKMAFG@?$AAb?$AAs?$AA?9?$AAB?$AAA?$AA?9?$AAL?$AAa?$AAt?$AAn?$AA?$AA@ 000000018005d458     libucrt:lcidtoname_downlevel.obj
 0002:00005470       ??_C@_1O@IMNBEMCI@?$AAs?$AAm?$AAj?$AA?9?$AAS?$AAE?$AA?$AA@ 000000018005d470     libucrt:lcidtoname_downlevel.obj
 0002:00005480       ??_C@_1M@DHHMBNDP@?$AAa?$AAr?$AA?9?$AAM?$AAA?$AA?$AA@ 000000018005d480     libucrt:lcidtoname_downlevel.obj
 0002:00005490       ??_C@_1M@BNBLJCGH@?$AAe?$AAn?$AA?9?$AAI?$AAE?$AA?$AA@ 000000018005d490     libucrt:lcidtoname_downlevel.obj
 0002:000054a0       ??_C@_1M@GEPAFMDL@?$AAe?$AAs?$AA?9?$AAP?$AAA?$AA?$AA@ 000000018005d4a0     libucrt:lcidtoname_downlevel.obj
 0002:000054b0       ??_C@_1M@OJONDMDL@?$AAf?$AAr?$AA?9?$AAM?$AAC?$AA?$AA@ 000000018005d4b0     libucrt:lcidtoname_downlevel.obj
 0002:000054c0       ??_C@_1BG@OBCNFJB@?$AAs?$AAr?$AA?9?$AAB?$AAA?$AA?9?$AAL?$AAa?$AAt?$AAn?$AA?$AA@ 000000018005d4c0     libucrt:lcidtoname_downlevel.obj
 0002:000054d8       ??_C@_1O@KEMEEGPO@?$AAs?$AAm?$AAa?$AA?9?$AAN?$AAO?$AA?$AA@ 000000018005d4d8     libucrt:lcidtoname_downlevel.obj
 0002:000054e8       ??_C@_1M@ELMGFODK@?$AAa?$AAr?$AA?9?$AAT?$AAN?$AA?$AA@ 000000018005d4e8     libucrt:lcidtoname_downlevel.obj
 0002:000054f8       ??_C@_1M@BHDLHFAF@?$AAe?$AAn?$AA?9?$AAZ?$AAA?$AA?$AA@ 000000018005d4f8     libucrt:lcidtoname_downlevel.obj
 0002:00005508       ??_C@_1M@BMGIGLIF@?$AAe?$AAs?$AA?9?$AAD?$AAO?$AA?$AA@ 000000018005d508     libucrt:lcidtoname_downlevel.obj
 0002:00005518       ??_C@_1BG@CMBHIPBE@?$AAs?$AAr?$AA?9?$AAB?$AAA?$AA?9?$AAC?$AAy?$AAr?$AAl?$AA?$AA@ 000000018005d518     libucrt:lcidtoname_downlevel.obj
 0002:00005530       ??_C@_1O@HEDBLHNP@?$AAs?$AAm?$AAa?$AA?9?$AAS?$AAE?$AA?$AA@ 000000018005d530     libucrt:lcidtoname_downlevel.obj
 0002:00005540       ??_C@_1M@DAGCADIM@?$AAa?$AAr?$AA?9?$AAO?$AAM?$AA?$AA@ 000000018005d540     libucrt:lcidtoname_downlevel.obj
 0002:00005550       ??_C@_1M@FODLMICG@?$AAe?$AAn?$AA?9?$AAJ?$AAM?$AA?$AA@ 000000018005d550     libucrt:lcidtoname_downlevel.obj
 0002:00005560       ??_C@_1M@DNMLCIHB@?$AAe?$AAs?$AA?9?$AAV?$AAE?$AA?$AA@ 000000018005d560     libucrt:lcidtoname_downlevel.obj
 0002:00005570       ??_C@_1O@EOKHMKJK@?$AAs?$AAm?$AAs?$AA?9?$AAF?$AAI?$AA?$AA@ 000000018005d570     libucrt:lcidtoname_downlevel.obj
 0002:00005580       ??_C@_1M@CAFJMKOF@?$AAa?$AAr?$AA?9?$AAY?$AAE?$AA?$AA@ 000000018005d580     libucrt:lcidtoname_downlevel.obj
 0002:00005590       ??_C@_1M@CBFHIJLI@?$AAe?$AAn?$AA?9?$AAC?$AAB?$AA?$AA@ 000000018005d590     libucrt:lcidtoname_downlevel.obj
 0002:000055a0       ??_C@_1M@BGNFLDN@?$AAe?$AAs?$AA?9?$AAC?$AAO?$AA?$AA@ 000000018005d5a0     libucrt:lcidtoname_downlevel.obj
 0002:000055b0       ??_C@_1O@JMPHMAMC@?$AAs?$AAm?$AAn?$AA?9?$AAF?$AAI?$AA?$AA@ 000000018005d5b0     libucrt:lcidtoname_downlevel.obj
 0002:000055c0       ??_C@_1M@JLANABKE@?$AAa?$AAr?$AA?9?$AAS?$AAY?$AA?$AA@ 000000018005d5c0     libucrt:lcidtoname_downlevel.obj
 0002:000055d0       ??_C@_1M@HPKGCFGN@?$AAe?$AAn?$AA?9?$AAB?$AAZ?$AA?$AA@ 000000018005d5d0     libucrt:lcidtoname_downlevel.obj
 0002:000055e0       ??_C@_1M@OLJCMLGM@?$AAe?$AAs?$AA?9?$AAP?$AAE?$AA?$AA@ 000000018005d5e0     libucrt:lcidtoname_downlevel.obj
 0002:000055f0       ??_C@_1M@MKKGFKLE@?$AAa?$AAr?$AA?9?$AAJ?$AAO?$AA?$AA@ 000000018005d5f0     libucrt:lcidtoname_downlevel.obj
 0002:00005600       ??_C@_1M@EKPGLDNI@?$AAe?$AAn?$AA?9?$AAT?$AAT?$AA?$AA@ 000000018005d600     libucrt:lcidtoname_downlevel.obj
 0002:00005610       ??_C@_1M@OONGHFHE@?$AAe?$AAs?$AA?9?$AAA?$AAR?$AA?$AA@ 000000018005d610     libucrt:lcidtoname_downlevel.obj
 0002:00005620       ??_C@_1M@OOJFGBHE@?$AAa?$AAr?$AA?9?$AAL?$AAB?$AA?$AA@ 000000018005d620     libucrt:lcidtoname_downlevel.obj
 0002:00005630       ??_C@_1M@GCEJHNEG@?$AAe?$AAn?$AA?9?$AAZ?$AAW?$AA?$AA@ 000000018005d630     libucrt:lcidtoname_downlevel.obj
 0002:00005640       ??_C@_1M@JNOCAHJI@?$AAe?$AAs?$AA?9?$AAE?$AAC?$AA?$AA@ 000000018005d640     libucrt:lcidtoname_downlevel.obj
 0002:00005650       ??_C@_1M@JEFHPGGB@?$AAa?$AAr?$AA?9?$AAK?$AAW?$AA?$AA@ 000000018005d650     libucrt:lcidtoname_downlevel.obj
 0002:00005660       ??_C@_1M@MLKIBJOJ@?$AAe?$AAn?$AA?9?$AAP?$AAH?$AA?$AA@ 000000018005d660     libucrt:lcidtoname_downlevel.obj
 0002:00005670       ??_C@_1M@BDNIPEND@?$AAe?$AAs?$AA?9?$AAC?$AAL?$AA?$AA@ 000000018005d670     libucrt:lcidtoname_downlevel.obj
 0002:00005680       ??_C@_1M@MPNMEKBD@?$AAa?$AAr?$AA?9?$AAA?$AAE?$AA?$AA@ 000000018005d680     libucrt:lcidtoname_downlevel.obj
 0002:00005690       ??_C@_1M@KBJALCPI@?$AAe?$AAs?$AA?9?$AAU?$AAY?$AA?$AA@ 000000018005d690     libucrt:lcidtoname_downlevel.obj
 0002:000056a0       ??_C@_1M@LLCCOAGA@?$AAa?$AAr?$AA?9?$AAB?$AAH?$AA?$AA@ 000000018005d6a0     libucrt:lcidtoname_downlevel.obj
 0002:000056b0       ??_C@_1M@PBFNCDEL@?$AAe?$AAs?$AA?9?$AAP?$AAY?$AA?$AA@ 000000018005d6b0     libucrt:lcidtoname_downlevel.obj
 0002:000056c0       ??_C@_1M@EDGINPNP@?$AAa?$AAr?$AA?9?$AAQ?$AAA?$AA?$AA@ 000000018005d6c0     libucrt:lcidtoname_downlevel.obj
 0002:000056d0       ??_C@_1M@MKDBIIJI@?$AAe?$AAs?$AA?9?$AAB?$AAO?$AA?$AA@ 000000018005d6d0     libucrt:lcidtoname_downlevel.obj
 0002:000056e0       ??_C@_1M@CPKKEBLD@?$AAe?$AAs?$AA?9?$AAS?$AAV?$AA?$AA@ 000000018005d6e0     libucrt:lcidtoname_downlevel.obj
 0002:000056f0       ??_C@_1M@NDBGMMJL@?$AAe?$AAs?$AA?9?$AAH?$AAN?$AA?$AA@ 000000018005d6f0     libucrt:lcidtoname_downlevel.obj
 0002:00005700       ??_C@_1M@JIJIBHDP@?$AAe?$AAs?$AA?9?$AAN?$AAI?$AA?$AA@ 000000018005d700     libucrt:lcidtoname_downlevel.obj
 0002:00005710       ??_C@_1M@CGFMKEEK@?$AAe?$AAs?$AA?9?$AAP?$AAR?$AA?$AA@ 000000018005d710     libucrt:lcidtoname_downlevel.obj
 0002:00005720       ??_C@_1O@ICJHKIIK@?$AAz?$AAh?$AA?9?$AAC?$AAH?$AAT?$AA?$AA@ 000000018005d720     libucrt:lcidtoname_downlevel.obj
 0002:00005730       ??_C@_15CLNEJCE@?$AAs?$AAr?$AA?$AA@ 000000018005d730     libucrt:lcidtoname_downlevel.obj
 0002:00006580       ??_C@_1M@KAHEKEIG@?$AAa?$AAf?$AA?9?$AAz?$AAa?$AA?$AA@ 000000018005e580     libucrt:lcidtoname_downlevel.obj
 0002:00006590       ??_C@_1M@GIECOABL@?$AAa?$AAr?$AA?9?$AAa?$AAe?$AA?$AA@ 000000018005e590     libucrt:lcidtoname_downlevel.obj
 0002:000065a0       ??_C@_1M@BMLMEKGI@?$AAa?$AAr?$AA?9?$AAb?$AAh?$AA?$AA@ 000000018005e5a0     libucrt:lcidtoname_downlevel.obj
 0002:000065b0       ??_C@_1M@DAPFDGGB@?$AAa?$AAr?$AA?9?$AAd?$AAz?$AA?$AA@ 000000018005e5b0     libucrt:lcidtoname_downlevel.obj
 0002:000065c0       ??_C@_1M@FJNKGKIG@?$AAa?$AAr?$AA?9?$AAe?$AAg?$AA?$AA@ 000000018005e5c0     libucrt:lcidtoname_downlevel.obj
 0002:000065d0       ??_C@_1M@FLGKKCLO@?$AAa?$AAr?$AA?9?$AAi?$AAq?$AA?$AA@ 000000018005e5d0     libucrt:lcidtoname_downlevel.obj
 0002:000065e0       ??_C@_1M@GNDIPALM@?$AAa?$AAr?$AA?9?$AAj?$AAo?$AA?$AA@ 000000018005e5e0     libucrt:lcidtoname_downlevel.obj
 0002:000065f0       ??_C@_1M@DDMJFMGJ@?$AAa?$AAr?$AA?9?$AAk?$AAw?$AA?$AA@ 000000018005e5f0     libucrt:lcidtoname_downlevel.obj
 0002:00006600       ??_C@_1M@EJALMLHM@?$AAa?$AAr?$AA?9?$AAl?$AAb?$AA?$AA@ 000000018005e600     libucrt:lcidtoname_downlevel.obj
 0002:00006610       ??_C@_1M@MOBDBLOC@?$AAa?$AAr?$AA?9?$AAl?$AAy?$AA?$AA@ 000000018005e610     libucrt:lcidtoname_downlevel.obj
 0002:00006620       ??_C@_1M@JAOCLHDH@?$AAa?$AAr?$AA?9?$AAm?$AAa?$AA?$AA@ 000000018005e620     libucrt:lcidtoname_downlevel.obj
 0002:00006630       ??_C@_1M@JHPMKJIE@?$AAa?$AAr?$AA?9?$AAo?$AAm?$AA?$AA@ 000000018005e630     libucrt:lcidtoname_downlevel.obj
 0002:00006640       ??_C@_1M@OEPGHFNH@?$AAa?$AAr?$AA?9?$AAq?$AAa?$AA?$AA@ 000000018005e640     libucrt:lcidtoname_downlevel.obj
 0002:00006650       ??_C@_1M@KJDONENM@?$AAa?$AAr?$AA?9?$AAs?$AAa?$AA?$AA@ 000000018005e650     libucrt:lcidtoname_downlevel.obj
 0002:00006660       ??_C@_1M@DMJDKLKM@?$AAa?$AAr?$AA?9?$AAs?$AAy?$AA?$AA@ 000000018005e660     libucrt:lcidtoname_downlevel.obj
 0002:00006670       ??_C@_1M@OMFIPEDC@?$AAa?$AAr?$AA?9?$AAt?$AAn?$AA?$AA@ 000000018005e670     libucrt:lcidtoname_downlevel.obj
 0002:00006680       ??_C@_1M@IHMHGAON@?$AAa?$AAr?$AA?9?$AAy?$AAe?$AA?$AA@ 000000018005e680     libucrt:lcidtoname_downlevel.obj
 0002:00006690       ??_C@_1BG@KDCPGJGB@?$AAa?$AAz?$AA?9?$AAa?$AAz?$AA?9?$AAc?$AAy?$AAr?$AAl?$AA?$AA@ 000000018005e690     libucrt:lcidtoname_downlevel.obj
 0002:000066a8       ??_C@_1BG@IBCKDDOE@?$AAa?$AAz?$AA?9?$AAa?$AAz?$AA?9?$AAl?$AAa?$AAt?$AAn?$AA?$AA@ 000000018005e6a8     libucrt:lcidtoname_downlevel.obj
 0002:000066c0       ??_C@_1M@EGPFDCPD@?$AAb?$AAe?$AA?9?$AAb?$AAy?$AA?$AA@ 000000018005e6c0     libucrt:lcidtoname_downlevel.obj
 0002:000066d0       ??_C@_1M@PCMGMCGC@?$AAb?$AAg?$AA?9?$AAb?$AAg?$AA?$AA@ 000000018005e6d0     libucrt:lcidtoname_downlevel.obj
 0002:000066e0       ??_C@_1M@BJBMFGOB@?$AAb?$AAn?$AA?9?$AAi?$AAn?$AA?$AA@ 000000018005e6e0     libucrt:lcidtoname_downlevel.obj
 0002:000066f0       ??_C@_1BG@EAKMMACD@?$AAb?$AAs?$AA?9?$AAb?$AAa?$AA?9?$AAl?$AAa?$AAt?$AAn?$AA?$AA@ 000000018005e6f0     libucrt:lcidtoname_downlevel.obj
 0002:00006708       ??_C@_1M@KGADAODK@?$AAc?$AAa?$AA?9?$AAe?$AAs?$AA?$AA@ 000000018005e708     libucrt:lcidtoname_downlevel.obj
 0002:00006718       ??_C@_1M@COAJPDHI@?$AAc?$AAs?$AA?9?$AAc?$AAz?$AA?$AA@ 000000018005e718     libucrt:lcidtoname_downlevel.obj
 0002:00006728       ??_C@_1M@DHBHFONH@?$AAc?$AAy?$AA?9?$AAg?$AAb?$AA?$AA@ 000000018005e728     libucrt:lcidtoname_downlevel.obj
 0002:00006738       ??_C@_1M@IMGKELGA@?$AAd?$AAa?$AA?9?$AAd?$AAk?$AA?$AA@ 000000018005e738     libucrt:lcidtoname_downlevel.obj
 0002:00006748       ??_C@_1M@NNDGDNGA@?$AAd?$AAe?$AA?9?$AAa?$AAt?$AA?$AA@ 000000018005e748     libucrt:lcidtoname_downlevel.obj
 0002:00006758       ??_C@_1M@IKDBHEEM@?$AAd?$AAe?$AA?9?$AAc?$AAh?$AA?$AA@ 000000018005e758     libucrt:lcidtoname_downlevel.obj
 0002:00006768       ??_C@_1M@GFFOJMCJ@?$AAd?$AAe?$AA?9?$AAd?$AAe?$AA?$AA@ 000000018005e768     libucrt:lcidtoname_downlevel.obj
 0002:00006778       ??_C@_1M@MDNLKBPM@?$AAd?$AAe?$AA?9?$AAl?$AAi?$AA?$AA@ 000000018005e778     libucrt:lcidtoname_downlevel.obj
 0002:00006788       ??_C@_1M@NJBEEJNL@?$AAd?$AAe?$AA?9?$AAl?$AAu?$AA?$AA@ 000000018005e788     libucrt:lcidtoname_downlevel.obj
 0002:00006798       ??_C@_1O@GNNELBAP@?$AAd?$AAi?$AAv?$AA?9?$AAm?$AAv?$AA?$AA@ 000000018005e798     libucrt:lcidtoname_downlevel.obj
 0002:000067a8       ??_C@_1M@EJLEOGAE@?$AAe?$AAl?$AA?9?$AAg?$AAr?$AA?$AA@ 000000018005e7a8     libucrt:lcidtoname_downlevel.obj
 0002:000067b8       ??_C@_1M@GMPONJN@?$AAe?$AAn?$AA?9?$AAa?$AAu?$AA?$AA@ 000000018005e7b8     libucrt:lcidtoname_downlevel.obj
 0002:000067c8       ??_C@_1M@NIDIIPGF@?$AAe?$AAn?$AA?9?$AAb?$AAz?$AA?$AA@ 000000018005e7c8     libucrt:lcidtoname_downlevel.obj
 0002:000067d8       ??_C@_1M@JEHMIMFO@?$AAe?$AAn?$AA?9?$AAc?$AAa?$AA?$AA@ 000000018005e7d8     libucrt:lcidtoname_downlevel.obj
 0002:000067e8       ??_C@_1M@IGMJCDLA@?$AAe?$AAn?$AA?9?$AAc?$AAb?$AA?$AA@ 000000018005e7e8     libucrt:lcidtoname_downlevel.obj
 0002:000067f8       ??_C@_1M@BNFIGBKG@?$AAe?$AAn?$AA?9?$AAg?$AAb?$AA?$AA@ 000000018005e7f8     libucrt:lcidtoname_downlevel.obj
 0002:00006808       ??_C@_1M@LKIFDIGP@?$AAe?$AAn?$AA?9?$AAi?$AAe?$AA?$AA@ 000000018005e808     libucrt:lcidtoname_downlevel.obj
 0002:00006818       ??_C@_1M@PJKFGCCO@?$AAe?$AAn?$AA?9?$AAj?$AAm?$AA?$AA@ 000000018005e818     libucrt:lcidtoname_downlevel.obj
 0002:00006828       ??_C@_1M@KPPKEPBO@?$AAe?$AAn?$AA?9?$AAn?$AAz?$AA?$AA@ 000000018005e828     libucrt:lcidtoname_downlevel.obj
 0002:00006838       ??_C@_1M@GMDGLDOB@?$AAe?$AAn?$AA?9?$AAp?$AAh?$AA?$AA@ 000000018005e838     libucrt:lcidtoname_downlevel.obj
 0002:00006848       ??_C@_1M@ONGIBJNA@?$AAe?$AAn?$AA?9?$AAt?$AAt?$AA?$AA@ 000000018005e848     libucrt:lcidtoname_downlevel.obj
 0002:00006858       ??_C@_1M@LLODPCMM@?$AAe?$AAn?$AA?9?$AAu?$AAs?$AA?$AA@ 000000018005e858     libucrt:lcidtoname_downlevel.obj
 0002:00006868       ??_C@_1M@LAKFNPAN@?$AAe?$AAn?$AA?9?$AAz?$AAa?$AA?$AA@ 000000018005e868     libucrt:lcidtoname_downlevel.obj
 0002:00006878       ??_C@_1M@MFNHNHEO@?$AAe?$AAn?$AA?9?$AAz?$AAw?$AA?$AA@ 000000018005e878     libucrt:lcidtoname_downlevel.obj
 0002:00006888       ??_C@_1M@EJEINPHM@?$AAe?$AAs?$AA?9?$AAa?$AAr?$AA?$AA@ 000000018005e888     libucrt:lcidtoname_downlevel.obj
 0002:00006898       ??_C@_1M@GNKPCCJA@?$AAe?$AAs?$AA?9?$AAb?$AAo?$AA?$AA@ 000000018005e898     libucrt:lcidtoname_downlevel.obj
 0002:000068a8       ??_C@_1M@LEEGFONL@?$AAe?$AAs?$AA?9?$AAc?$AAl?$AA?$AA@ 000000018005e8a8     libucrt:lcidtoname_downlevel.obj
 0002:000068b8       ??_C@_1M@KGPDPBDF@?$AAe?$AAs?$AA?9?$AAc?$AAo?$AA?$AA@ 000000018005e8b8     libucrt:lcidtoname_downlevel.obj
 0002:000068c8       ??_C@_1M@EIAHOHH@?$AAe?$AAs?$AA?9?$AAc?$AAr?$AA?$AA@ 000000018005e8c8     libucrt:lcidtoname_downlevel.obj
 0002:000068d8       ??_C@_1M@LLPGMBIN@?$AAe?$AAs?$AA?9?$AAd?$AAo?$AA?$AA@ 000000018005e8d8     libucrt:lcidtoname_downlevel.obj
 0002:000068e8       ??_C@_1M@DKHMKNJA@?$AAe?$AAs?$AA?9?$AAe?$AAc?$AA?$AA@ 000000018005e8e8     libucrt:lcidtoname_downlevel.obj
 0002:000068f8       ??_C@_1M@GKGFPKAP@?$AAe?$AAs?$AA?9?$AAe?$AAs?$AA?$AA@ 000000018005e8f8     libucrt:lcidtoname_downlevel.obj
 0002:00006908       ??_C@_1M@LKHKGDLN@?$AAe?$AAs?$AA?9?$AAg?$AAt?$AA?$AA@ 000000018005e908     libucrt:lcidtoname_downlevel.obj
 0002:00006918       ??_C@_1M@HEIIGGJD@?$AAe?$AAs?$AA?9?$AAh?$AAn?$AA?$AA@ 000000018005e918     libucrt:lcidtoname_downlevel.obj
 0002:00006928       ??_C@_1M@FBDHPPGD@?$AAe?$AAs?$AA?9?$AAm?$AAx?$AA?$AA@ 000000018005e928     libucrt:lcidtoname_downlevel.obj
 0002:00006938       ??_C@_1M@DPAGLNDH@?$AAe?$AAs?$AA?9?$AAn?$AAi?$AA?$AA@ 000000018005e938     libucrt:lcidtoname_downlevel.obj
 0002:00006948       ??_C@_1M@MDGOPGDD@?$AAe?$AAs?$AA?9?$AAp?$AAa?$AA?$AA@ 000000018005e948     libucrt:lcidtoname_downlevel.obj
 0002:00006958       ??_C@_1M@EMAMGBGE@?$AAe?$AAs?$AA?9?$AAp?$AAe?$AA?$AA@ 000000018005e958     libucrt:lcidtoname_downlevel.obj
 0002:00006968       ??_C@_1M@IBMCAOEC@?$AAe?$AAs?$AA?9?$AAp?$AAr?$AA?$AA@ 000000018005e968     libucrt:lcidtoname_downlevel.obj
 0002:00006978       ??_C@_1M@FGMDIJED@?$AAe?$AAs?$AA?9?$AAp?$AAy?$AA?$AA@ 000000018005e978     libucrt:lcidtoname_downlevel.obj
 0002:00006988       ??_C@_1M@IIDEOLLL@?$AAe?$AAs?$AA?9?$AAs?$AAv?$AA?$AA@ 000000018005e988     libucrt:lcidtoname_downlevel.obj
 0002:00006998       ??_C@_1M@GAOBIPA@?$AAe?$AAs?$AA?9?$AAu?$AAy?$AA?$AA@ 000000018005e998     libucrt:lcidtoname_downlevel.obj
 0002:000069a8       ??_C@_1M@JKFFICHJ@?$AAe?$AAs?$AA?9?$AAv?$AAe?$AA?$AA@ 000000018005e9a8     libucrt:lcidtoname_downlevel.obj
 0002:000069b8       ??_C@_1M@PNMLOJDF@?$AAe?$AAt?$AA?9?$AAe?$AAe?$AA?$AA@ 000000018005e9b8     libucrt:lcidtoname_downlevel.obj
 0002:000069c8       ??_C@_1M@GHHLIKEI@?$AAe?$AAu?$AA?9?$AAe?$AAs?$AA?$AA@ 000000018005e9c8     libucrt:lcidtoname_downlevel.obj
 0002:000069d8       ??_C@_1M@PBNONODE@?$AAf?$AAa?$AA?9?$AAi?$AAr?$AA?$AA@ 000000018005e9d8     libucrt:lcidtoname_downlevel.obj
 0002:000069e8       ??_C@_1M@JEEHPMIL@?$AAf?$AAi?$AA?9?$AAf?$AAi?$AA?$AA@ 000000018005e9e8     libucrt:lcidtoname_downlevel.obj
 0002:000069f8       ??_C@_1M@LMDCNDBA@?$AAf?$AAo?$AA?9?$AAf?$AAo?$AA?$AA@ 000000018005e9f8     libucrt:lcidtoname_downlevel.obj
 0002:00006a08       ??_C@_1M@JKEOHLDK@?$AAf?$AAr?$AA?9?$AAb?$AAe?$AA?$AA@ 000000018005ea08     libucrt:lcidtoname_downlevel.obj
 0002:00006a18       ??_C@_1M@NOHADPMI@?$AAf?$AAr?$AA?9?$AAc?$AAa?$AA?$AA@ 000000018005ea18     libucrt:lcidtoname_downlevel.obj
 0002:00006a28       ??_C@_1M@KDHIHAEC@?$AAf?$AAr?$AA?9?$AAc?$AAh?$AA?$AA@ 000000018005ea28     libucrt:lcidtoname_downlevel.obj
 0002:00006a38       ??_C@_1M@MMBBFGAK@?$AAf?$AAr?$AA?9?$AAf?$AAr?$AA?$AA@ 000000018005ea38     libucrt:lcidtoname_downlevel.obj
 0002:00006a48       ??_C@_1M@PAFNENNF@?$AAf?$AAr?$AA?9?$AAl?$AAu?$AA?$AA@ 000000018005ea48     libucrt:lcidtoname_downlevel.obj
 0002:00006a58       ??_C@_1M@EOHDJGDD@?$AAf?$AAr?$AA?9?$AAm?$AAc?$AA?$AA@ 000000018005ea58     libucrt:lcidtoname_downlevel.obj
 0002:00006a68       ??_C@_1M@FAPLLOPF@?$AAg?$AAl?$AA?9?$AAe?$AAs?$AA?$AA@ 000000018005ea68     libucrt:lcidtoname_downlevel.obj
 0002:00006a78       ??_C@_1M@FOPBFLOO@?$AAg?$AAu?$AA?9?$AAi?$AAn?$AA?$AA@ 000000018005ea78     libucrt:lcidtoname_downlevel.obj
 0002:00006a88       ??_C@_1M@KBMCINPM@?$AAh?$AAe?$AA?9?$AAi?$AAl?$AA?$AA@ 000000018005ea88     libucrt:lcidtoname_downlevel.obj
 0002:00006a98       ??_C@_1M@BBPHKFPJ@?$AAh?$AAi?$AA?9?$AAi?$AAn?$AA?$AA@ 000000018005ea98     libucrt:lcidtoname_downlevel.obj
 0002:00006aa8       ??_C@_1M@PMBNDPHD@?$AAh?$AAr?$AA?9?$AAb?$AAa?$AA?$AA@ 000000018005eaa8     libucrt:lcidtoname_downlevel.obj
 0002:00006ab8       ??_C@_1M@BPCKOEGE@?$AAh?$AAr?$AA?9?$AAh?$AAr?$AA?$AA@ 000000018005eab8     libucrt:lcidtoname_downlevel.obj
 0002:00006ac8       ??_C@_1M@GACBMHKE@?$AAh?$AAu?$AA?9?$AAh?$AAu?$AA?$AA@ 000000018005eac8     libucrt:lcidtoname_downlevel.obj
 0002:00006ad8       ??_C@_1M@MILPAJJC@?$AAh?$AAy?$AA?9?$AAa?$AAm?$AA?$AA@ 000000018005ead8     libucrt:lcidtoname_downlevel.obj
 0002:00006ae8       ??_C@_1M@BABBICEC@?$AAi?$AAd?$AA?9?$AAi?$AAd?$AA?$AA@ 000000018005eae8     libucrt:lcidtoname_downlevel.obj
 0002:00006af8       ??_C@_1M@BIKNHHPF@?$AAi?$AAs?$AA?9?$AAi?$AAs?$AA?$AA@ 000000018005eaf8     libucrt:lcidtoname_downlevel.obj
 0002:00006b08       ??_C@_1M@NMPCJPHE@?$AAi?$AAt?$AA?9?$AAc?$AAh?$AA?$AA@ 000000018005eb08     libucrt:lcidtoname_downlevel.obj
 0002:00006b18       ??_C@_1M@GHKGFEDF@?$AAi?$AAt?$AA?9?$AAi?$AAt?$AA?$AA@ 000000018005eb18     libucrt:lcidtoname_downlevel.obj
 0002:00006b28       ??_C@_1M@NIEJCJJA@?$AAj?$AAa?$AA?9?$AAj?$AAp?$AA?$AA@ 000000018005eb28     libucrt:lcidtoname_downlevel.obj
 0002:00006b38       ??_C@_1M@JILFNBIM@?$AAk?$AAa?$AA?9?$AAg?$AAe?$AA?$AA@ 000000018005eb38     libucrt:lcidtoname_downlevel.obj
 0002:00006b48       ??_C@_1M@PACPMGPH@?$AAk?$AAk?$AA?9?$AAk?$AAz?$AA?$AA@ 000000018005eb48     libucrt:lcidtoname_downlevel.obj
 0002:00006b58       ??_C@_1M@IELFGMHA@?$AAk?$AAn?$AA?9?$AAi?$AAn?$AA?$AA@ 000000018005eb58     libucrt:lcidtoname_downlevel.obj
 0002:00006b68       ??_C@_1O@IBBJHCH@?$AAk?$AAo?$AAk?$AA?9?$AAi?$AAn?$AA?$AA@ 000000018005eb68     libucrt:lcidtoname_downlevel.obj
 0002:00006b78       ??_C@_1M@DMHAEOGC@?$AAk?$AAo?$AA?9?$AAk?$AAr?$AA?$AA@ 000000018005eb78     libucrt:lcidtoname_downlevel.obj
 0002:00006b88       ??_C@_1M@HBAHBIGA@?$AAk?$AAy?$AA?9?$AAk?$AAg?$AA?$AA@ 000000018005eb88     libucrt:lcidtoname_downlevel.obj
 0002:00006b98       ??_C@_1M@KPMILCJG@?$AAl?$AAt?$AA?9?$AAl?$AAt?$AA?$AA@ 000000018005eb98     libucrt:lcidtoname_downlevel.obj
 0002:00006ba8       ??_C@_1M@BDEKKCA@?$AAl?$AAv?$AA?9?$AAl?$AAv?$AA?$AA@ 000000018005eba8     libucrt:lcidtoname_downlevel.obj
 0002:00006bb8       ??_C@_1M@ELCKCCJJ@?$AAm?$AAi?$AA?9?$AAn?$AAz?$AA?$AA@ 000000018005ebb8     libucrt:lcidtoname_downlevel.obj
 0002:00006bc8       ??_C@_1M@CBOOLAPA@?$AAm?$AAk?$AA?9?$AAm?$AAk?$AA?$AA@ 000000018005ebc8     libucrt:lcidtoname_downlevel.obj
 0002:00006bd8       ??_C@_1M@GPHNBJKN@?$AAm?$AAl?$AA?9?$AAi?$AAn?$AA?$AA@ 000000018005ebd8     libucrt:lcidtoname_downlevel.obj
 0002:00006be8       ??_C@_1M@PABJILIG@?$AAm?$AAn?$AA?9?$AAm?$AAn?$AA?$AA@ 000000018005ebe8     libucrt:lcidtoname_downlevel.obj
 0002:00006bf8       ??_C@_1M@FGBKKIPG@?$AAm?$AAr?$AA?9?$AAi?$AAn?$AA?$AA@ 000000018005ebf8     libucrt:lcidtoname_downlevel.obj
 0002:00006c08       ??_C@_1M@NDBPDDAL@?$AAm?$AAs?$AA?9?$AAb?$AAn?$AA?$AA@ 000000018005ec08     libucrt:lcidtoname_downlevel.obj
 0002:00006c18       ??_C@_1M@OPIHOOPI@?$AAm?$AAs?$AA?9?$AAm?$AAy?$AA?$AA@ 000000018005ec18     libucrt:lcidtoname_downlevel.obj
 0002:00006c28       ??_C@_1M@PPDBCNFM@?$AAm?$AAt?$AA?9?$AAm?$AAt?$AA?$AA@ 000000018005ec28     libucrt:lcidtoname_downlevel.obj
 0002:00006c38       ??_C@_1M@KDJDKMDD@?$AAn?$AAb?$AA?9?$AAn?$AAo?$AA?$AA@ 000000018005ec38     libucrt:lcidtoname_downlevel.obj
 0002:00006c48       ??_C@_1M@KFCFLMJP@?$AAn?$AAl?$AA?9?$AAb?$AAe?$AA?$AA@ 000000018005ec48     libucrt:lcidtoname_downlevel.obj
 0002:00006c58       ??_C@_1M@KPOPDDGO@?$AAn?$AAl?$AA?9?$AAn?$AAl?$AA?$AA@ 000000018005ec58     libucrt:lcidtoname_downlevel.obj
 0002:00006c68       ??_C@_1M@LJKPEMLN@?$AAn?$AAn?$AA?9?$AAn?$AAo?$AA?$AA@ 000000018005ec68     libucrt:lcidtoname_downlevel.obj
 0002:00006c78       ??_C@_1M@BDGHHBFL@?$AAn?$AAs?$AA?9?$AAz?$AAa?$AA?$AA@ 000000018005ec78     libucrt:lcidtoname_downlevel.obj
 0002:00006c88       ??_C@_1M@IDEHOAP@?$AAp?$AAa?$AA?9?$AAi?$AAn?$AA?$AA@ 000000018005ec88     libucrt:lcidtoname_downlevel.obj
 0002:00006c98       ??_C@_1M@HDBKGOGH@?$AAp?$AAl?$AA?9?$AAp?$AAl?$AA?$AA@ 000000018005ec98     libucrt:lcidtoname_downlevel.obj
 0002:00006ca8       ??_C@_1M@LJLLCMEH@?$AAp?$AAt?$AA?9?$AAb?$AAr?$AA?$AA@ 000000018005eca8     libucrt:lcidtoname_downlevel.obj
 0002:00006cb8       ??_C@_1M@NCMONAAL@?$AAp?$AAt?$AA?9?$AAp?$AAt?$AA?$AA@ 000000018005ecb8     libucrt:lcidtoname_downlevel.obj
 0002:00006cc8       ??_C@_1O@EAKMAJDN@?$AAq?$AAu?$AAz?$AA?9?$AAb?$AAo?$AA?$AA@ 000000018005ecc8     libucrt:lcidtoname_downlevel.obj
 0002:00006cd8       ??_C@_1O@BHHPIGDN@?$AAq?$AAu?$AAz?$AA?9?$AAe?$AAc?$AA?$AA@ 000000018005ecd8     libucrt:lcidtoname_downlevel.obj
 0002:00006ce8       ??_C@_1O@GBAPEKMJ@?$AAq?$AAu?$AAz?$AA?9?$AAp?$AAe?$AA?$AA@ 000000018005ece8     libucrt:lcidtoname_downlevel.obj
 0002:00006cf8       ??_C@_1M@CLGLEFBO@?$AAr?$AAo?$AA?9?$AAr?$AAo?$AA?$AA@ 000000018005ecf8     libucrt:lcidtoname_downlevel.obj
 0002:00006d08       ??_C@_1M@CEEDODME@?$AAr?$AAu?$AA?9?$AAr?$AAu?$AA?$AA@ 000000018005ed08     libucrt:lcidtoname_downlevel.obj
 0002:00006d18       ??_C@_1M@HPKKKMPP@?$AAs?$AAa?$AA?9?$AAi?$AAn?$AA?$AA@ 000000018005ed18     libucrt:lcidtoname_downlevel.obj
 0002:00006d28       ??_C@_1M@BKMAIGOJ@?$AAs?$AAe?$AA?9?$AAf?$AAi?$AA?$AA@ 000000018005ed28     libucrt:lcidtoname_downlevel.obj
 0002:00006d38       ??_C@_1M@NDPIFLFI@?$AAs?$AAe?$AA?9?$AAn?$AAo?$AA?$AA@ 000000018005ed38     libucrt:lcidtoname_downlevel.obj
 0002:00006d48       ??_C@_1M@DANKKHJ@?$AAs?$AAe?$AA?9?$AAs?$AAe?$AA?$AA@ 000000018005ed48     libucrt:lcidtoname_downlevel.obj
 0002:00006d58       ??_C@_1M@PNBLONPJ@?$AAs?$AAk?$AA?9?$AAs?$AAk?$AA?$AA@ 000000018005ed58     libucrt:lcidtoname_downlevel.obj
 0002:00006d68       ??_C@_1M@LFMODOAL@?$AAs?$AAl?$AA?9?$AAs?$AAi?$AA?$AA@ 000000018005ed68     libucrt:lcidtoname_downlevel.obj
 0002:00006d78       ??_C@_1O@DFKOMPG@?$AAs?$AAm?$AAa?$AA?9?$AAn?$AAo?$AA?$AA@ 000000018005ed78     libucrt:lcidtoname_downlevel.obj
 0002:00006d88       ??_C@_1O@NDKPBNNH@?$AAs?$AAm?$AAa?$AA?9?$AAs?$AAe?$AA?$AA@ 000000018005ed88     libucrt:lcidtoname_downlevel.obj
 0002:00006d98       ??_C@_1O@PLLKBHAB@?$AAs?$AAm?$AAj?$AA?9?$AAn?$AAo?$AA?$AA@ 000000018005ed98     libucrt:lcidtoname_downlevel.obj
 0002:00006da8       ??_C@_1O@CLEPOGCA@?$AAs?$AAm?$AAj?$AA?9?$AAs?$AAe?$AA?$AA@ 000000018005eda8     libucrt:lcidtoname_downlevel.obj
 0002:00006db8       ??_C@_1O@DLGJGKMK@?$AAs?$AAm?$AAn?$AA?9?$AAf?$AAi?$AA?$AA@ 000000018005edb8     libucrt:lcidtoname_downlevel.obj
 0002:00006dc8       ??_C@_1O@OJDJGAJC@?$AAs?$AAm?$AAs?$AA?9?$AAf?$AAi?$AA?$AA@ 000000018005edc8     libucrt:lcidtoname_downlevel.obj
 0002:00006dd8       ??_C@_1M@BOFOGHPB@?$AAs?$AAq?$AA?9?$AAa?$AAl?$AA?$AA@ 000000018005edd8     libucrt:lcidtoname_downlevel.obj
 0002:00006de8       ??_C@_1BG@LJBBIPGB@?$AAs?$AAr?$AA?9?$AAb?$AAa?$AA?9?$AAc?$AAy?$AAr?$AAl?$AA?$AA@ 000000018005ede8     libucrt:lcidtoname_downlevel.obj
 0002:00006e00       ??_C@_1BG@JLBENFOE@?$AAs?$AAr?$AA?9?$AAb?$AAa?$AA?9?$AAl?$AAa?$AAt?$AAn?$AA?$AA@ 000000018005ee00     libucrt:lcidtoname_downlevel.obj
 0002:00006e18       ??_C@_1BG@KODPNHE@?$AAs?$AAr?$AA?9?$AAs?$AAp?$AA?9?$AAc?$AAy?$AAr?$AAl?$AA?$AA@ 000000018005ee18     libucrt:lcidtoname_downlevel.obj
 0002:00006e30       ??_C@_1BG@CIOGKHPB@?$AAs?$AAr?$AA?9?$AAs?$AAp?$AA?9?$AAl?$AAa?$AAt?$AAn?$AA?$AA@ 000000018005ee30     libucrt:lcidtoname_downlevel.obj
 0002:00006e48       ??_C@_1M@NGFJLMAC@?$AAs?$AAv?$AA?9?$AAf?$AAi?$AA?$AA@ 000000018005ee48     libucrt:lcidtoname_downlevel.obj
 0002:00006e58       ??_C@_1M@MPJEJAJC@?$AAs?$AAv?$AA?9?$AAs?$AAe?$AA?$AA@ 000000018005ee58     libucrt:lcidtoname_downlevel.obj
 0002:00006e68       ??_C@_1M@MPNDHLFK@?$AAs?$AAw?$AA?9?$AAk?$AAe?$AA?$AA@ 000000018005ee68     libucrt:lcidtoname_downlevel.obj
 0002:00006e78       ??_C@_1O@KOHBJJI@?$AAs?$AAy?$AAr?$AA?9?$AAs?$AAy?$AA?$AA@ 000000018005ee78     libucrt:lcidtoname_downlevel.obj
 0002:00006e88       ??_C@_1M@LDCEFHA@?$AAt?$AAa?$AA?9?$AAi?$AAn?$AA?$AA@ 000000018005ee88     libucrt:lcidtoname_downlevel.obj
 0002:00006e98       ??_C@_1M@CNJOFAK@?$AAt?$AAe?$AA?9?$AAi?$AAn?$AA?$AA@ 000000018005ee98     libucrt:lcidtoname_downlevel.obj
 0002:00006ea8       ??_C@_1M@GNAECACD@?$AAt?$AAh?$AA?9?$AAt?$AAh?$AA?$AA@ 000000018005eea8     libucrt:lcidtoname_downlevel.obj
 0002:00006eb8       ??_C@_1M@CHBIHOJO@?$AAt?$AAn?$AA?9?$AAz?$AAa?$AA?$AA@ 000000018005eeb8     libucrt:lcidtoname_downlevel.obj
 0002:00006ec8       ??_C@_1M@GCCMIGPJ@?$AAt?$AAr?$AA?9?$AAt?$AAr?$AA?$AA@ 000000018005eec8     libucrt:lcidtoname_downlevel.obj
 0002:00006ed8       ??_C@_1M@CELMCNBK@?$AAt?$AAt?$AA?9?$AAr?$AAu?$AA?$AA@ 000000018005eed8     libucrt:lcidtoname_downlevel.obj
 0002:00006ee8       ??_C@_1M@KLMCELGA@?$AAu?$AAk?$AA?9?$AAu?$AAa?$AA?$AA@ 000000018005eee8     libucrt:lcidtoname_downlevel.obj
 0002:00006ef8       ??_C@_1M@EPAJJAJF@?$AAu?$AAr?$AA?9?$AAp?$AAk?$AA?$AA@ 000000018005eef8     libucrt:lcidtoname_downlevel.obj
 0002:00006f08       ??_C@_1BG@GEGPMCDJ@?$AAu?$AAz?$AA?9?$AAu?$AAz?$AA?9?$AAc?$AAy?$AAr?$AAl?$AA?$AA@ 000000018005ef08     libucrt:lcidtoname_downlevel.obj
 0002:00006f20       ??_C@_1BG@EGGKJILM@?$AAu?$AAz?$AA?9?$AAu?$AAz?$AA?9?$AAl?$AAa?$AAt?$AAn?$AA?$AA@ 000000018005ef20     libucrt:lcidtoname_downlevel.obj
 0002:00006f38       ??_C@_1M@GFOCLFF@?$AAv?$AAi?$AA?9?$AAv?$AAn?$AA?$AA@ 000000018005ef38     libucrt:lcidtoname_downlevel.obj
 0002:00006f48       ??_C@_1M@CPAMEDFI@?$AAx?$AAh?$AA?9?$AAz?$AAa?$AA?$AA@ 000000018005ef48     libucrt:lcidtoname_downlevel.obj
 0002:00006f58       ??_C@_1O@EBKIFIGN@?$AAz?$AAh?$AA?9?$AAc?$AAh?$AAs?$AA?$AA@ 000000018005ef58     libucrt:lcidtoname_downlevel.obj
 0002:00006f68       ??_C@_1O@NMHPGANE@?$AAz?$AAh?$AA?9?$AAc?$AAh?$AAt?$AA?$AA@ 000000018005ef68     libucrt:lcidtoname_downlevel.obj
 0002:00006f78       ??_C@_1M@LPINJOMC@?$AAz?$AAh?$AA?9?$AAc?$AAn?$AA?$AA@ 000000018005ef78     libucrt:lcidtoname_downlevel.obj
 0002:00006f88       ??_C@_1M@OCJEJODD@?$AAz?$AAh?$AA?9?$AAh?$AAk?$AA?$AA@ 000000018005ef88     libucrt:lcidtoname_downlevel.obj
 0002:00006f98       ??_C@_1M@DNDLJINH@?$AAz?$AAh?$AA?9?$AAm?$AAo?$AA?$AA@ 000000018005ef98     libucrt:lcidtoname_downlevel.obj
 0002:00006fa8       ??_C@_1M@MBFDNDND@?$AAz?$AAh?$AA?9?$AAs?$AAg?$AA?$AA@ 000000018005efa8     libucrt:lcidtoname_downlevel.obj
 0002:00006fb8       ??_C@_1M@IMEPLEPE@?$AAz?$AAh?$AA?9?$AAt?$AAw?$AA?$AA@ 000000018005efb8     libucrt:lcidtoname_downlevel.obj
 0002:00006fc8       ??_C@_1M@BBGHNHJP@?$AAz?$AAu?$AA?9?$AAz?$AAa?$AA?$AA@ 000000018005efc8     libucrt:lcidtoname_downlevel.obj
 0002:00007230       ??_C@_1BA@BALFACEM@?$AAC?$AAO?$AAN?$AAO?$AAU?$AAT?$AA$?$AA?$AA@ 000000018005f230     libucrt:initcon.obj
 0002:00007240       __log10_256_lead           000000018005f240     libucrt:log10_256_lead_tail_table.obj
 0002:00007a50       __log10_256_tail           000000018005fa50     libucrt:log10_256_lead_tail_table.obj
 0002:00008260       __log_F_inv_qword          0000000180060260     libucrt:log_f_inv_qword_table.obj
 0002:00008a70       ??_C@_05HGHHAHAP@log10?$AA@ 0000000180060a70     libucrt:log_special.obj
 0002:00008a90       ??_C@_1BK@DBDEIDLH@?$AAK?$AAE?$AAR?$AAN?$AAE?$AAL?$AA3?$AA2?$AA?4?$AAD?$AAL?$AAL?$AA?$AA@ 0000000180060a90     DelayImp:delayhlp.obj
 0002:00008ab0       ??_C@_0BI@OMNLIJDB@AcquireSRWLockExclusive?$AA@ 0000000180060ab0     DelayImp:delayhlp.obj
 0002:00008ac8       ??_C@_0BI@HMIEPCNJ@ReleaseSRWLockExclusive?$AA@ 0000000180060ac8     DelayImp:delayhlp.obj
 0002:00008ae0       __pfnDliFailureHook2       0000000180060ae0     DelayImp:delayhk1.obj
 0002:00008af0       _load_config_used          0000000180060af0     LIBCMT:loadcfg.obj
 0002:00008b88       ??_C@_1DG@OKCGPKIB@?$AAp?$AAe?$AAr?$AAs?$AAi?$AAs?$AAt?$AAe?$AAn?$AAt?$AA?$CI?$AA?$CJ?$AA?4?$AAI?$AAs?$AAN?$AAe?$AAa?$AAr?$AAD?$AAe?$AAa?$AAt?$AAh?$AA?$CI?$AA?$CJ?$AA?$AA@ 0000000180060b88     batch.obj
 0002:00008bc0       ??_C@_1CO@EGNPJLKI@?$AAp?$AAe?$AAr?$AAs?$AAi?$AAs?$AAt?$AAe?$AAn?$AAt?$AA?$CI?$AA?$CJ?$AA?4?$AAI?$AAs?$AAE?$AAm?$AAp?$AAt?$AAy?$AA?$CI?$AA?$CJ?$AA?$AA@ 0000000180060bc0     batch.obj
 0002:00008bf0       ??_C@_1DA@FBGAEOIO@?$AA?$CB?$AAp?$AAe?$AAr?$AAs?$AAi?$AAs?$AAt?$AAe?$AAn?$AAt?$AA?$CI?$AA?$CJ?$AA?4?$AAI?$AAs?$AAE?$AAm?$AAp?$AAt?$AAy?$AA?$CI?$AA?$CJ?$AA?$AA@ 0000000180060bf0     batch.obj
 0002:00008c20       ??_C@_1CO@JCKLEFMA@?$AA?$CB?$AAp?$AAe?$AAr?$AAs?$AAi?$AAs?$AAt?$AAe?$AAn?$AAt?$AA?$CI?$AA?$CJ?$AA?4?$AAI?$AAs?$AAW?$AAe?$AAa?$AAk?$AA?$CI?$AA?$CJ?$AA?$AA@ 0000000180060c20     batch.obj
 0002:00008c50       ??_C@_1BE@GMLLOIPJ@?$AAr?$AAe?$AAf?$AAs?$AA_?$AA?5?$AA?$DO?$AA?5?$AA0?$AA?$AA@ 0000000180060c50     batch.obj
 0002:00008c68       ??_C@_1CC@GBFLAAPF@?$AAw?$AAr?$AAa?$AAp?$AA?9?$AA?$DO?$AAr?$AAe?$AAf?$AAs?$AA_?$AA?5?$AA?$DN?$AA?$DN?$AA?5?$AA0?$AA?$AA@ 0000000180060c68     batch.obj
 0002:00008c90       ??_C@_1JE@PPMIPNEK@?$AAc?$AA?3?$AA?2?$AAg?$AAi?$AAt?$AA?2?$AAa?$AAs?$AAl?$AA?2?$AAs?$AAd?$AAk?$AAs?$AA?2?$AAa?$AAc?$AAt?$AAi?$AAv?$AAe?$AAl?$AAe?$AAd?$AAg?$AAe?$AAr?$AAs?$AAd?$AAk?$AA_@ 0000000180060c90     batch.obj
 0002:00008d30       ??_C@_1EC@MGGLMBLC@?$AAo?$AAb?$AAj?$AAe?$AAc?$AAt?$AA?9?$AA?$DO?$AAI?$AAn?$AAt?$AAe?$AAr?$AAn?$AAa?$AAl?$AAF?$AAi?$AAe?$AAl?$AAd?$AAC?$AAo?$AAu?$AAn?$AAt?$AA?$CI?$AA?$CJ?$AA?5?$AA?$DO?$AA?5?$AA0@ 0000000180060d30     batch.obj
 0002:00008d78       ??_C@_1DI@ELDBKNAK@?$AAw?$AAr?$AAa?$AAp?$AA?9?$AA?$DO?$AAh?$AAa?$AAn?$AAd?$AAl?$AAe?$AA_?$AA?4?$AAI?$AAs?$AAN?$AAe?$AAa?$AAr?$AAD?$AAe?$AAa?$AAt?$AAh?$AA?$CI?$AA?$CJ?$AA?$AA@ 0000000180060d78     batch.obj
 0002:00008db0       ??_C@_05KLBHAINL@Batch?$AA@ 0000000180060db0     batch.obj
 0002:00008db8       ??_C@_03KMONJGDG@put?$AA@  0000000180060db8     batch.obj
 0002:00008dbc       ??_C@_03ONKLGNNH@del?$AA@  0000000180060dbc     batch.obj
 0002:00008dc0       ??_C@_05MEHLAELG@clear?$AA@ 0000000180060dc0     batch.obj
 0002:00008dc8       ??_C@_05NGFEDHGN@write?$AA@ 0000000180060dc8     batch.obj
 0002:00008dd0       ??_C@_04JNABKDKF@sync?$AA@ 0000000180060dd0     batch.obj
 0002:00008dd8       ??_C@_0CE@NLKGCCKK@Could?5not?5create?5new?5Batch?5insta@ 0000000180060dd8     batch.obj
 0002:00008dfc       ??_C@_05KMLLANON@batch?$AA@ 0000000180060dfc     batch.obj
 0002:00008e08       ??_C@_1CE@LNAGEONJ@?$AA?$CB?$AAo?$AAb?$AAj?$AAe?$AAc?$AAt?$AA?4?$AAI?$AAs?$AAE?$AAm?$AAp?$AAt?$AAy?$AA?$CI?$AA?$CJ?$AA?$AA@ 0000000180060e08     batch.obj
 0002:00008e30       ??_7Batch@leveldown@@6B@   0000000180060e30     batch.obj
 0002:00008e48       ??_7ObjectWrap@Nan@@6B@    0000000180060e48     batch.obj
 0002:00008e60       ??_7AsyncWorker@Nan@@6B@   0000000180060e60     batch_async.obj
 0002:00008e90       ??_7BatchWriteWorker@leveldown@@6B@ 0000000180060e90     batch_async.obj
 0002:00008ec0       ??_7AsyncWorker@leveldown@@6B@ 0000000180060ec0     batch_async.obj
 0002:00008ef0       ??_C@_0BA@JFNIOLAK@string?5too?5long?$AA@ 0000000180060ef0     database.obj
 0002:00008f00       ??_C@_1HM@EPCJDOGF@?$AAC?$AA?3?$AA?2?$AAG?$AAi?$AAt?$AA?2?$AAA?$AAS?$AAL?$AA?2?$AAS?$AAD?$AAK?$AAS?$AA?2?$AAA?$AAc?$AAt?$AAi?$AAv?$AAe?$AAl?$AAe?$AAd?$AAg?$AAe?$AAr?$AAS?$AAD?$AAK?$AA_@ 0000000180060f00     database.obj
 0002:00008f80       ??_C@_1BO@OPFMAOCA@?$AAl?$AAe?$AAn?$AA?5?$AA?$DM?$AA?$DN?$AA?5?$AAI?$AAN?$AAT?$AA_?$AAM?$AAA?$AAX?$AA?$AA@ 0000000180060f80     database.obj
 0002:00008fa0       ??_C@_1BE@CKDJNAPC@?$AAs?$AAt?$AAr?$AA_?$AA?5?$AA?$CB?$AA?$DN?$AA?5?$AA0?$AA?$AA@ 0000000180060fa0     database.obj
 0002:00008fb8       ??_C@_08HDBDMMBI@Database?$AA@ 0000000180060fb8     database.obj
 0002:00008fc4       ??_C@_04PMOCAHAA@open?$AA@ 0000000180060fc4     database.obj
 0002:00008fcc       ??_C@_05LBOHBHFK@close?$AA@ 0000000180060fcc     database.obj
 0002:00008fd4       ??_C@_03HNAFFKGA@get?$AA@  0000000180060fd4     database.obj
 0002:00008fd8       ??_C@_0BA@ICBLEBO@approximateSize?$AA@ 0000000180060fd8     database.obj
 0002:00008fe8       ??_C@_0N@BCNJFBMC@compactRange?$AA@ 0000000180060fe8     database.obj
 0002:00008ff8       ??_C@_0M@NBNLNHMA@getProperty?$AA@ 0000000180060ff8     database.obj
 0002:00009008       ??_C@_08EAMFHCBD@iterator?$AA@ 0000000180061008     database.obj
 0002:00009018       ??_C@_0CH@CPAEAMGP@Could?5not?5create?5new?5Database?5in@ 0000000180061018     database.obj
 0002:00009040       ??_C@_0CE@HHBAOMKC@open?$CI?$CJ?5requires?5a?5callback?5argum@ 0000000180061040     database.obj
 0002:00009068       ??_C@_0BA@IMLMMIHB@createIfMissing?$AA@ 0000000180061068     database.obj
 0002:00009078       ??_C@_0O@CKMGLPGG@errorIfExists?$AA@ 0000000180061078     database.obj
 0002:00009088       ??_C@_0M@DGJEMLOB@compression?$AA@ 0000000180061088     database.obj
 0002:00009098       ??_C@_09KLMIPJNI@cacheSize?$AA@ 0000000180061098     database.obj
 0002:000090a8       ??_C@_0BA@DHJKOGAG@writeBufferSize?$AA@ 00000001800610a8     database.obj
 0002:000090b8       ??_C@_09NKOHFFHE@blockSize?$AA@ 00000001800610b8     database.obj
 0002:000090c8       ??_C@_0N@OEAPABBL@maxOpenFiles?$AA@ 00000001800610c8     database.obj
 0002:000090d8       ??_C@_0BF@KEFIBIAB@blockRestartInterval?$AA@ 00000001800610d8     database.obj
 0002:000090f0       ??_C@_0M@EIGBNOHB@maxFileSize?$AA@ 00000001800610f0     database.obj
 0002:00009100       ??_C@_08PBOCEOLL@database?$AA@ 0000000180061100     database.obj
 0002:00009110       ??_C@_0CF@NPLBOPGM@close?$CI?$CJ?5requires?5a?5callback?5argu@ 0000000180061110     database.obj
 0002:00009138       ??_C@_03JBJLGPFL@end?$AA@  0000000180061138     database.obj
 0002:00009140       ??_C@_0CD@OPCHGGCC@put?$CI?$CJ?5requires?5a?5callback?5argume@ 0000000180061140     database.obj
 0002:00009168       ??_C@_0CD@IGCCFGHB@get?$CI?$CJ?5requires?5a?5callback?5argume@ 0000000180061168     database.obj
 0002:00009190       ??_C@_08KDGACIGK@asBuffer?$AA@ 0000000180061190     database.obj
 0002:000091a0       ??_C@_09KBFNDMIM@fillCache?$AA@ 00000001800611a0     database.obj
 0002:000091b0       ??_C@_0CD@LINPOKAD@del?$CI?$CJ?5requires?5a?5callback?5argume@ 00000001800611b0     database.obj
 0002:000091d8       ??_C@_0CF@CIMGFFEN@batch?$CI?$CJ?5requires?5a?5callback?5argu@ 00000001800611d8     database.obj
 0002:00009200       ??_C@_03ICHNJLJF@key?$AA@  0000000180061200     database.obj
 0002:00009204       ??_C@_04GPMDFGEJ@type?$AA@ 0000000180061204     database.obj
 0002:0000920c       ??_C@_05MFEJDJP@value?$AA@ 000000018006120c     database.obj
 0002:00009218       ??_C@_0CP@IOHKLPIB@approximateSize?$CI?$CJ?5requires?5a?5cal@ 0000000180061218     database.obj
 0002:00009248       ??_C@_0CM@EIEJEHHL@compactRange?$CI?$CJ?5requires?5a?5callba@ 0000000180061248     database.obj
 0002:00009278       ??_C@_0CD@DMCOACFB@Fatal?5Error?5in?5Database?3?3Iterato@ 0000000180061278     database.obj
 0002:000092a0       ??_C@_0BI@CFPLBAOH@invalid?5string?5position?$AA@ 00000001800612a0     database.obj
 0002:000092b8       ??_C@_0BE@JONHPENG@map?1set?$DMT?$DO?5too?5long?$AA@ 00000001800612b8     database.obj
 0002:000092d8       __pfnDliNotifyHook2        00000001800612d8     win_delay_load_hook.obj
 0002:0000a500       ??_7Database@leveldown@@6B@ 0000000180062500     database.obj
 0002:0000a518       ??_C@_00CNPNBAHC@?$AA@     0000000180062518     database_async.obj
 0002:0000a520       ??_C@_1FM@LOELJOFK@?$AAs?$AAi?$AAz?$AAe?$AA?5?$AA?$DM?$AA?$DN?$AA?5?$AAi?$AAm?$AAp?$AA?3?$AA?3?$AAk?$AAM?$AAa?$AAx?$AAL?$AAe?$AAn?$AAg?$AAt?$AAh?$AA?5?$AA?$CG?$AA?$CG?$AA?5?$AA?$CC?$AAt?$AAo?$AAo?$AA?5@ 0000000180062520     database_async.obj
 0002:0000a57c       ??_C@_05FAGFPHJG@start?$AA@ 000000018006257c     database_async.obj
 0002:0000a588       ??_C@_0N@GANCMIEI@compactStart?$AA@ 0000000180062588     database_async.obj
 0002:0000a598       ??_C@_0L@DMDPIKJI@compactEnd?$AA@ 0000000180062598     database_async.obj
 0002:0000a5a8       ??_7BatchWorker@leveldown@@6B@ 00000001800625a8     database_async.obj
 0002:0000a5d8       ??_7CloseWorker@leveldown@@6B@ 00000001800625d8     database_async.obj
 0002:0000a608       ??_7DeleteWorker@leveldown@@6B@ 0000000180062608     database_async.obj
 0002:0000a638       ??_7WriteWorker@leveldown@@6B@ 0000000180062638     database_async.obj
 0002:0000a668       ??_7OpenWorker@leveldown@@6B@ 0000000180062668     database_async.obj
 0002:0000a698       ??_7ReadWorker@leveldown@@6B@ 0000000180062698     database_async.obj
 0002:0000a6c8       ??_7IOWorker@leveldown@@6B@ 00000001800626c8     database_async.obj
 0002:0000a6f8       ??_7CompactRangeWorker@leveldown@@6B@ 00000001800626f8     database_async.obj
 0002:0000a728       ??_7ApproximateSizeWorker@leveldown@@6B@ 0000000180062728     database_async.obj
 0002:0000a758       ??_C@_0CE@FOALBICH@next?$CI?$CJ?5requires?5a?5callback?5argum@ 0000000180062758     iterator.obj
 0002:0000a780       ??_C@_0BD@DKFIMDA@iterator?5has?5ended?$AA@ 0000000180062780     iterator.obj
 0002:0000a798       ??_C@_0CD@IJEBAALJ@end?$CI?$CJ?5requires?5a?5callback?5argume@ 0000000180062798     iterator.obj
 0002:0000a7c0       ??_C@_08MCDEPALA@Iterator?$AA@ 00000001800627c0     iterator.obj
 0002:0000a7cc       ??_C@_04EDECCOGL@seek?$AA@ 00000001800627cc     iterator.obj
 0002:0000a7d4       ??_C@_04CJGEDOF@next?$AA@  00000001800627d4     iterator.obj
 0002:0000a7e0       ??_C@_0CH@HJJGKNGL@Could?5not?5create?5new?5Iterator?5in@ 00000001800627e0     iterator.obj
 0002:0000a808       ??_C@_07KOIEOCCE@reverse?$AA@ 0000000180062808     iterator.obj
 0002:0000a810       ??_C@_05GADAOHMC@limit?$AA@ 0000000180062810     iterator.obj
 0002:0000a818       ??_C@_0O@PLFAGPJD@highWaterMark?$AA@ 0000000180062818     iterator.obj
 0002:0000a828       ??_C@_02KCAKIFL@lt?$AA@    0000000180062828     iterator.obj
 0002:0000a82c       ??_C@_03OEDJDHDG@lte?$AA@  000000018006282c     iterator.obj
 0002:0000a830       ??_C@_02GHFEHLK@gt?$AA@    0000000180062830     iterator.obj
 0002:0000a834       ??_C@_03DDDILADH@gte?$AA@  0000000180062834     iterator.obj
 0002:0000a838       ??_C@_04IEPFDAGF@keys?$AA@ 0000000180062838     iterator.obj
 0002:0000a840       ??_C@_06GEKOPAHD@values?$AA@ 0000000180062840     iterator.obj
 0002:0000a848       ??_C@_0M@MOFCCECG@keyAsBuffer?$AA@ 0000000180062848     iterator.obj
 0002:0000a858       ??_C@_0O@ECAICMIE@valueAsBuffer?$AA@ 0000000180062858     iterator.obj
 0002:0000a868       ??_C@_0BD@OLBABOEK@vector?$DMT?$DO?5too?5long?$AA@ 0000000180062868     iterator.obj
 0002:0000a880       ??_7Iterator@leveldown@@6B@ 0000000180062880     iterator.obj
 0002:0000a898       ??_7NextWorker@leveldown@@6B@ 0000000180062898     iterator_async.obj
 0002:0000a8c8       ??_7EndWorker@leveldown@@6B@ 00000001800628c8     iterator_async.obj
 0002:0000a8f8       ??_C@_07OKFGPCEA@destroy?$AA@ 00000001800628f8     leveldown.obj
 0002:0000a900       ??_C@_06GBBKOEBI@repair?$AA@ 0000000180062900     leveldown.obj
 0002:0000a908       ??_C@_09KIOKINMM@leveldown?$AA@ 0000000180062908     leveldown.obj
 0002:0000a918       ??_C@_0BE@BKDFJCMI@?4?4?2src?2leveldown?4cc?$AA@ 0000000180062918     leveldown.obj
 0002:0000a930       ??_7RepairWorker@leveldown@@6B@ 0000000180062930     leveldown_async.obj
 0002:0000a960       ??_7DestroyWorker@leveldown@@6B@ 0000000180062960     leveldown_async.obj
 0002:0000a990       ??_C@_08HCOMDCCD@iojs?4exe?$AA@ 0000000180062990     win_delay_load_hook.obj
 0002:0000a9a0       ??_C@_08JDDNMFDB@node?4exe?$AA@ 00000001800629a0     win_delay_load_hook.obj
 0002:0000a9b0       ??_C@_1OA@FDDJBACD@?$AAC?$AA?3?$AA?2?$AAG?$AAi?$AAt?$AA?2?$AAA?$AAS?$AAL?$AA?2?$AAS?$AAD?$AAK?$AAS?$AA?2?$AAA?$AAc?$AAt?$AAi?$AAv?$AAe?$AAl?$AAe?$AAd?$AAg?$AAe?$AAr?$AAS?$AAD?$AAK?$AA_@ 00000001800629b0     leveldb:write_batch.obj
 0002:0000aa90       ??_C@_1BG@NADKCJKJ@?$AAn?$AA?5?$AA?$DM?$AA?5?$AAs?$AAi?$AAz?$AAe?$AA?$CI?$AA?$CJ?$AA?$AA@ 0000000180062a90     leveldb:write_batch.obj
 0002:0000aaa8       ??_C@_1BI@LMLGEHCA@?$AAn?$AA?5?$AA?$DM?$AA?$DN?$AA?5?$AAs?$AAi?$AAz?$AAe?$AA?$CI?$AA?$CJ?$AA?$AA@ 0000000180062aa8     leveldb:write_batch.obj
 0002:0000aac0       ??_C@_0CB@MFAPGBPB@malformed?5WriteBatch?5?$CItoo?5small?$CJ@ 0000000180062ac0     leveldb:write_batch.obj
 0002:0000aae8       ??_C@_0BD@KFCDGH@bad?5WriteBatch?5Put?$AA@ 0000000180062ae8     leveldb:write_batch.obj
 0002:0000ab00       ??_C@_0BG@NCNAMDPJ@bad?5WriteBatch?5Delete?$AA@ 0000000180062b00     leveldb:write_batch.obj
 0002:0000ab18       ??_C@_0BH@MHGNFOAB@unknown?5WriteBatch?5tag?$AA@ 0000000180062b18     leveldb:write_batch.obj
 0002:0000ab30       ??_C@_0BL@GDAJGIHJ@WriteBatch?5has?5wrong?5count?$AA@ 0000000180062b30     leveldb:write_batch.obj
 0002:0000ab50       ??_C@_1DO@PCFNFPEA@?$AAl?$AAe?$AAv?$AAe?$AAl?$AAd?$AAb?$AA?9?$AA1?$AA?4?$AA2?$AA0?$AA?2?$AAd?$AAb?$AA?2?$AAw?$AAr?$AAi?$AAt?$AAe?$AA_?$AAb?$AAa?$AAt?$AAc?$AAh?$AA?4?$AAc?$AAc?$AA?$AA@ 0000000180062b50     leveldb:write_batch.obj
 0002:0000ab90       ??_C@_1DI@BGNOMHCM@?$AAs?$AAr?$AAc?$AA?9?$AA?$DO?$AAr?$AAe?$AAp?$AA_?$AA?4?$AAs?$AAi?$AAz?$AAe?$AA?$CI?$AA?$CJ?$AA?5?$AA?$DO?$AA?$DN?$AA?5?$AAk?$AAH?$AAe?$AAa?$AAd?$AAe?$AAr?$AA?$AA@ 0000000180062b90     leveldb:write_batch.obj
 0002:0000abc8       ??_7Handler@WriteBatch@leveldb@@6B@ 0000000180062bc8     leveldb:write_batch.obj
 0002:0000abc8       ??_7SequentialFile@leveldb@@6B@ 0000000180062bc8     leveldb:env.obj
 0002:0000abe0       ??_7MemTableInserter@?A0xa8e95b65@leveldb@@6B@ 0000000180062be0     leveldb:write_batch.obj
 0002:0000abf8       ??_C@_02GIPFHKNO@OK?$AA@   0000000180062bf8     leveldb:status.obj
 0002:0000ac00       ??_C@_0L@HKDIDHFG@NotFound?3?5?$AA@ 0000000180062c00     leveldb:status.obj
 0002:0000ac10       ??_C@_0N@KDKDJABO@Corruption?3?5?$AA@ 0000000180062c10     leveldb:status.obj
 0002:0000ac20       ??_C@_0BC@IFMBLDI@Not?5implemented?3?5?$AA@ 0000000180062c20     leveldb:status.obj
 0002:0000ac38       ??_C@_0BD@JMODGJIE@Invalid?5argument?3?5?$AA@ 0000000180062c38     leveldb:status.obj
 0002:0000ac50       ??_C@_0L@BHAHLIIP@IO?5error?3?5?$AA@ 0000000180062c50     leveldb:status.obj
 0002:0000ac60       ??_C@_0BD@MHNAFLBE@Unknown?5code?$CI?$CFd?$CJ?3?5?$AA@ 0000000180062c60     leveldb:status.obj
 0002:0000ac78       ??_C@_0BM@ELMIHIHJ@leveldb?4BuiltinBloomFilter2?$AA@ 0000000180062c78     leveldb:bloom.obj
 0002:0000ac98       ??_7Source@snappy@@6B@     0000000180062c98     snappy:snappy.obj
 0002:0000ac98       ??_7FilterPolicy@leveldb@@6B@ 0000000180062c98     leveldb:bloom.obj
 0002:0000acb8       ??_7BloomFilterPolicy@?A0x9ca00a5f@leveldb@@6B@ 0000000180062cb8     leveldb:bloom.obj
 0002:0000acd8       ??_7LogReporter@?1??RecoverLogFile@DBImpl@leveldb@@AEAA?AVStatus@3@_K_NPEA_NPEAVVersionEdit@3@PEA_K@Z@6B@ 0000000180062cd8     leveldb:db_impl.obj
 0002:0000ace8       ??_7DBImpl@leveldb@@6B@    0000000180062ce8     leveldb:db_impl.obj
 0002:0000ad40       ??_7InternalKeyComparator@leveldb@@6B@ 0000000180062d40     leveldb:db_impl.obj
 0002:0000ad68       ??_7DB@leveldb@@6B@        0000000180062d68     leveldb:db_impl.obj
 0002:0000adc0       ??_7FileLock@leveldb@@6B@  0000000180062dc0     leveldb:env.obj
 0002:0000adc0       ??_7Snapshot@leveldb@@6B@  0000000180062dc0     leveldb:db_impl.obj
 0002:0000adc8       ??_7InternalFilterPolicy@leveldb@@6B@ 0000000180062dc8     leveldb:db_impl.obj
 0002:0000ade8       ??_7SnapshotImpl@leveldb@@6B@ 0000000180062de8     leveldb:db_impl.obj
 0002:0000adf0       ??_C@_1MM@FABONEGH@?$AAC?$AA?3?$AA?2?$AAG?$AAi?$AAt?$AA?2?$AAA?$AAS?$AAL?$AA?2?$AAS?$AAD?$AAK?$AAS?$AA?2?$AAA?$AAc?$AAt?$AAi?$AAv?$AAe?$AAl?$AAe?$AAd?$AAg?$AAe?$AAr?$AAS?$AAD?$AAK?$AA_@ 0000000180062df0     leveldb:db_impl.obj
 0002:0000aec0       ??_C@_1DC@KFNEGKGI@?$AAi?$AAn?$AAt?$AAe?$AAr?$AAn?$AAa?$AAl?$AA_?$AAk?$AAe?$AAy?$AA?4?$AAs?$AAi?$AAz?$AAe?$AA?$CI?$AA?$CJ?$AA?5?$AA?$DO?$AA?$DN?$AA?5?$AA8?$AA?$AA@ 0000000180062ec0     leveldb:db_impl.obj
 0002:0000af00       ??_C@_1MM@NNIAGIJI@?$AAC?$AA?3?$AA?2?$AAG?$AAi?$AAt?$AA?2?$AAA?$AAS?$AAL?$AA?2?$AAS?$AAD?$AAK?$AAS?$AA?2?$AAA?$AAc?$AAt?$AAi?$AAv?$AAe?$AAl?$AAe?$AAd?$AAg?$AAe?$AAr?$AAS?$AAD?$AAK?$AA_@ 0000000180062f00     leveldb:db_impl.obj
 0002:0000afd0       ??_C@_1CC@BBPCDAAO@?$AAs?$AA?9?$AA?$DO?$AAl?$AAi?$AAs?$AAt?$AA_?$AA?5?$AA?$DN?$AA?$DN?$AA?5?$AAt?$AAh?$AAi?$AAs?$AA?$AA@ 0000000180062fd0     leveldb:db_impl.obj
 0002:0000b000       ??_C@_1MM@HDLCGKLK@?$AAC?$AA?3?$AA?2?$AAG?$AAi?$AAt?$AA?2?$AAA?$AAS?$AAL?$AA?2?$AAS?$AAD?$AAK?$AAS?$AA?2?$AAA?$AAc?$AAt?$AAi?$AAv?$AAe?$AAl?$AAe?$AAd?$AAg?$AAe?$AAr?$AAS?$AAD?$AAK?$AA_@ 0000000180063000     leveldb:db_impl.obj
 0002:0000b0d0       ??_C@_1BG@HPOMICMF@?$AAr?$AAe?$AAf?$AAs?$AA_?$AA?5?$AA?$DO?$AA?$DN?$AA?5?$AA0?$AA?$AA@ 00000001800630d0     leveldb:db_impl.obj
 0002:0000b0f0       ??_C@_1NC@EIKDCNML@?$AAC?$AA?3?$AA?2?$AAG?$AAi?$AAt?$AA?2?$AAA?$AAS?$AAL?$AA?2?$AAS?$AAD?$AAK?$AAS?$AA?2?$AAA?$AAc?$AAt?$AAi?$AAv?$AAe?$AAl?$AAe?$AAd?$AAg?$AAe?$AAr?$AAS?$AAD?$AAK?$AA_@ 00000001800630f0     leveldb:db_impl.obj
 0002:0000b1c8       ??_C@_1CI@ONGMKBKI@?$AAs?$AA?5?$AA?$DO?$AA?$DN?$AA?5?$AAl?$AAa?$AAs?$AAt?$AA_?$AAs?$AAe?$AAq?$AAu?$AAe?$AAn?$AAc?$AAe?$AA_?$AA?$AA@ 00000001800631c8     leveldb:db_impl.obj
 0002:0000b1f0       ??_C@_0BC@JALOIKCP@Ignoring?5error?5?$CFs?$AA@ 00000001800631f0     leveldb:db_impl.obj
 0002:0000b208       ??_C@_0BG@JFOLEODH@Delete?5type?$DN?$CFd?5?$CD?$CFlld?6?$AA@ 0000000180063208     leveldb:db_impl.obj
 0002:0000b220       ??_C@_01KMDKNFGN@?1?$AA@   0000000180063220     leveldb:db_impl.obj
 0002:0000b228       ??_C@_1DG@PIMICOEL@?$AAl?$AAe?$AAv?$AAe?$AAl?$AAd?$AAb?$AA?9?$AA1?$AA?4?$AA2?$AA0?$AA?2?$AAd?$AAb?$AA?2?$AAd?$AAb?$AA_?$AAi?$AAm?$AAp?$AAl?$AA?4?$AAc?$AAc?$AA?$AA@ 0000000180063228     leveldb:db_impl.obj
 0002:0000b260       ??_C@_1CC@ILLOLGKN@?$AAd?$AAb?$AA_?$AAl?$AAo?$AAc?$AAk?$AA_?$AA?5?$AA?$DN?$AA?$DN?$AA?5?$AAN?$AAU?$AAL?$AAL?$AA?$AA@ 0000000180063260     leveldb:db_impl.obj
 0002:0000b288       ??_C@_0CM@NJBPDBKJ@does?5not?5exist?5?$CIcreate_if_missin@ 0000000180063288     leveldb:db_impl.obj
 0002:0000b2b8       ??_C@_0CB@JKAIOEMM@exists?5?$CIerror_if_exists?5is?5true?$CJ@ 00000001800632b8     leveldb:db_impl.obj
 0002:0000b2e0       ??_C@_0BH@FNAANBPD@?$CFd?5missing?5files?$DL?5e?4g?4?$AA@ 00000001800632e0     leveldb:db_impl.obj
 0002:0000b2f8       ??_C@_0BC@HAHNELHF@?$CIignoring?5error?$CJ?5?$AA@ 00000001800632f8     leveldb:db_impl.obj
 0002:0000b310       ??_C@_0BM@IEECBMAN@?$CFs?$CFs?3?5dropping?5?$CFd?5bytes?$DL?5?$CFs?$AA@ 0000000180063310     leveldb:db_impl.obj
 0002:0000b330       ??_C@_0BF@KNKOMAKO@Recovering?5log?5?$CD?$CFllu?$AA@ 0000000180063330     leveldb:db_impl.obj
 0002:0000b348       ??_C@_0BF@JFEJNHOC@log?5record?5too?5small?$AA@ 0000000180063348     leveldb:db_impl.obj
 0002:0000b360       ??_C@_1CC@KHGGPAKF@?$AAl?$AAo?$AAg?$AAf?$AAi?$AAl?$AAe?$AA_?$AA?5?$AA?$DN?$AA?$DN?$AA?5?$AAN?$AAU?$AAL?$AAL?$AA?$AA@ 0000000180063360     leveldb:db_impl.obj
 0002:0000b388       ??_C@_1BK@EEPDGBND@?$AAl?$AAo?$AAg?$AA_?$AA?5?$AA?$DN?$AA?$DN?$AA?5?$AAN?$AAU?$AAL?$AAL?$AA?$AA@ 0000000180063388     leveldb:db_impl.obj
 0002:0000b3a8       ??_C@_1BK@DPMLNIHF@?$AAm?$AAe?$AAm?$AA_?$AA?5?$AA?$DN?$AA?$DN?$AA?5?$AAN?$AAU?$AAL?$AAL?$AA?$AA@ 00000001800633a8     leveldb:db_impl.obj
 0002:0000b3c8       ??_C@_0BF@HIHGMFHA@Reusing?5old?5log?5?$CFs?5?6?$AA@ 00000001800633c8     leveldb:db_impl.obj
 0002:0000b3e0       ??_C@_0BN@COCEKI@Level?90?5table?5?$CD?$CFllu?3?5started?$AA@ 00000001800633e0     leveldb:db_impl.obj
 0002:0000b400       ??_C@_0CD@DPCIKGHP@Level?90?5table?5?$CD?$CFllu?3?5?$CFlld?5bytes?5@ 0000000180063400     leveldb:db_impl.obj
 0002:0000b428       ??_C@_1BK@IGFHJPED@?$AAi?$AAm?$AAm?$AA_?$AA?5?$AA?$CB?$AA?$DN?$AA?5?$AAN?$AAU?$AAL?$AAL?$AA?$AA@ 0000000180063428     leveldb:db_impl.obj
 0002:0000b448       ??_C@_0CH@IOLOKLFC@Deleting?5DB?5during?5memtable?5comp@ 0000000180063448     leveldb:db_impl.obj
 0002:0000b470       ??_C@_1BG@FBALNOAJ@?$AAl?$AAe?$AAv?$AAe?$AAl?$AA?5?$AA?$DO?$AA?$DN?$AA?5?$AA0?$AA?$AA@ 0000000180063470     leveldb:db_impl.obj
 0002:0000b488       ??_C@_1DO@HOBCOBHH@?$AAl?$AAe?$AAv?$AAe?$AAl?$AA?5?$AA?$CL?$AA?5?$AA1?$AA?5?$AA?$DM?$AA?5?$AAc?$AAo?$AAn?$AAf?$AAi?$AAg?$AA?3?$AA?3?$AAk?$AAN?$AAu?$AAm?$AAL?$AAe?$AAv?$AAe?$AAl?$AAs?$AA?$AA@ 0000000180063488     leveldb:db_impl.obj
 0002:0000b4c8       ??_C@_1DC@OJMHCMCP@?$AAb?$AAg?$AA_?$AAc?$AAo?$AAm?$AAp?$AAa?$AAc?$AAt?$AAi?$AAo?$AAn?$AA_?$AAs?$AAc?$AAh?$AAe?$AAd?$AAu?$AAl?$AAe?$AAd?$AA_?$AA?$AA@ 00000001800634c8     leveldb:db_impl.obj
 0002:0000b4fc       ??_C@_05CEHBFNBN@?$CIend?$CJ?$AA@ 00000001800634fc     leveldb:db_impl.obj
 0002:0000b508       ??_C@_07JPGNPAEF@?$CIbegin?$CJ?$AA@ 0000000180063508     leveldb:db_impl.obj
 0002:0000b510       ??_C@_0DO@LGGFBPLI@Manual?5compaction?5at?5level?9?$CFd?5fr@ 0000000180063510     leveldb:db_impl.obj
 0002:0000b550       ??_C@_1DG@BKJODJLI@?$AAc?$AA?9?$AA?$DO?$AAn?$AAu?$AAm?$AA_?$AAi?$AAn?$AAp?$AAu?$AAt?$AA_?$AAf?$AAi?$AAl?$AAe?$AAs?$AA?$CI?$AA0?$AA?$CJ?$AA?5?$AA?$DN?$AA?$DN?$AA?5?$AA1?$AA?$AA@ 0000000180063550     leveldb:db_impl.obj
 0002:0000b588       ??_C@_0CL@LBPMNBCM@Moved?5?$CD?$CFlld?5to?5level?9?$CFd?5?$CFlld?5byt@ 0000000180063588     leveldb:db_impl.obj
 0002:0000b5b8       ??_C@_0BF@JOIADNEO@Compaction?5error?3?5?$CFs?$AA@ 00000001800635b8     leveldb:db_impl.obj
 0002:0000b5d0       ??_C@_1DC@KCAEGKPC@?$AAc?$AAo?$AAm?$AAp?$AAa?$AAc?$AAt?$AA?9?$AA?$DO?$AAo?$AAu?$AAt?$AAf?$AAi?$AAl?$AAe?$AA?5?$AA?$DN?$AA?$DN?$AA?5?$AAN?$AAU?$AAL?$AAL?$AA?$AA@ 00000001800635d0     leveldb:db_impl.obj
 0002:0000b608       ??_C@_1CA@NDGIODEB@?$AAc?$AAo?$AAm?$AAp?$AAa?$AAc?$AAt?$AA?5?$AA?$CB?$AA?$DN?$AA?5?$AAN?$AAU?$AAL?$AAL?$AA?$AA@ 0000000180063608     leveldb:db_impl.obj
 0002:0000b628       ??_C@_1DC@FHGJPBE@?$AAc?$AAo?$AAm?$AAp?$AAa?$AAc?$AAt?$AA?9?$AA?$DO?$AAb?$AAu?$AAi?$AAl?$AAd?$AAe?$AAr?$AA?5?$AA?$DN?$AA?$DN?$AA?5?$AAN?$AAU?$AAL?$AAL?$AA?$AA@ 0000000180063628     leveldb:db_impl.obj
 0002:0000b660       ??_C@_1DC@ODABIHKE@?$AAc?$AAo?$AAm?$AAp?$AAa?$AAc?$AAt?$AA?9?$AA?$DO?$AAo?$AAu?$AAt?$AAf?$AAi?$AAl?$AAe?$AA?5?$AA?$CB?$AA?$DN?$AA?5?$AAN?$AAU?$AAL?$AAL?$AA?$AA@ 0000000180063660     leveldb:db_impl.obj
 0002:0000b698       ??_C@_1DC@EEHDHCEC@?$AAc?$AAo?$AAm?$AAp?$AAa?$AAc?$AAt?$AA?9?$AA?$DO?$AAb?$AAu?$AAi?$AAl?$AAd?$AAe?$AAr?$AA?5?$AA?$CB?$AA?$DN?$AA?5?$AAN?$AAU?$AAL?$AAL?$AA?$AA@ 0000000180063698     leveldb:db_impl.obj
 0002:0000b6d0       ??_C@_1CG@KJIIHBA@?$AAo?$AAu?$AAt?$AAp?$AAu?$AAt?$AA_?$AAn?$AAu?$AAm?$AAb?$AAe?$AAr?$AA?5?$AA?$CB?$AA?$DN?$AA?5?$AA0?$AA?$AA@ 00000001800636d0     leveldb:db_impl.obj
 0002:0000b6f8       ??_C@_0DA@MEIODOEN@Generated?5table?5?$CD?$CFllu?$EA?$CFd?3?5?$CFlld?5k@ 00000001800636f8     leveldb:db_impl.obj
 0002:0000b728       ??_C@_0CM@JOHCMPNB@Compacted?5?$CFd?$EA?$CFd?5?$CL?5?$CFd?$EA?$CFd?5files?5?$DN?$DO@ 0000000180063728     leveldb:db_impl.obj
 0002:0000b758       ??_C@_0BP@GPNCHHBE@Compacting?5?$CFd?$EA?$CFd?5?$CL?5?$CFd?$EA?$CFd?5files?$AA@ 0000000180063758     leveldb:db_impl.obj
 0002:0000b780       ??_C@_1HG@ECCOJIDM@?$AAv?$AAe?$AAr?$AAs?$AAi?$AAo?$AAn?$AAs?$AA_?$AA?9?$AA?$DO?$AAN?$AAu?$AAm?$AAL?$AAe?$AAv?$AAe?$AAl?$AAF?$AAi?$AAl?$AAe?$AAs?$AA?$CI?$AAc?$AAo?$AAm?$AAp?$AAa?$AAc?$AAt@ 0000000180063780     leveldb:db_impl.obj
 0002:0000b7f8       ??_C@_0BO@HDOHHFLN@Deleting?5DB?5during?5compaction?$AA@ 00000001800637f8     leveldb:db_impl.obj
 0002:0000b818       ??_C@_0BB@GIEMGFNH@compacted?5to?3?5?$CFs?$AA@ 0000000180063818     leveldb:db_impl.obj
 0002:0000b830       ??_C@_1CE@COAOCGAO@?$AA?$CB?$AAw?$AAr?$AAi?$AAt?$AAe?$AAr?$AAs?$AA_?$AA?4?$AAe?$AAm?$AAp?$AAt?$AAy?$AA?$CI?$AA?$CJ?$AA?$AA@ 0000000180063830     leveldb:db_impl.obj
 0002:0000b858       ??_C@_1BO@PMNIFHIJ@?$AAr?$AAe?$AAs?$AAu?$AAl?$AAt?$AA?5?$AA?$CB?$AA?$DN?$AA?5?$AAN?$AAU?$AAL?$AAL?$AA?$AA@ 0000000180063858     leveldb:db_impl.obj
 0002:0000b880       ??_C@_1EO@NFIJBALM@?$AAW?$AAr?$AAi?$AAt?$AAe?$AAB?$AAa?$AAt?$AAc?$AAh?$AAI?$AAn?$AAt?$AAe?$AAr?$AAn?$AAa?$AAl?$AA?3?$AA?3?$AAC?$AAo?$AAu?$AAn?$AAt?$AA?$CI?$AAr?$AAe?$AAs?$AAu?$AAl?$AAt@ 0000000180063880     leveldb:db_impl.obj
 0002:0000b8d0       ??_C@_0CD@OHHDGDOO@Current?5memtable?5full?$DL?5waiting?4?4@ 00000001800638d0     leveldb:db_impl.obj
 0002:0000b8f8       ??_C@_0BP@GEAHKBIC@Too?5many?5L0?5files?$DL?5waiting?4?4?4?6?$AA@ 00000001800638f8     leveldb:db_impl.obj
 0002:0000b920       ??_C@_1EA@HKFFNOJN@?$AAv?$AAe?$AAr?$AAs?$AAi?$AAo?$AAn?$AAs?$AA_?$AA?9?$AA?$DO?$AAP?$AAr?$AAe?$AAv?$AAL?$AAo?$AAg?$AAN?$AAu?$AAm?$AAb?$AAe?$AAr?$AA?$CI?$AA?$CJ?$AA?5?$AA?$DN?$AA?$DN?$AA?5?$AA0?$AA?$AA@ 0000000180063920     leveldb:db_impl.obj
 0002:0000b960       ??_C@_08EEPJKALM@leveldb?4?$AA@ 0000000180063960     leveldb:db_impl.obj
 0002:0000b970       ??_C@_0BD@BJKCBABH@num?9files?9at?9level?$AA@ 0000000180063970     leveldb:db_impl.obj
 0002:0000b984       ??_C@_02DPKJAMEF@?$CFd?$AA@ 0000000180063984     leveldb:db_impl.obj
 0002:0000b988       ??_C@_05BLKJBNOD@stats?$AA@ 0000000180063988     leveldb:db_impl.obj
 0002:0000b990       ??_C@_0JC@FBIEFEEE@?5?5?5?5?5?5?5?5?5?5?5?5?5?5?5?5?5?5?5?5?5?5?5?5?5?5?5?5?5?5?5C@ 0000000180063990     leveldb:db_impl.obj
 0002:0000ba28       ??_C@_0CB@CPHKKDC@?$CF3d?5?$CF8d?5?$CF8?40f?5?$CF9?40f?5?$CF8?40f?5?$CF9?40f?6@ 0000000180063a28     leveldb:db_impl.obj
 0002:0000ba50       ??_C@_08PBIEOFJN@sstables?$AA@ 0000000180063a50     leveldb:db_impl.obj
 0002:0000ba60       ??_C@_0BJ@EGPMFMGF@approximate?9memory?9usage?$AA@ 0000000180063a60     leveldb:db_impl.obj
 0002:0000ba7c       ??_C@_04FCIJFPNK@?$CFllu?$AA@ 0000000180063a7c     leveldb:db_impl.obj
 0002:0000ba88       ??_C@_1CG@JLBPNDIH@?$AAi?$AAm?$AAp?$AAl?$AA?9?$AA?$DO?$AAm?$AAe?$AAm?$AA_?$AA?5?$AA?$CB?$AA?$DN?$AA?5?$AAN?$AAU?$AAL?$AAL?$AA?$AA@ 0000000180063a88     leveldb:db_impl.obj
 0002:0000bab0       ??_C@_0BC@KBDMBKEH@deque?$DMT?$DO?5too?5long?$AA@ 0000000180063ab0     leveldb:db_impl.obj
 0002:0000bac8       ??_C@_1DG@GFCEIPBM@?$AAl?$AAe?$AAv?$AAe?$AAl?$AAd?$AAb?$AA?9?$AA1?$AA?4?$AA2?$AA0?$AA?2?$AAu?$AAt?$AAi?$AAl?$AA?2?$AAc?$AAa?$AAc?$AAh?$AAe?$AA?4?$AAc?$AAc?$AA?$AA@ 0000000180063ac8     leveldb:cache.obj
 0002:0000bb00       ??_C@_1CA@DEHIGIIA@?$AAe?$AAl?$AAe?$AAm?$AAs?$AA_?$AA?5?$AA?$DN?$AA?$DN?$AA?5?$AAc?$AAo?$AAu?$AAn?$AAt?$AA?$AA@ 0000000180063b00     leveldb:cache.obj
 0002:0000bb20       ??_C@_1DC@LMGNJKFM@?$AAi?$AAn?$AA_?$AAu?$AAs?$AAe?$AA_?$AA?4?$AAn?$AAe?$AAx?$AAt?$AA?5?$AA?$DN?$AA?$DN?$AA?5?$AA?$CG?$AAi?$AAn?$AA_?$AAu?$AAs?$AAe?$AA_?$AA?$AA@ 0000000180063b20     leveldb:cache.obj
 0002:0000bb58       ??_C@_1BI@FFMGBBDA@?$AAe?$AA?9?$AA?$DO?$AAi?$AAn?$AA_?$AAc?$AAa?$AAc?$AAh?$AAe?$AA?$AA@ 0000000180063b58     leveldb:cache.obj
 0002:0000bb70       ??_C@_1BK@NGJLMDHI@?$AAe?$AA?9?$AA?$DO?$AAr?$AAe?$AAf?$AAs?$AA?5?$AA?$DN?$AA?$DN?$AA?5?$AA1?$AA?$AA@ 0000000180063b70     leveldb:cache.obj
 0002:0000bb90       ??_C@_1BI@HFHCLOOL@?$AAe?$AA?9?$AA?$DO?$AAr?$AAe?$AAf?$AAs?$AA?5?$AA?$DO?$AA?5?$AA0?$AA?$AA@ 0000000180063b90     leveldb:cache.obj
 0002:0000bba8       ??_C@_1BK@DBCDHDAE@?$AA?$CB?$AAe?$AA?9?$AA?$DO?$AAi?$AAn?$AA_?$AAc?$AAa?$AAc?$AAh?$AAe?$AA?$AA@ 0000000180063ba8     leveldb:cache.obj
 0002:0000bbc8       ??_C@_1BO@LKJLCEGA@?$AAo?$AAl?$AAd?$AA?9?$AA?$DO?$AAr?$AAe?$AAf?$AAs?$AA?5?$AA?$DN?$AA?$DN?$AA?5?$AA1?$AA?$AA@ 0000000180063bc8     leveldb:cache.obj
 0002:0000bbe8       ??_C@_1O@BOMMHPJH@?$AAe?$AAr?$AAa?$AAs?$AAe?$AAd?$AA?$AA@ 0000000180063be8     leveldb:cache.obj
 0002:0000bbf8       ??_7ShardedLRUCache@?A0xfa0b1ac0@leveldb@@6B@ 0000000180063bf8     leveldb:cache.obj
 0002:0000bc40       ??_7Cache@leveldb@@6B@     0000000180063c40     leveldb:cache.obj
 0002:0000bc90       ??_C@_0FN@FKGADHBF@?$CK?$CK?$CK?$CK?5Repaired?5leveldb?5?$CFs?$DL?5recove@ 0000000180063c90     leveldb:repair.obj
 0002:0000bcf0       ??_C@_0BG@OHLKFIFI@repair?5found?5no?5files?$AA@ 0000000180063cf0     leveldb:repair.obj
 0002:0000bd08       ??_C@_0CJ@EOKELPDO@Log?5?$CD?$CFllu?3?5ignoring?5conversion?5e@ 0000000180063d08     leveldb:repair.obj
 0002:0000bd38       ??_C@_0CB@ONPMNLMB@Log?5?$CD?$CFllu?3?5dropping?5?$CFd?5bytes?$DL?5?$CFs@ 0000000180063d38     leveldb:repair.obj
 0002:0000bd60       ??_C@_0BH@EOEMDKLP@Log?5?$CD?$CFllu?3?5ignoring?5?$CFs?$AA@ 0000000180063d60     leveldb:repair.obj
 0002:0000bd78       ??_C@_0CK@CMDCKOFJ@Log?5?$CD?$CFllu?3?5?$CFd?5ops?5saved?5to?5Table@ 0000000180063d78     leveldb:repair.obj
 0002:0000bda8       ??_C@_0BJ@JPIJNMOF@Table?5?$CD?$CFllu?3?5dropped?3?5?$CFs?$AA@ 0000000180063da8     leveldb:repair.obj
 0002:0000bdc8       ??_C@_0BP@CLHNPLFM@Table?5?$CD?$CFllu?3?5unparsable?5key?5?$CFs?$AA@ 0000000180063dc8     leveldb:repair.obj
 0002:0000bde8       ??_C@_0BL@NILBKKHO@Table?5?$CD?$CFllu?3?5?$CFd?5entries?5?$CFs?$AA@ 0000000180063de8     leveldb:repair.obj
 0002:0000be08       ??_C@_0CB@LEFFGEHF@Table?5?$CD?$CFllu?3?5?$CFd?5entries?5repaired@ 0000000180063e08     leveldb:repair.obj
 0002:0000be2c       ??_C@_05JKKEPOFN@?1lost?$AA@ 0000000180063e2c     leveldb:repair.obj
 0002:0000be38       ??_C@_0BC@ONAGHBGP@Archiving?5?$CFs?3?5?$CFs?6?$AA@ 0000000180063e38     leveldb:repair.obj
 0002:0000be50       ??_7LogReporter@?1??ConvertLogToTable@Repairer@?A0xf548df11@leveldb@@AEAA?AVStatus@4@_K@Z@6B@ 0000000180063e50     leveldb:repair.obj
 0002:0000be60       ??_C@_1MK@ELONANEE@?$AAC?$AA?3?$AA?2?$AAG?$AAi?$AAt?$AA?2?$AAA?$AAS?$AAL?$AA?2?$AAS?$AAD?$AAK?$AAS?$AA?2?$AAA?$AAc?$AAt?$AAi?$AAv?$AAe?$AAl?$AAe?$AAd?$AAg?$AAe?$AAr?$AAS?$AAD?$AAK?$AA_@ 0000000180063e60     leveldb:memtable.obj
 0002:0000bf30       ??_C@_1BE@FMOLJMJA@?$AAb?$AAy?$AAt?$AAe?$AAs?$AA?5?$AA?$DO?$AA?5?$AA0?$AA?$AA@ 0000000180063f30     leveldb:memtable.obj
 0002:0000bf48       ??_C@_1DI@MJPJECMO@?$AAl?$AAe?$AAv?$AAe?$AAl?$AAd?$AAb?$AA?9?$AA1?$AA?4?$AA2?$AA0?$AA?2?$AAd?$AAb?$AA?2?$AAm?$AAe?$AAm?$AAt?$AAa?$AAb?$AAl?$AAe?$AA?4?$AAc?$AAc?$AA?$AA@ 0000000180063f48     leveldb:memtable.obj
 0002:0000bf80       ??_C@_1BG@JENLDJMG@?$AAr?$AAe?$AAf?$AAs?$AA_?$AA?5?$AA?$DN?$AA?$DN?$AA?5?$AA0?$AA?$AA@ 0000000180063f80     leveldb:memtable.obj
 0002:0000bfa0       ??_C@_1EI@EDGMFDOF@?$AA?$CI?$AAp?$AA?5?$AA?$CL?$AA?5?$AAv?$AAa?$AAl?$AA_?$AAs?$AAi?$AAz?$AAe?$AA?$CJ?$AA?5?$AA?9?$AA?5?$AAb?$AAu?$AAf?$AA?5?$AA?$DN?$AA?$DN?$AA?5?$AAe?$AAn?$AAc?$AAo?$AAd?$AAe?$AAd?$AA_@ 0000000180063fa0     leveldb:memtable.obj
 0002:0000bff0       ??_C@_1MM@HHEKLDBI@?$AAC?$AA?3?$AA?2?$AAG?$AAi?$AAt?$AA?2?$AAA?$AAS?$AAL?$AA?2?$AAS?$AAD?$AAK?$AAS?$AA?2?$AAA?$AAc?$AAt?$AAi?$AAv?$AAe?$AAl?$AAe?$AAd?$AAg?$AAe?$AAr?$AAS?$AAD?$AAK?$AA_@ 0000000180063ff0     leveldb:memtable.obj
 0002:0000c0c0       ??_C@_1EC@PIHPBHJD@?$AAx?$AA?5?$AA?$DN?$AA?$DN?$AA?5?$AAN?$AAU?$AAL?$AAL?$AA?5?$AA?$HM?$AA?$HM?$AA?5?$AA?$CB?$AAE?$AAq?$AAu?$AAa?$AAl?$AA?$CI?$AAk?$AAe?$AAy?$AA?0?$AA?5?$AAx?$AA?9?$AA?$DO?$AAk?$AAe?$AAy?$AA?$CJ@ 00000001800640c0     leveldb:memtable.obj
 0002:0000c108       ??_C@_1BA@PLJALMOI@?$AAV?$AAa?$AAl?$AAi?$AAd?$AA?$CI?$AA?$CJ?$AA?$AA@ 0000000180064108     leveldb:memtable.obj
 0002:0000c118       ??_C@_1O@OOEGIONJ@?$AAn?$AA?5?$AA?$DO?$AA?$DN?$AA?5?$AA0?$AA?$AA@ 0000000180064118     leveldb:memtable.obj
 0002:0000c128       ??_C@_1BG@MDOPMIMK@?$AAh?$AAe?$AAi?$AAg?$AAh?$AAt?$AA?5?$AA?$DO?$AA?5?$AA0?$AA?$AA@ 0000000180064128     leveldb:memtable.obj
 0002:0000c140       ??_C@_1CK@ECEBNFHB@?$AAh?$AAe?$AAi?$AAg?$AAh?$AAt?$AA?5?$AA?$DM?$AA?$DN?$AA?5?$AAk?$AAM?$AAa?$AAx?$AAH?$AAe?$AAi?$AAg?$AAh?$AAt?$AA?$AA@ 0000000180064140     leveldb:memtable.obj
 0002:0000c170       ??_C@_1FA@EOIGNBHK@?$AAx?$AA?5?$AA?$DN?$AA?$DN?$AA?5?$AAh?$AAe?$AAa?$AAd?$AA_?$AA?5?$AA?$HM?$AA?$HM?$AA?5?$AAc?$AAo?$AAm?$AAp?$AAa?$AAr?$AAe?$AA_?$AA?$CI?$AAx?$AA?9?$AA?$DO?$AAk?$AAe?$AAy?$AA?0?$AA?5?$AAk@ 0000000180064170     leveldb:memtable.obj
 0002:0000c1c0       ??_7MemTableIterator@leveldb@@6B@ 00000001800641c0     leveldb:memtable.obj
 0002:0000c210       ??_C@_1DI@NBLGEELL@?$AAl?$AAe?$AAv?$AAe?$AAl?$AAd?$AAb?$AA?9?$AA1?$AA?4?$AA2?$AA0?$AA?2?$AAd?$AAb?$AA?2?$AAd?$AAb?$AAf?$AAo?$AAr?$AAm?$AAa?$AAt?$AA?4?$AAc?$AAc?$AA?$AA@ 0000000180064210     leveldb:dbformat.obj
 0002:0000c248       ??_C@_1DE@LFLGLKMI@?$AAs?$AAe?$AAq?$AA?5?$AA?$DM?$AA?$DN?$AA?5?$AAk?$AAM?$AAa?$AAx?$AAS?$AAe?$AAq?$AAu?$AAe?$AAn?$AAc?$AAe?$AAN?$AAu?$AAm?$AAb?$AAe?$AAr?$AA?$AA@ 0000000180064248     leveldb:dbformat.obj
 0002:0000c280       ??_C@_1CO@MKPIOOCL@?$AAt?$AA?5?$AA?$DM?$AA?$DN?$AA?5?$AAk?$AAV?$AAa?$AAl?$AAu?$AAe?$AAT?$AAy?$AAp?$AAe?$AAF?$AAo?$AAr?$AAS?$AAe?$AAe?$AAk?$AA?$AA@ 0000000180064280     leveldb:dbformat.obj
 0002:0000c2b0       ??_C@_0O@NKEDPHCJ@?8?5?$EA?5?$CFllu?5?3?5?$CFd?$AA@ 00000001800642b0     leveldb:dbformat.obj
 0002:0000c2c0       ??_C@_01GEODFPGF@?8?$AA@   00000001800642c0     leveldb:dbformat.obj
 0002:0000c2c4       ??_C@_05MODCJBFL@?$CIbad?$CJ?$AA@ 00000001800642c4     leveldb:dbformat.obj
 0002:0000c2d0       ??_C@_0BO@PEHHCKBL@leveldb?4InternalKeyComparator?$AA@ 00000001800642d0     leveldb:dbformat.obj
 0002:0000c2f0       ??_C@_1DO@GBOLJMAG@?$AAt?$AAh?$AAi?$AAs?$AA?9?$AA?$DO?$AAC?$AAo?$AAm?$AAp?$AAa?$AAr?$AAe?$AA?$CI?$AA?$CK?$AAs?$AAt?$AAa?$AAr?$AAt?$AA?0?$AA?5?$AAt?$AAm?$AAp?$AA?$CJ?$AA?5?$AA?$DM?$AA?5?$AA0?$AA?$AA@ 00000001800642f0     leveldb:dbformat.obj
 0002:0000c330       ??_C@_1DM@DCNNJMDC@?$AAt?$AAh?$AAi?$AAs?$AA?9?$AA?$DO?$AAC?$AAo?$AAm?$AAp?$AAa?$AAr?$AAe?$AA?$CI?$AAt?$AAm?$AAp?$AA?0?$AA?5?$AAl?$AAi?$AAm?$AAi?$AAt?$AA?$CJ?$AA?5?$AA?$DM?$AA?5?$AA0?$AA?$AA@ 0000000180064330     leveldb:dbformat.obj
 0002:0000c370       ??_C@_1DK@GCDCDFNA@?$AAt?$AAh?$AAi?$AAs?$AA?9?$AA?$DO?$AAC?$AAo?$AAm?$AAp?$AAa?$AAr?$AAe?$AA?$CI?$AA?$CK?$AAk?$AAe?$AAy?$AA?0?$AA?5?$AAt?$AAm?$AAp?$AA?$CJ?$AA?5?$AA?$DM?$AA?5?$AA0?$AA?$AA@ 0000000180064370     leveldb:dbformat.obj
 0002:0000c3b0       ??_C@_1DG@IPPBCIDB@?$AAl?$AAe?$AAv?$AAe?$AAl?$AAd?$AAb?$AA?9?$AA1?$AA?4?$AA2?$AA0?$AA?2?$AAd?$AAb?$AA?2?$AAb?$AAu?$AAi?$AAl?$AAd?$AAe?$AAr?$AA?4?$AAc?$AAc?$AA?$AA@ 00000001800643b0     leveldb:builder.obj
 0002:0000c3e8       ??_C@_1CI@OJIKACPE@?$AAm?$AAe?$AAt?$AAa?$AA?9?$AA?$DO?$AAf?$AAi?$AAl?$AAe?$AA_?$AAs?$AAi?$AAz?$AAe?$AA?5?$AA?$DO?$AA?5?$AA0?$AA?$AA@ 00000001800643e8     leveldb:builder.obj
 0002:0000c410       ??_C@_0L@DNJAJHIC@?1?$CF06llu?4?$CFs?$AA@ 0000000180064410     leveldb:filename.obj
 0002:0000c420       ??_C@_1DI@GLLALNGJ@?$AAl?$AAe?$AAv?$AAe?$AAl?$AAd?$AAb?$AA?9?$AA1?$AA?4?$AA2?$AA0?$AA?2?$AAd?$AAb?$AA?2?$AAf?$AAi?$AAl?$AAe?$AAn?$AAa?$AAm?$AAe?$AA?4?$AAc?$AAc?$AA?$AA@ 0000000180064420     leveldb:filename.obj
 0002:0000c458       ??_C@_1BG@HIOOOGME@?$AAn?$AAu?$AAm?$AAb?$AAe?$AAr?$AA?5?$AA?$DO?$AA?5?$AA0?$AA?$AA@ 0000000180064458     leveldb:filename.obj
 0002:0000c470       ??_C@_03MGHMBJCF@log?$AA@  0000000180064470     leveldb:filename.obj
 0002:0000c474       ??_C@_03LHFOACIB@ldb?$AA@  0000000180064474     leveldb:filename.obj
 0002:0000c478       ??_C@_03LKNFEFGK@sst?$AA@  0000000180064478     leveldb:filename.obj
 0002:0000c480       ??_C@_0BB@IIHLHEJO@?1MANIFEST?9?$CF06llu?$AA@ 0000000180064480     leveldb:filename.obj
 0002:0000c498       ??_C@_08JJMNAAPP@?1CURRENT?$AA@ 0000000180064498     leveldb:filename.obj
 0002:0000c4a4       ??_C@_05IHOCLBML@?1LOCK?$AA@ 00000001800644a4     leveldb:filename.obj
 0002:0000c4ac       ??_C@_05LFMHCBHD@dbtmp?$AA@ 00000001800644ac     leveldb:filename.obj
 0002:0000c4b4       ??_C@_04GPHAEEIN@?1LOG?$AA@ 00000001800644b4     leveldb:filename.obj
 0002:0000c4c0       ??_C@_08MHHKKEBC@?1LOG?4old?$AA@ 00000001800644c0     leveldb:filename.obj
 0002:0000c4d0       ??_C@_07EHKOIGEK@CURRENT?$AA@ 00000001800644d0     leveldb:filename.obj
 0002:0000c4d8       ??_C@_04GPIFAJG@LOCK?$AA@  00000001800644d8     leveldb:filename.obj
 0002:0000c4e0       ??_C@_03MLIHNEFJ@LOG?$AA@  00000001800644e0     leveldb:filename.obj
 0002:0000c4e8       ??_C@_07BJBJCCKH@LOG?4old?$AA@ 00000001800644e8     leveldb:filename.obj
 0002:0000c4f0       ??_C@_09IIGJKOCP@MANIFEST?9?$AA@ 00000001800644f0     leveldb:filename.obj
 0002:0000c4fc       ??_C@_04FPOLKAEB@?4log?$AA@ 00000001800644fc     leveldb:filename.obj
 0002:0000c504       ??_C@_04CDECPMAO@?4sst?$AA@ 0000000180064504     leveldb:filename.obj
 0002:0000c50c       ??_C@_04COMJLLOF@?4ldb?$AA@ 000000018006450c     leveldb:filename.obj
 0002:0000c514       ??_C@_06GOLBNGP@?4dbtmp?$AA@ 0000000180064514     leveldb:filename.obj
 0002:0000c520       ??_C@_1EG@OBCHJDD@?$AAc?$AAo?$AAn?$AAt?$AAe?$AAn?$AAt?$AAs?$AA?4?$AAs?$AAt?$AAa?$AAr?$AAt?$AAs?$AA_?$AAw?$AAi?$AAt?$AAh?$AA?$CI?$AAd?$AAb?$AAn?$AAa?$AAm?$AAe?$AA?5?$AA?$CL?$AA?5?$AA?$CC?$AA?1@ 0000000180064520     leveldb:filename.obj
 0002:0000c568       ??_C@_01EEMJAFIK@?6?$AA@   0000000180064568     leveldb:filename.obj
 0002:0000c570       ??_C@_0BC@NCHHPNFC@NewAppendableFile?$AA@ 0000000180064570     leveldb:env.obj
 0002:0000c588       ??_7Comparator@leveldb@@6B@ 0000000180064588     leveldb:db_impl.obj
 0002:0000c588       ??_7WritableFile@leveldb@@6B@ 0000000180064588     leveldb:env.obj
 0002:0000c5b0       ??_7RandomAccessFile@leveldb@@6B@ 00000001800645b0     leveldb:env.obj
 0002:0000c5b0       ??_7Logger@leveldb@@6B@    00000001800645b0     leveldb:env.obj
 0002:0000c5b0       ??_7Reporter@Reader@log@leveldb@@6B@ 00000001800645b0     leveldb:db_impl.obj
 0002:0000c5c0       ??_7Env@leveldb@@6B@       00000001800645c0     leveldb:env.obj
 0002:0000c660       ??_C@_1OC@KDPCKNEA@?$AAC?$AA?3?$AA?2?$AAG?$AAi?$AAt?$AA?2?$AAA?$AAS?$AAL?$AA?2?$AAS?$AAD?$AAK?$AAS?$AA?2?$AAA?$AAc?$AAt?$AAi?$AAv?$AAe?$AAl?$AAe?$AAd?$AAg?$AAe?$AAr?$AAS?$AAD?$AAK?$AA_@ 0000000180064660     leveldb:merger.obj
 0002:0000c748       ??_C@_1M@IDPMFHAK@?$AAi?$AAt?$AAe?$AAr?$AA_?$AA?$AA@ 0000000180064748     leveldb:merger.obj
 0002:0000c758       ??_C@_1DK@OCBDKLME@?$AAl?$AAe?$AAv?$AAe?$AAl?$AAd?$AAb?$AA?9?$AA1?$AA?4?$AA2?$AA0?$AA?2?$AAt?$AAa?$AAb?$AAl?$AAe?$AA?2?$AAm?$AAe?$AAr?$AAg?$AAe?$AAr?$AA?4?$AAc?$AAc?$AA?$AA@ 0000000180064758     leveldb:merger.obj
 0002:0000c798       ??_7MergingIterator@?A0xd4ddc066@leveldb@@6B@ 0000000180064798     leveldb:merger.obj
 0002:0000c7e8       ??_C@_1BM@KMFKCCNG@?$AA?$CB?$AAr?$AAe?$AAp?$AA_?$AA?4?$AAe?$AAm?$AAp?$AAt?$AAy?$AA?$CI?$AA?$CJ?$AA?$AA@ 00000001800647e8     leveldb:version_set.obj
 0002:0000c808       ??_C@_1DO@IIIGNIKK@?$AAl?$AAe?$AAv?$AAe?$AAl?$AAd?$AAb?$AA?9?$AA1?$AA?4?$AA2?$AA0?$AA?2?$AAd?$AAb?$AA?2?$AAv?$AAe?$AAr?$AAs?$AAi?$AAo?$AAn?$AA_?$AAs?$AAe?$AAt?$AA?4?$AAc?$AAc?$AA?$AA@ 0000000180064808     leveldb:version_set.obj
 0002:0000c848       ??_C@_1BI@CNGMBHMD@?$AAf?$AA?9?$AA?$DO?$AAr?$AAe?$AAf?$AAs?$AA?5?$AA?$DO?$AA?5?$AA0?$AA?$AA@ 0000000180064848     leveldb:version_set.obj
 0002:0000c860       ??_C@_0CJ@IEJCNHMD@FileReader?5invoked?5with?5unexpect@ 0000000180064860     leveldb:version_set.obj
 0002:0000c890       ??_C@_0BD@CBCIGOLN@corrupted?5key?5for?5?$AA@ 0000000180064890     leveldb:version_set.obj
 0002:0000c8b0       ??_C@_1EA@FLNPCEIK@?$AAt?$AAh?$AAi?$AAs?$AA?5?$AA?$CB?$AA?$DN?$AA?5?$AA?$CG?$AAv?$AAs?$AAe?$AAt?$AA_?$AA?9?$AA?$DO?$AAd?$AAu?$AAm?$AAm?$AAy?$AA_?$AAv?$AAe?$AAr?$AAs?$AAi?$AAo?$AAn?$AAs?$AA_?$AA?$AA@ 00000001800648b0     leveldb:version_set.obj
 0002:0000c8f0       ??_C@_1BG@MHFAOFKA@?$AAr?$AAe?$AAf?$AAs?$AA_?$AA?5?$AA?$DO?$AA?$DN?$AA?5?$AA1?$AA?$AA@ 00000001800648f0     leveldb:version_set.obj
 0002:0000c908       ??_C@_1DG@MMMOKGNK@?$AAl?$AAe?$AAv?$AAe?$AAl?$AA?5?$AA?$DM?$AA?5?$AAc?$AAo?$AAn?$AAf?$AAi?$AAg?$AA?3?$AA?3?$AAk?$AAN?$AAu?$AAm?$AAL?$AAe?$AAv?$AAe?$AAl?$AAs?$AA?$AA@ 0000000180064908     leveldb:version_set.obj
 0002:0000c940       ??_C@_0L@FDBHLPMB@?9?9?9?5level?5?$AA@ 0000000180064940     leveldb:version_set.obj
 0002:0000c94c       ??_C@_05OIOCPKAF@?5?9?9?9?6?$AA@ 000000018006494c     leveldb:version_set.obj
 0002:0000c954       ??_C@_01OHGJGJJP@?$FL?$AA@ 0000000180064954     leveldb:version_set.obj
 0002:0000c958       ??_C@_04BPKGLAKD@?5?4?4?5?$AA@ 0000000180064958     leveldb:version_set.obj
 0002:0000c960       ??_C@_02JODFHDIE@?$FN?6?$AA@ 0000000180064960     leveldb:version_set.obj
 0002:0000c968       ??_C@_0CM@FHNAJAEB@overlapping?5ranges?5in?5same?5level@ 0000000180064968     leveldb:version_set.obj
 0002:0000c9a0       ??_C@_1JE@HCNLKCGH@?$AAv?$AAs?$AAe?$AAt?$AA_?$AA?9?$AA?$DO?$AAi?$AAc?$AAm?$AAp?$AA_?$AA?4?$AAC?$AAo?$AAm?$AAp?$AAa?$AAr?$AAe?$AA?$CI?$AA?$CI?$AA?$CK?$AAf?$AAi?$AAl?$AAe?$AAs?$AA?$CJ?$AA?$FL?$AAf?$AAi@ 00000001800649a0     leveldb:version_set.obj
 0002:0000ca40       ??_C@_1FE@GBNPOGE@?$AAd?$AAu?$AAm?$AAm?$AAy?$AA_?$AAv?$AAe?$AAr?$AAs?$AAi?$AAo?$AAn?$AAs?$AA_?$AA?4?$AAn?$AAe?$AAx?$AAt?$AA_?$AA?5?$AA?$DN?$AA?$DN?$AA?5?$AA?$CG?$AAd?$AAu?$AAm?$AAm?$AAy?$AA_@ 0000000180064a40     leveldb:version_set.obj
 0002:0000ca98       ??_C@_1BM@NFJIGFM@?$AAv?$AA?9?$AA?$DO?$AAr?$AAe?$AAf?$AAs?$AA_?$AA?5?$AA?$DN?$AA?$DN?$AA?5?$AA0?$AA?$AA@ 0000000180064a98     leveldb:version_set.obj
 0002:0000cab8       ??_C@_1BM@JJKEPPON@?$AAv?$AA?5?$AA?$CB?$AA?$DN?$AA?5?$AAc?$AAu?$AAr?$AAr?$AAe?$AAn?$AAt?$AA_?$AA?$AA@ 0000000180064ab8     leveldb:version_set.obj
 0002:0000cae0       ??_C@_1EC@IADDIGKK@?$AAe?$AAd?$AAi?$AAt?$AA?9?$AA?$DO?$AAl?$AAo?$AAg?$AA_?$AAn?$AAu?$AAm?$AAb?$AAe?$AAr?$AA_?$AA?5?$AA?$DO?$AA?$DN?$AA?5?$AAl?$AAo?$AAg?$AA_?$AAn?$AAu?$AAm?$AAb?$AAe?$AAr?$AA_@ 0000000180064ae0     leveldb:version_set.obj
 0002:0000cb30       ??_C@_1EM@MPOGPGGG@?$AAe?$AAd?$AAi?$AAt?$AA?9?$AA?$DO?$AAl?$AAo?$AAg?$AA_?$AAn?$AAu?$AAm?$AAb?$AAe?$AAr?$AA_?$AA?5?$AA?$DM?$AA?5?$AAn?$AAe?$AAx?$AAt?$AA_?$AAf?$AAi?$AAl?$AAe?$AA_?$AAn?$AAu@ 0000000180064b30     leveldb:version_set.obj
 0002:0000cb80       ??_C@_1DC@PINEBDGE@?$AAd?$AAe?$AAs?$AAc?$AAr?$AAi?$AAp?$AAt?$AAo?$AAr?$AA_?$AAf?$AAi?$AAl?$AAe?$AA_?$AA?5?$AA?$DN?$AA?$DN?$AA?5?$AAN?$AAU?$AAL?$AAL?$AA?$AA@ 0000000180064b80     leveldb:version_set.obj
 0002:0000cbb8       ??_C@_0BE@DKHKMIK@MANIFEST?5write?3?5?$CFs?6?$AA@ 0000000180064bb8     leveldb:version_set.obj
 0002:0000cbd0       ??_C@_0CH@CCOOCHFI@CURRENT?5file?5does?5not?5end?5with?5n@ 0000000180064bd0     leveldb:version_set.obj
 0002:0000cbf8       ??_C@_0CF@KGCIEFG@?5does?5not?5match?5existing?5compara@ 0000000180064bf8     leveldb:version_set.obj
 0002:0000cc20       ??_C@_0CF@COGGNJLO@no?5meta?9nextfile?5entry?5in?5descri@ 0000000180064c20     leveldb:version_set.obj
 0002:0000cc48       ??_C@_0CG@IGKKJHJ@no?5meta?9lognumber?5entry?5in?5descr@ 0000000180064c48     leveldb:version_set.obj
 0002:0000cc70       ??_C@_0CM@EPLOMKKC@no?5last?9sequence?9number?5entry?5in@ 0000000180064c70     leveldb:version_set.obj
 0002:0000cca0       ??_C@_1DA@NCENOOPN@?$AAd?$AAe?$AAs?$AAc?$AAr?$AAi?$AAp?$AAt?$AAo?$AAr?$AA_?$AAl?$AAo?$AAg?$AA_?$AA?5?$AA?$DN?$AA?$DN?$AA?5?$AAN?$AAU?$AAL?$AAL?$AA?$AA@ 0000000180064ca0     leveldb:version_set.obj
 0002:0000ccd0       ??_C@_0BE@NNLEOOHC@Reuse?5MANIFEST?3?5?$CFs?6?$AA@ 0000000180064cd0     leveldb:version_set.obj
 0002:0000cce8       ??_C@_0BF@JPIBOOOD@Reusing?5MANIFEST?5?$CFs?6?$AA@ 0000000180064ce8     leveldb:version_set.obj
 0002:0000cd00       ??_C@_0BO@IEHPFKHC@files?$FL?5?$CFd?5?$CFd?5?$CFd?5?$CFd?5?$CFd?5?$CFd?5?$CFd?5?$FN?$AA@ 0000000180064d00     leveldb:version_set.obj
 0002:0000cd20       ??_C@_1CA@JINEDNOH@?$AA?$CB?$AAi?$AAn?$AAp?$AAu?$AAt?$AAs?$AA?4?$AAe?$AAm?$AAp?$AAt?$AAy?$AA?$CI?$AA?$CJ?$AA?$AA@ 0000000180064d20     leveldb:version_set.obj
 0002:0000cd40       ??_C@_1BK@PFCADICL@?$AAn?$AAu?$AAm?$AA?5?$AA?$DM?$AA?$DN?$AA?5?$AAs?$AAp?$AAa?$AAc?$AAe?$AA?$AA@ 0000000180064d40     leveldb:version_set.obj
 0002:0000cd60       ??_C@_1DK@BFAOJEHK@?$AAl?$AAe?$AAv?$AAe?$AAl?$AA?$CL?$AA1?$AA?5?$AA?$DM?$AA?5?$AAc?$AAo?$AAn?$AAf?$AAi?$AAg?$AA?3?$AA?3?$AAk?$AAN?$AAu?$AAm?$AAL?$AAe?$AAv?$AAe?$AAl?$AAs?$AA?$AA@ 0000000180064d60     leveldb:version_set.obj
 0002:0000cda0       ??_C@_1CO@OHHPEOEH@?$AA?$CB?$AAc?$AA?9?$AA?$DO?$AAi?$AAn?$AAp?$AAu?$AAt?$AAs?$AA_?$AA?$FL?$AA0?$AA?$FN?$AA?4?$AAe?$AAm?$AAp?$AAt?$AAy?$AA?$CI?$AA?$CJ?$AA?$AA@ 0000000180064da0     leveldb:version_set.obj
 0002:0000cdd0       ??_C@_0DN@MPCOPHAH@Expanding?$EA?$CFd?5?$CFd?$CL?$CFd?5?$CI?$CFld?$CL?$CFld?5byte@ 0000000180064dd0     leveldb:version_set.obj
 0002:0000ce10       ??_7LevelFileNumIterator@Version@leveldb@@6B@ 0000000180064e10     leveldb:version_set.obj
 0002:0000ce60       ??_7LogReporter@?1??Recover@VersionSet@leveldb@@QEAA?AVStatus@3@PEA_N@Z@6B@ 0000000180064e60     leveldb:version_set.obj
 0002:0000ce70       ??_C@_1DO@MNCECAJL@?$AAl?$AAe?$AAv?$AAe?$AAl?$AAd?$AAb?$AA?9?$AA1?$AA?4?$AA2?$AA0?$AA?2?$AAd?$AAb?$AA?2?$AAt?$AAa?$AAb?$AAl?$AAe?$AA_?$AAc?$AAa?$AAc?$AAh?$AAe?$AA?4?$AAc?$AAc?$AA?$AA@ 0000000180064e70     leveldb:table_cache.obj
 0002:0000ceb0       ??_C@_1BM@KCLNGDCP@?$AAt?$AAa?$AAb?$AAl?$AAe?$AA?5?$AA?$DN?$AA?$DN?$AA?5?$AAN?$AAU?$AAL?$AAL?$AA?$AA@ 0000000180064eb0     leveldb:table_cache.obj
 0002:0000ced0       ??_C@_0BA@JKPGFGGN@comparator?5name?$AA@ 0000000180064ed0     leveldb:version_edit.obj
 0002:0000cee0       ??_C@_0L@MNAKOCL@log?5number?$AA@ 0000000180064ee0     leveldb:version_edit.obj
 0002:0000cef0       ??_C@_0BE@OIMELLME@previous?5log?5number?$AA@ 0000000180064ef0     leveldb:version_edit.obj
 0002:0000cf08       ??_C@_0BB@CFPAIGNM@next?5file?5number?$AA@ 0000000180064f08     leveldb:version_edit.obj
 0002:0000cf20       ??_C@_0BF@IEBCCJCO@last?5sequence?5number?$AA@ 0000000180064f20     leveldb:version_edit.obj
 0002:0000cf38       ??_C@_0BD@GHIHLOIC@compaction?5pointer?$AA@ 0000000180064f38     leveldb:version_edit.obj
 0002:0000cf50       ??_C@_0N@KHDKBPGC@deleted?5file?$AA@ 0000000180064f50     leveldb:version_edit.obj
 0002:0000cf60       ??_C@_0P@IFJKGILN@new?9file?5entry?$AA@ 0000000180064f60     leveldb:version_edit.obj
 0002:0000cf70       ??_C@_0M@NDAIKBNL@unknown?5tag?$AA@ 0000000180064f70     leveldb:version_edit.obj
 0002:0000cf80       ??_C@_0M@MPAGAHDJ@invalid?5tag?$AA@ 0000000180064f80     leveldb:version_edit.obj
 0002:0000cf90       ??_C@_0M@OFNLEEDF@VersionEdit?$AA@ 0000000180064f90     leveldb:version_edit.obj
 0002:0000cf9c       ??_C@_01CLKCMJKC@?5?$AA@   0000000180064f9c     leveldb:version_edit.obj
 0002:0000cfa0       ??_C@_0BO@FGDDGPEJ@partial?5record?5without?5end?$CI1?$CJ?$AA@ 0000000180064fa0     leveldb:log_reader.obj
 0002:0000cfc0       ??_C@_0BO@FEHFNBBA@partial?5record?5without?5end?$CI2?$CJ?$AA@ 0000000180064fc0     leveldb:log_reader.obj
 0002:0000cfe0       ??_C@_0CG@BJOOPHDE@missing?5start?5of?5fragmented?5reco@ 0000000180064fe0     leveldb:log_reader.obj
 0002:0000d008       ??_C@_0CG@BLKIEJGN@missing?5start?5of?5fragmented?5reco@ 0000000180065008     leveldb:log_reader.obj
 0002:0000d030       ??_C@_0BK@HJELPHBF@error?5in?5middle?5of?5record?$AA@ 0000000180065030     leveldb:log_reader.obj
 0002:0000d050       ??_C@_0BH@MDNCILIC@unknown?5record?5type?5?$CFu?$AA@ 0000000180065050     leveldb:log_reader.obj
 0002:0000d068       ??_C@_0BC@PHFEKIH@bad?5record?5length?$AA@ 0000000180065068     leveldb:log_reader.obj
 0002:0000d080       ??_C@_0BC@BAPADOCP@checksum?5mismatch?$AA@ 0000000180065080     leveldb:log_reader.obj
 0002:0000d098       ??_C@_1DM@NHFKPDGO@?$AAl?$AAe?$AAv?$AAe?$AAl?$AAd?$AAb?$AA?9?$AA1?$AA?4?$AA2?$AA0?$AA?2?$AAd?$AAb?$AA?2?$AAl?$AAo?$AAg?$AA_?$AAw?$AAr?$AAi?$AAt?$AAe?$AAr?$AA?4?$AAc?$AAc?$AA?$AA@ 0000000180065098     leveldb:log_writer.obj
 0002:0000d0d8       ??_C@_1BM@CNNDPEKL@?$AAl?$AAe?$AAf?$AAt?$AAo?$AAv?$AAe?$AAr?$AA?5?$AA?$DO?$AA?$DN?$AA?5?$AA0?$AA?$AA@ 00000001800650d8     leveldb:log_writer.obj
 0002:0000d0f4       ??_C@_06GCJDCAIB@?$AA?$AA?$AA?$AA?$AA?$AA?$AA@ 00000001800650f4     leveldb:log_writer.obj
 0002:0000d100       ??_C@_1FM@IPGLDLLO@?$AAk?$AAB?$AAl?$AAo?$AAc?$AAk?$AAS?$AAi?$AAz?$AAe?$AA?5?$AA?9?$AA?5?$AAb?$AAl?$AAo?$AAc?$AAk?$AA_?$AAo?$AAf?$AAf?$AAs?$AAe?$AAt?$AA_?$AA?5?$AA?9?$AA?5?$AAk?$AAH?$AAe@ 0000000180065100     leveldb:log_writer.obj
 0002:0000d160       ??_C@_1BI@FDOLHBGL@?$AAn?$AA?5?$AA?$DM?$AA?$DN?$AA?5?$AA0?$AAx?$AAf?$AAf?$AAf?$AAf?$AA?$AA@ 0000000180065160     leveldb:log_writer.obj
 0002:0000d180       ??_C@_1FM@DLHCNMNA@?$AAb?$AAl?$AAo?$AAc?$AAk?$AA_?$AAo?$AAf?$AAf?$AAs?$AAe?$AAt?$AA_?$AA?5?$AA?$CL?$AA?5?$AAk?$AAH?$AAe?$AAa?$AAd?$AAe?$AAr?$AAS?$AAi?$AAz?$AAe?$AA?5?$AA?$CL?$AA?5?$AAn?$AA?5@ 0000000180065180     leveldb:log_writer.obj
 0002:0000d1e0       ??_C@_1DO@EFNJGNNM@?$AAl?$AAe?$AAv?$AAe?$AAl?$AAd?$AAb?$AA?9?$AA1?$AA?4?$AA2?$AA0?$AA?2?$AAt?$AAa?$AAb?$AAl?$AAe?$AA?2?$AAi?$AAt?$AAe?$AAr?$AAa?$AAt?$AAo?$AAr?$AA?4?$AAc?$AAc?$AA?$AA@ 00000001800651e0     leveldb:iterator.obj
 0002:0000d220       ??_C@_1M@HLGKFCJM@?$AAf?$AAa?$AAl?$AAs?$AAe?$AA?$AA@ 0000000180065220     leveldb:iterator.obj
 0002:0000d230       ??_7Iterator@leveldb@@6B@  0000000180065230     leveldb:iterator.obj
 0002:0000d280       ??_7EmptyIterator@?A0xf4b9f651@leveldb@@6B@ 0000000180065280     leveldb:iterator.obj
 0002:0000d2d0       ??_C@_1DG@JNPAMGNA@?$AAl?$AAe?$AAv?$AAe?$AAl?$AAd?$AAb?$AA?9?$AA1?$AA?4?$AA2?$AA0?$AA?2?$AAd?$AAb?$AA?2?$AAd?$AAb?$AA_?$AAi?$AAt?$AAe?$AAr?$AA?4?$AAc?$AAc?$AA?$AA@ 00000001800652d0     leveldb:db_iter.obj
 0002:0000d308       ??_C@_0CB@GFNBEPN@corrupted?5internal?5key?5in?5DBIter@ 0000000180065308     leveldb:db_iter.obj
 0002:0000d330       ??_C@_1O@ILGKFDHK@?$AAv?$AAa?$AAl?$AAi?$AAd?$AA_?$AA?$AA@ 0000000180065330     leveldb:db_iter.obj
 0002:0000d340       ??_C@_1CO@EMDFNHEA@?$AAd?$AAi?$AAr?$AAe?$AAc?$AAt?$AAi?$AAo?$AAn?$AA_?$AA?5?$AA?$DN?$AA?$DN?$AA?5?$AAk?$AAF?$AAo?$AAr?$AAw?$AAa?$AAr?$AAd?$AA?$AA@ 0000000180065340     leveldb:db_iter.obj
 0002:0000d370       ??_C@_1BO@CNPCPKOP@?$AAi?$AAt?$AAe?$AAr?$AA_?$AA?9?$AA?$DO?$AAV?$AAa?$AAl?$AAi?$AAd?$AA?$CI?$AA?$CJ?$AA?$AA@ 0000000180065370     leveldb:db_iter.obj
 0002:0000d390       ??_C@_1CO@NJNJHGA@?$AAd?$AAi?$AAr?$AAe?$AAc?$AAt?$AAi?$AAo?$AAn?$AA_?$AA?5?$AA?$DN?$AA?$DN?$AA?5?$AAk?$AAR?$AAe?$AAv?$AAe?$AAr?$AAs?$AAe?$AA?$AA@ 0000000180065390     leveldb:db_iter.obj
 0002:0000d3c0       ??_7DBIter@?A0x82e07e78@leveldb@@6B@ 00000001800653c0     leveldb:db_iter.obj
 0002:0000d410       ??_C@_1BK@JKHHIBHD@?$AAr?$AAe?$AAp?$AA_?$AA?9?$AA?$DO?$AAc?$AAl?$AAo?$AAs?$AAe?$AAd?$AA?$AA@ 0000000180065410     leveldb:table_builder.obj
 0002:0000d430       ??_C@_1EI@EEEAHEBJ@?$AAl?$AAe?$AAv?$AAe?$AAl?$AAd?$AAb?$AA?9?$AA1?$AA?4?$AA2?$AA0?$AA?2?$AAt?$AAa?$AAb?$AAl?$AAe?$AA?2?$AAt?$AAa?$AAb?$AAl?$AAe?$AA_?$AAb?$AAu?$AAi?$AAl?$AAd?$AAe?$AAr@ 0000000180065430     leveldb:table_builder.obj
 0002:0000d478       ??_C@_1BG@IBLAONHD@?$AA?$CB?$AAr?$AA?9?$AA?$DO?$AAc?$AAl?$AAo?$AAs?$AAe?$AAd?$AA?$AA@ 0000000180065478     leveldb:table_builder.obj
 0002:0000d490       ??_C@_1CM@CLNKMFCM@?$AAr?$AA?9?$AA?$DO?$AAd?$AAa?$AAt?$AAa?$AA_?$AAb?$AAl?$AAo?$AAc?$AAk?$AA?4?$AAe?$AAm?$AAp?$AAt?$AAy?$AA?$CI?$AA?$CJ?$AA?$AA@ 0000000180065490     leveldb:table_builder.obj
 0002:0000d4c0       ??_C@_1HI@DFHNJDEL@?$AAr?$AA?9?$AA?$DO?$AAo?$AAp?$AAt?$AAi?$AAo?$AAn?$AAs?$AA?4?$AAc?$AAo?$AAm?$AAp?$AAa?$AAr?$AAa?$AAt?$AAo?$AAr?$AA?9?$AA?$DO?$AAC?$AAo?$AAm?$AAp?$AAa?$AAr?$AAe?$AA?$CI?$AAk@ 00000001800654c0     leveldb:table_builder.obj
 0002:0000d538       ??_C@_19IHNNBDHG@?$AAo?$AAk?$AA?$CI?$AA?$CJ?$AA?$AA@ 0000000180065538     leveldb:table_builder.obj
 0002:0000d548       ??_C@_1DA@OEOPKHIF@?$AA?$CB?$AAr?$AA?9?$AA?$DO?$AAp?$AAe?$AAn?$AAd?$AAi?$AAn?$AAg?$AA_?$AAi?$AAn?$AAd?$AAe?$AAx?$AA_?$AAe?$AAn?$AAt?$AAr?$AAy?$AA?$AA@ 0000000180065548     leveldb:table_builder.obj
 0002:0000d578       ??_C@_07LBJJLLJB@filter?4?$AA@ 0000000180065578     leveldb:table_builder.obj
 0002:0000d580       ??_C@_06FIJELGDL@?2x?$CF02x?$AA@ 0000000180065580     leveldb:logging.obj
 0002:0000d588       ??_C@_0BL@EMJHPPE@leveldb?4BytewiseComparator?$AA@ 0000000180065588     leveldb:comparator.obj
 0002:0000d5a8       ??_C@_1DG@FGMFBCBA@?$AAC?$AAo?$AAm?$AAp?$AAa?$AAr?$AAe?$AA?$CI?$AA?$CK?$AAs?$AAt?$AAa?$AAr?$AAt?$AA?0?$AA?5?$AAl?$AAi?$AAm?$AAi?$AAt?$AA?$CJ?$AA?5?$AA?$DM?$AA?5?$AA0?$AA?$AA@ 00000001800655a8     leveldb:comparator.obj
 0002:0000d5e0       ??_C@_1EA@JJCPKNPB@?$AAl?$AAe?$AAv?$AAe?$AAl?$AAd?$AAb?$AA?9?$AA1?$AA?4?$AA2?$AA0?$AA?2?$AAu?$AAt?$AAi?$AAl?$AA?2?$AAc?$AAo?$AAm?$AAp?$AAa?$AAr?$AAa?$AAt?$AAo?$AAr?$AA?4?$AAc?$AAc?$AA?$AA@ 00000001800655e0     leveldb:comparator.obj
 0002:0000d620       ??_7BytewiseComparatorImpl@?A0x70986fc3@leveldb@@6B@ 0000000180065620     leveldb:comparator.obj
 0002:0000d648       ??_C@_0BF@OJNGPDJN@Append?3?5cannot?5write?$AA@ 0000000180065648     leveldb:env_win.obj
 0002:0000d660       ??_C@_0BL@MCEMBBLK@Destroying?5Env?3?3Default?$CI?$CJ?6?$AA@ 0000000180065660     leveldb:env_win.obj
 0002:0000d67c       ??_C@_13FPGAJAPJ@?$AA?2?$AA?$AA@ 000000018006567c     leveldb:env_win.obj
 0002:0000d680       ??_C@_13BBDEGPLJ@?$AA?$CK?$AA?$AA@ 0000000180065680     leveldb:env_win.obj
 0002:0000d688       ??_C@_0BC@JFFNKLNA@Invalid?5file?5name?$AA@ 0000000180065688     leveldb:env_win.obj
 0002:0000d6a0       ??_C@_0N@DCPDIALN@GetFileSize?5?$AA@ 00000001800656a0     leveldb:env_win.obj
 0002:0000d6b0       ??_C@_0M@FNDMMKMH@DeleteFile?5?$AA@ 00000001800656b0     leveldb:env_win.obj
 0002:0000d6c0       ??_C@_09CLLHBIAK@LockFile?5?$AA@ 00000001800656c0     leveldb:env_win.obj
 0002:0000d6d0       ??_C@_0M@IEPECJOK@RenameFile?5?$AA@ 00000001800656d0     leveldb:env_win.obj
 0002:0000d6e0       ??_C@_0BJ@LBHFIONJ@Can?8t?5get?5test?5directory?$AA@ 00000001800656e0     leveldb:env_win.obj
 0002:0000d700       ??_C@_0BL@OKNINABO@Could?5not?5close?5lock?5file?4?$AA@ 0000000180065700     leveldb:env_win.obj
 0002:0000d71c       ??_C@_02BKFDOEMK@wt?$AA@   000000018006571c     leveldb:env_win.obj
 0002:0000d720       ??_7WinFileLock@?A0xcf581e97@leveldb@@6B@ 0000000180065720     leveldb:env_win.obj
 0002:0000d728       ??_7WinEnv@?A0xcf581e97@leveldb@@6B@ 0000000180065728     leveldb:env_win.obj
 0002:0000d7c8       ??_7WinSequentialFile@leveldb@@6B@ 00000001800657c8     leveldb:env_win.obj
 0002:0000d7e0       ??_7WinWritableFile@leveldb@@6B@ 00000001800657e0     leveldb:env_win.obj
 0002:0000d808       ??_7WinLogger@leveldb@@6B@ 0000000180065808     leveldb:env_win.obj
 0002:0000d818       ??_7WinRandomAccessFile@leveldb@@6B@ 0000000180065818     leveldb:env_win.obj
 0002:0000d828       ??_C@_1DG@LBALCANP@?$AAl?$AAe?$AAv?$AAe?$AAl?$AAd?$AAb?$AA?9?$AA1?$AA?4?$AA2?$AA0?$AA?2?$AAu?$AAt?$AAi?$AAl?$AA?2?$AAa?$AAr?$AAe?$AAn?$AAa?$AA?4?$AAc?$AAc?$AA?$AA@ 0000000180065828     leveldb:arena.obj
 0002:0000d860       ??_C@_1GO@HAPHDGIH@?$AA?$CI?$AAr?$AAe?$AAi?$AAn?$AAt?$AAe?$AAr?$AAp?$AAr?$AAe?$AAt?$AA_?$AAc?$AAa?$AAs?$AAt?$AA?$DM?$AAu?$AAi?$AAn?$AAt?$AAp?$AAt?$AAr?$AA_?$AAt?$AA?$DO?$AA?$CI?$AAr?$AAe?$AAs@ 0000000180065860     leveldb:arena.obj
 0002:0000d8d0       ??_C@_0CD@MFPEIJCL@file?5is?5too?5short?5to?5be?5an?5sstab@ 00000001800658d0     leveldb:table.obj
 0002:0000d900       ??_C@_1FC@FKHKEDLF@?$AAl?$AAe?$AAv?$AAe?$AAl?$AAd?$AAb?$AA?9?$AA1?$AA?4?$AA2?$AA0?$AA?2?$AAt?$AAa?$AAb?$AAl?$AAe?$AA?2?$AAt?$AAw?$AAo?$AA_?$AAl?$AAe?$AAv?$AAe?$AAl?$AA_?$AAi?$AAt?$AAe@ 0000000180065900     leveldb:two_level_iterator.obj
 0002:0000d958       ??_7TwoLevelIterator@?A0x4171a345@leveldb@@6B@ 0000000180065958     leveldb:two_level_iterator.obj
 0002:0000d9a8       ??_C@_1DK@BOMLGEJA@?$AAl?$AAe?$AAv?$AAe?$AAl?$AAd?$AAb?$AA?9?$AA1?$AA?4?$AA2?$AA0?$AA?2?$AAt?$AAa?$AAb?$AAl?$AAe?$AA?2?$AAf?$AAo?$AAr?$AAm?$AAa?$AAt?$AA?4?$AAc?$AAc?$AA?$AA@ 00000001800659a8     leveldb:format.obj
 0002:0000d9f0       ??_C@_1EG@ILPAOCBE@?$AAs?$AAi?$AAz?$AAe?$AA_?$AA?5?$AA?$CB?$AA?$DN?$AA?5?$AA?$HO?$AAs?$AAt?$AAa?$AAt?$AAi?$AAc?$AA_?$AAc?$AAa?$AAs?$AAt?$AA?$DM?$AAu?$AAi?$AAn?$AAt?$AA6?$AA4?$AA_?$AAt?$AA?$DO?$AA?$CI@ 00000001800659f0     leveldb:format.obj
 0002:0000da40       ??_C@_1EK@NLBLPNKC@?$AAo?$AAf?$AAf?$AAs?$AAe?$AAt?$AA_?$AA?5?$AA?$CB?$AA?$DN?$AA?5?$AA?$HO?$AAs?$AAt?$AAa?$AAt?$AAi?$AAc?$AA_?$AAc?$AAa?$AAs?$AAt?$AA?$DM?$AAu?$AAi?$AAn?$AAt?$AA6?$AA4?$AA_?$AAt@ 0000000180065a40     leveldb:format.obj
 0002:0000da90       ??_C@_1FM@OOADEKPA@?$AAd?$AAs?$AAt?$AA?9?$AA?$DO?$AAs?$AAi?$AAz?$AAe?$AA?$CI?$AA?$CJ?$AA?5?$AA?$DN?$AA?$DN?$AA?5?$AAo?$AAr?$AAi?$AAg?$AAi?$AAn?$AAa?$AAl?$AA_?$AAs?$AAi?$AAz?$AAe?$AA?5?$AA?$CL?$AA?5?$AAk@ 0000000180065a90     leveldb:format.obj
 0002:0000daf0       ??_C@_0BB@COHNLJFI@bad?5block?5handle?$AA@ 0000000180065af0     leveldb:format.obj
 0002:0000db08       ??_C@_0BF@ILLMDOOF@truncated?5block?5read?$AA@ 0000000180065b08     leveldb:format.obj
 0002:0000db20       ??_C@_0CC@LKCDIABI@not?5an?5sstable?5?$CIbad?5magic?5number@ 0000000180065b20     leveldb:format.obj
 0002:0000db48       ??_C@_0CE@CAOEIAMG@corrupted?5compressed?5block?5conte@ 0000000180065b48     leveldb:format.obj
 0002:0000db70       ??_C@_0BI@GPFPFKGA@block?5checksum?5mismatch?$AA@ 0000000180065b70     leveldb:format.obj
 0002:0000db88       ??_C@_0P@MDODGMKN@bad?5block?5type?$AA@ 0000000180065b88     leveldb:format.obj
 0002:0000dba0       ??_C@_1EI@EPHLDKEF@?$AAl?$AAe?$AAv?$AAe?$AAl?$AAd?$AAb?$AA?9?$AA1?$AA?4?$AA2?$AA0?$AA?2?$AAt?$AAa?$AAb?$AAl?$AAe?$AA?2?$AAb?$AAl?$AAo?$AAc?$AAk?$AA_?$AAb?$AAu?$AAi?$AAl?$AAd?$AAe?$AAr@ 0000000180065ba0     leveldb:block_builder.obj
 0002:0000dbe8       ??_C@_1BG@EOCCOFML@?$AA?$CB?$AAf?$AAi?$AAn?$AAi?$AAs?$AAh?$AAe?$AAd?$AA_?$AA?$AA@ 0000000180065be8     leveldb:block_builder.obj
 0002:0000dc00       ??_C@_1EK@CDMOINIK@?$AAo?$AAp?$AAt?$AAi?$AAo?$AAn?$AAs?$AA?9?$AA?$DO?$AAb?$AAl?$AAo?$AAc?$AAk?$AA_?$AAr?$AAe?$AAs?$AAt?$AAa?$AAr?$AAt?$AA_?$AAi?$AAn?$AAt?$AAe?$AAr?$AAv?$AAa?$AAl?$AA?5@ 0000000180065c00     leveldb:block_builder.obj
 0002:0000dc50       ??_C@_1JE@IDLNCLOC@?$AAb?$AAu?$AAf?$AAf?$AAe?$AAr?$AA_?$AA?4?$AAe?$AAm?$AAp?$AAt?$AAy?$AA?$CI?$AA?$CJ?$AA?5?$AA?$HM?$AA?$HM?$AA?5?$AAo?$AAp?$AAt?$AAi?$AAo?$AAn?$AAs?$AA_?$AA?9?$AA?$DO?$AAc?$AAo?$AAm@ 0000000180065c50     leveldb:block_builder.obj
 0002:0000dcf0       ??_C@_1FK@EBPNECBO@?$AAc?$AAo?$AAu?$AAn?$AAt?$AAe?$AAr?$AA_?$AA?5?$AA?$DM?$AA?$DN?$AA?5?$AAo?$AAp?$AAt?$AAi?$AAo?$AAn?$AAs?$AA_?$AA?9?$AA?$DO?$AAb?$AAl?$AAo?$AAc?$AAk?$AA_?$AAr?$AAe?$AAs?$AAt@ 0000000180065cf0     leveldb:block_builder.obj
 0002:0000dd50       ??_C@_1DA@HKBPACGM@?$AAS?$AAl?$AAi?$AAc?$AAe?$AA?$CI?$AAl?$AAa?$AAs?$AAt?$AA_?$AAk?$AAe?$AAy?$AA_?$AA?$CJ?$AA?5?$AA?$DN?$AA?$DN?$AA?5?$AAk?$AAe?$AAy?$AA?$AA@ 0000000180065d50     leveldb:block_builder.obj
 0002:0000dd80       ??_C@_1EO@PGEBFJEE@?$AAf?$AAi?$AAl?$AAt?$AAe?$AAr?$AA_?$AAi?$AAn?$AAd?$AAe?$AAx?$AA?5?$AA?$DO?$AA?$DN?$AA?5?$AAf?$AAi?$AAl?$AAt?$AAe?$AAr?$AA_?$AAo?$AAf?$AAf?$AAs?$AAe?$AAt?$AAs?$AA_?$AA?4@ 0000000180065d80     leveldb:filter_block.obj
 0002:0000ddd0       ??_C@_1EG@NNIAPMKB@?$AAl?$AAe?$AAv?$AAe?$AAl?$AAd?$AAb?$AA?9?$AA1?$AA?4?$AA2?$AA0?$AA?2?$AAt?$AAa?$AAb?$AAl?$AAe?$AA?2?$AAf?$AAi?$AAl?$AAt?$AAe?$AAr?$AA_?$AAb?$AAl?$AAo?$AAc?$AAk?$AA?4@ 0000000180065dd0     leveldb:filter_block.obj
 0002:0000de18       ??_C@_1DC@PJGPOLEE@?$AAp?$AAo?$AAr?$AAt?$AA?9?$AAl?$AAi?$AAb?$AAu?$AAv?$AA?2?$AAw?$AAi?$AAn?$AA_?$AAl?$AAo?$AAg?$AAg?$AAe?$AAr?$AA?4?$AAc?$AAc?$AA?$AA@ 0000000180065e18     leveldb:win_logger.obj
 0002:0000de50       ??_C@_0CJ@PLBDDMCE@?$CF04d?1?$CF02d?1?$CF02d?9?$CF02d?3?$CF02d?3?$CF02d?4?$CF0@ 0000000180065e50     leveldb:win_logger.obj
 0002:0000de80       ??_C@_1BG@HMMENFBB@?$AAp?$AA?5?$AA?$DM?$AA?$DN?$AA?5?$AAl?$AAi?$AAm?$AAi?$AAt?$AA?$AA@ 0000000180065e80     leveldb:win_logger.obj
 0002:0000de98       ??_C@_1DI@BIPBLKDN@?$AAl?$AAe?$AAv?$AAe?$AAl?$AAd?$AAb?$AA?9?$AA1?$AA?4?$AA2?$AA0?$AA?2?$AAt?$AAa?$AAb?$AAl?$AAe?$AA?2?$AAb?$AAl?$AAo?$AAc?$AAk?$AA?4?$AAc?$AAc?$AA?$AA@ 0000000180065e98     leveldb:block.obj
 0002:0000ded0       ??_C@_1CM@KILDAMOA@?$AAi?$AAn?$AAd?$AAe?$AAx?$AA?5?$AA?$DM?$AA?5?$AAn?$AAu?$AAm?$AA_?$AAr?$AAe?$AAs?$AAt?$AAa?$AAr?$AAt?$AAs?$AA_?$AA?$AA@ 0000000180065ed0     leveldb:block.obj
 0002:0000df00       ??_C@_0BD@CHEKDAPJ@bad?5entry?5in?5block?$AA@ 0000000180065f00     leveldb:block.obj
 0002:0000df18       ??_C@_1CE@HBCAJAAP@?$AAn?$AAu?$AAm?$AA_?$AAr?$AAe?$AAs?$AAt?$AAa?$AAr?$AAt?$AAs?$AA_?$AA?5?$AA?$DO?$AA?5?$AA0?$AA?$AA@ 0000000180065f18     leveldb:block.obj
 0002:0000df40       ??_C@_0BD@NJCNHDLE@bad?5block?5contents?$AA@ 0000000180065f40     leveldb:block.obj
 0002:0000df58       ??_7Iter@Block@leveldb@@6B@ 0000000180065f58     leveldb:block.obj
 0002:0000dfa8       ??_C@_1BG@GNOBELO@?$AAv?$AAa?$AAl?$AAu?$AAe?$AA?5?$AA?$DN?$AA?$DN?$AA?5?$AA1?$AA?$AA@ 0000000180065fa8     snappy:snappy.obj
 0002:0000dfc0       ??_C@_1NO@DHJGLJIB@?$AAc?$AA?3?$AA?2?$AAg?$AAi?$AAt?$AA?2?$AAa?$AAs?$AAl?$AA?2?$AAs?$AAd?$AAk?$AAs?$AA?2?$AAa?$AAc?$AAt?$AAi?$AAv?$AAe?$AAl?$AAe?$AAd?$AAg?$AAe?$AAr?$AAs?$AAd?$AAk?$AA_@ 0000000180065fc0     snappy:snappy.obj
 0002:0000e0a0       ??_C@_1BO@HOKEIBLG@?$AAs?$AA2?$AA_?$AAl?$AAi?$AAm?$AAi?$AAt?$AA?5?$AA?$DO?$AA?$DN?$AA?5?$AAs?$AA2?$AA?$AA@ 00000001800660a0     snappy:snappy.obj
 0002:0000e0c0       ??_C@_1NC@IDOHKFJO@?$AAc?$AA?3?$AA?2?$AAg?$AAi?$AAt?$AA?2?$AAa?$AAs?$AAl?$AA?2?$AAs?$AAd?$AAk?$AAs?$AA?2?$AAa?$AAc?$AAt?$AAi?$AAv?$AAe?$AAl?$AAe?$AAd?$AAg?$AAe?$AAr?$AAs?$AAd?$AAk?$AA_@ 00000001800660c0     snappy:snappy.obj
 0002:0000e198       ??_C@_1BC@BCGFIDBL@?$AAs?$AAr?$AAc?$AA?5?$AA?$DM?$AA?5?$AAo?$AAp?$AA?$AA@ 0000000180066198     snappy:snappy.obj
 0002:0000e1b0       ??_C@_1CO@NIFFADPE@?$AAs?$AAn?$AAa?$AAp?$AAp?$AAy?$AA?9?$AA1?$AA?4?$AA1?$AA?4?$AA4?$AA?2?$AAs?$AAn?$AAa?$AAp?$AAp?$AAy?$AA?4?$AAc?$AAc?$AA?$AA@ 00000001800661b0     snappy:snappy.obj
 0002:0000e1e0       ??_C@_1CM@BCIBAAPP@?$AAo?$AAp?$AA_?$AAl?$AAi?$AAm?$AAi?$AAt?$AA?5?$AA?$DM?$AA?$DN?$AA?5?$AAb?$AAu?$AAf?$AA_?$AAl?$AAi?$AAm?$AAi?$AAt?$AA?$AA@ 00000001800661e0     snappy:snappy.obj
 0002:0000e210       ??_C@_1BG@IHIONFJH@?$AAc?$AAo?$AAu?$AAn?$AAt?$AA?5?$AA?$DO?$AA?$DN?$AA?5?$AA1?$AA?$AA@ 0000000180066210     snappy:snappy.obj
 0002:0000e228       ??_C@_1BA@GMKHALLP@?$AAl?$AAe?$AAn?$AA?5?$AA?$DO?$AA?5?$AA0?$AA?$AA@ 0000000180066228     snappy:snappy.obj
 0002:0000e238       ??_C@_1BE@DLMJINK@?$AAl?$AAe?$AAn?$AA?5?$AA?$DM?$AA?$DN?$AA?5?$AA6?$AA4?$AA?$AA@ 0000000180066238     snappy:snappy.obj
 0002:0000e250       ??_C@_1BG@LEKFPFJI@?$AAc?$AAo?$AAu?$AAn?$AAt?$AA?5?$AA?$DM?$AA?$DN?$AA?5?$AA4?$AA?$AA@ 0000000180066250     snappy:snappy.obj
 0002:0000e268       ??_C@_1BO@PPEGDPPA@?$AAo?$AAf?$AAf?$AAs?$AAe?$AAt?$AA?5?$AA?$DM?$AA?5?$AA6?$AA5?$AA5?$AA3?$AA6?$AA?$AA@ 0000000180066268     snappy:snappy.obj
 0002:0000e288       ??_C@_1BC@GPKOEOMP@?$AAl?$AAe?$AAn?$AA?5?$AA?$DO?$AA?$DN?$AA?5?$AA4?$AA?$AA@ 0000000180066288     snappy:snappy.obj
 0002:0000e2a0       ??_C@_1DO@IILEOCEN@?$AAl?$AAe?$AAn?$AA_?$AAl?$AAe?$AAs?$AAs?$AA_?$AAt?$AAh?$AAa?$AAn?$AA_?$AA1?$AA2?$AA?5?$AA?$DN?$AA?$DN?$AA?5?$AA?$CI?$AAl?$AAe?$AAn?$AA?5?$AA?$DM?$AA?5?$AA1?$AA2?$AA?$CJ?$AA?$AA@ 00000001800662a0     snappy:snappy.obj
 0002:0000e2e0       ??_C@_1DC@OPGIIANN@?$AAi?$AAn?$AAp?$AAu?$AAt?$AA_?$AAs?$AAi?$AAz?$AAe?$AA?5?$AA?$DM?$AA?$DN?$AA?5?$AAk?$AAB?$AAl?$AAo?$AAc?$AAk?$AAS?$AAi?$AAz?$AAe?$AA?$AA@ 00000001800662e0     snappy:snappy.obj
 0002:0000e320       ??_C@_1HA@CGBFNEOD@?$AAs?$AAt?$AAa?$AAt?$AAi?$AAc?$AA_?$AAc?$AAa?$AAs?$AAt?$AA?$DM?$AAi?$AAn?$AAt?$AA?$DO?$AA?$CI?$AAk?$AAu?$AAi?$AAn?$AAt?$AA3?$AA2?$AAm?$AAa?$AAx?$AA?5?$AA?$DO?$AA?$DO?$AA?5?$AAs@ 0000000180066320     snappy:snappy.obj
 0002:0000e390       ??_C@_1EK@FEBNOKCP@?$AA?$CI?$AAt?$AAa?$AAb?$AAl?$AAe?$AA_?$AAs?$AAi?$AAz?$AAe?$AA?5?$AA?$CG?$AA?5?$AA?$CI?$AAt?$AAa?$AAb?$AAl?$AAe?$AA_?$AAs?$AAi?$AAz?$AAe?$AA?5?$AA?9?$AA?5?$AA1?$AA?$CJ?$AA?$CJ?$AA?5@ 0000000180066390     snappy:snappy.obj
 0002:0000e3e0       ??_C@_1DA@JPFPEEHF@?$AAh?$AAa?$AAs?$AAh?$AA?5?$AA?$DN?$AA?$DN?$AA?5?$AAH?$AAa?$AAs?$AAh?$AA?$CI?$AAi?$AAp?$AA?0?$AA?5?$AAs?$AAh?$AAi?$AAf?$AAt?$AA?$CJ?$AA?$AA@ 00000001800663e0     snappy:snappy.obj
 0002:0000e410       ??_C@_1BO@POBPHOCK@?$AAn?$AAe?$AAx?$AAt?$AA_?$AAe?$AAm?$AAi?$AAt?$AA?5?$AA?$DM?$AA?5?$AAi?$AAp?$AA?$AA@ 0000000180066410     snappy:snappy.obj
 0002:0000e430       ??_C@_1BO@NJGNGDBA@?$AAc?$AAa?$AAn?$AAd?$AAi?$AAd?$AAa?$AAt?$AAe?$AA?5?$AA?$DM?$AA?5?$AAi?$AAp?$AA?$AA@ 0000000180066430     snappy:snappy.obj
 0002:0000e450       ??_C@_1CK@LPFHJPBE@?$AAc?$AAa?$AAn?$AAd?$AAi?$AAd?$AAa?$AAt?$AAe?$AA?5?$AA?$DO?$AA?$DN?$AA?5?$AAb?$AAa?$AAs?$AAe?$AA_?$AAi?$AAp?$AA?$AA@ 0000000180066450     snappy:snappy.obj
 0002:0000e480       ??_C@_1EM@HJJPEPBA@?$AA0?$AA?5?$AA?$DN?$AA?$DN?$AA?5?$AAm?$AAe?$AAm?$AAc?$AAm?$AAp?$AA?$CI?$AAb?$AAa?$AAs?$AAe?$AA?0?$AA?5?$AAc?$AAa?$AAn?$AAd?$AAi?$AAd?$AAa?$AAt?$AAe?$AA?0?$AA?5?$AAm?$AAa?$AAt@ 0000000180066480     snappy:snappy.obj
 0002:0000e4d0       ??_C@_1DC@OIJJOGJB@?$AAn?$AAe?$AAx?$AAt?$AA_?$AAe?$AAm?$AAi?$AAt?$AA?5?$AA?$CL?$AA?5?$AA1?$AA6?$AA?5?$AA?$DM?$AA?$DN?$AA?5?$AAi?$AAp?$AA_?$AAe?$AAn?$AAd?$AA?$AA@ 00000001800664d0     snappy:snappy.obj
 0002:0000e508       ??_C@_1BO@NMEHIMPL@?$AAi?$AAp?$AA?5?$AA?$DM?$AA?5?$AAi?$AAp?$AA_?$AAl?$AAi?$AAm?$AAi?$AAt?$AA_?$AA?$AA@ 0000000180066508     snappy:snappy.obj
 0002:0000e528       ??_C@_1BI@HPFPGA@?$AAi?$AAp?$AA_?$AA?5?$AA?$DN?$AA?$DN?$AA?5?$AAN?$AAU?$AAL?$AAL?$AA?$AA@ 0000000180066528     snappy:snappy.obj
 0002:0000e540       ??_C@_1BO@IALOIOFH@?$AAn?$AAb?$AAu?$AAf?$AA?5?$AA?$DN?$AA?$DN?$AA?5?$AAn?$AAe?$AAe?$AAd?$AAe?$AAd?$AA?$AA@ 0000000180066540     snappy:snappy.obj
 0002:0000e560       ??_C@_1DG@CJMIIFFC@?$AAn?$AAe?$AAe?$AAd?$AAe?$AAd?$AA?5?$AA?$DM?$AA?$DN?$AA?5?$AAs?$AAi?$AAz?$AAe?$AAo?$AAf?$AA?$CI?$AAs?$AAc?$AAr?$AAa?$AAt?$AAc?$AAh?$AA_?$AA?$CJ?$AA?$AA@ 0000000180066560     snappy:snappy.obj
 0002:0000e598       ??_C@_1DE@GIPLEENC@?$AAb?$AAy?$AAt?$AAe?$AAs?$AA_?$AAr?$AAe?$AAa?$AAd?$AA?5?$AA?$DN?$AA?$DN?$AA?5?$AAn?$AAu?$AAm?$AA_?$AAt?$AAo?$AA_?$AAr?$AAe?$AAa?$AAd?$AA?$AA@ 0000000180066598     snappy:snappy.obj
 0002:0000e5d0       ??_C@_1CG@MOFADOEH@?$AAf?$AAr?$AAa?$AAg?$AAm?$AAe?$AAn?$AAt?$AA_?$AAs?$AAi?$AAz?$AAe?$AA?5?$AA?$CB?$AA?$DN?$AA?5?$AA0?$AA?$AA@ 00000001800665d0     snappy:snappy.obj
 0002:0000e5f8       ??_C@_1BK@NIHCJJIO@?$AAo?$AAp?$AA_?$AA?5?$AA?$DO?$AA?$DN?$AA?5?$AAb?$AAa?$AAs?$AAe?$AA_?$AA?$AA@ 00000001800665f8     snappy:snappy.obj
 0002:0000e618       ??_C@_1CI@LJPILCOO@?$AAl?$AAi?$AAt?$AAe?$AAr?$AAa?$AAl?$AA_?$AAl?$AAe?$AAn?$AAg?$AAt?$AAh?$AA?5?$AA?$DM?$AA?5?$AA6?$AA1?$AA?$AA@ 0000000180066618     snappy:snappy.obj
 0002:0000e640       ??_7UncheckedByteArraySink@snappy@@6B@ 0000000180066640     snappy:snappy.obj
 0002:0000e668       ??_7Sink@snappy@@6B@       0000000180066668     snappy:snappy.obj
 0002:0000e690       ??_7ByteArraySource@snappy@@6B@ 0000000180066690     snappy:snappy.obj
 0002:0000e9d0       __real@3eb0000000000000    00000001800669d0     leveldb:db_impl.obj
 0002:0000e9d8       __real@3fd0000000000000    00000001800669d8     leveldb:version_set.obj
 0002:0000e9e0       __real@3ff0000000000000    00000001800669e0     leveldb:db_impl.obj
 0002:0000e9e8       __real@401b999999999999    00000001800669e8     leveldb:bloom.obj
 0002:0000e9f0       __real@4024000000000000    00000001800669f0     leveldb:version_set.obj
 0002:0000e9f8       __real@412e848000000000    00000001800669f8     leveldb:db_impl.obj
 0002:0000ea00       __real@4164000000000000    0000000180066a00     leveldb:version_set.obj
 0002:0000ea08       __real@43e0000000000000    0000000180066a08     leveldb:bloom.obj
 0002:0000ea10       __real@43f0000000000000    0000000180066a10     leveldb:version_set.obj
 0002:0000ea18       __real@bff0000000000000    0000000180066a18     leveldb:version_set.obj
 0002:00012878       _pDestructExceptionObject  000000018006a878     libvcruntime:frame.obj
 0002:00012888       ??_7bad_exception@std@@6B@ 000000018006a888     libvcruntime:frame.obj
 0002:00012898       ??_C@_0O@DPKOEFFH@bad?5exception?$AA@ 000000018006a898     libvcruntime:frame.obj
 0002:00012920       _tls_used                  000000018006a920     LIBCMT:tlssup.obj
 0002:00012948       ??_R4exception@std@@6B@    000000018006a948     libcpmt:xthrow.obj
 0002:00012970       ??_R3exception@std@@8      000000018006a970     libcpmt:xthrow.obj
 0002:00012988       ??_R2exception@std@@8      000000018006a988     libcpmt:xthrow.obj
 0002:00012998       ??_R1A@?0A@EA@exception@std@@8 000000018006a998     libcpmt:xthrow.obj
 0002:000129c0       ??_R4bad_alloc@std@@6B@    000000018006a9c0     libcpmt:xthrow.obj
 0002:000129e8       ??_R3bad_alloc@std@@8      000000018006a9e8     libcpmt:xthrow.obj
 0002:00012a00       ??_R2bad_alloc@std@@8      000000018006aa00     libcpmt:xthrow.obj
 0002:00012a18       ??_R1A@?0A@EA@bad_alloc@std@@8 000000018006aa18     libcpmt:xthrow.obj
 0002:00012a40       ??_R4logic_error@std@@6B@  000000018006aa40     libcpmt:xthrow.obj
 0002:00012a68       ??_R3logic_error@std@@8    000000018006aa68     libcpmt:xthrow.obj
 0002:00012a80       ??_R2logic_error@std@@8    000000018006aa80     libcpmt:xthrow.obj
 0002:00012a98       ??_R1A@?0A@EA@logic_error@std@@8 000000018006aa98     libcpmt:xthrow.obj
 0002:00012ac0       ??_R4length_error@std@@6B@ 000000018006aac0     libcpmt:xthrow.obj
 0002:00012ae8       ??_R3length_error@std@@8   000000018006aae8     libcpmt:xthrow.obj
 0002:00012b00       ??_R2length_error@std@@8   000000018006ab00     libcpmt:xthrow.obj
 0002:00012b20       ??_R1A@?0A@EA@length_error@std@@8 000000018006ab20     libcpmt:xthrow.obj
 0002:00012b48       ??_R4out_of_range@std@@6B@ 000000018006ab48     libcpmt:xthrow.obj
 0002:00012b70       ??_R3out_of_range@std@@8   000000018006ab70     libcpmt:xthrow.obj
 0002:00012b88       ??_R2out_of_range@std@@8   000000018006ab88     libcpmt:xthrow.obj
 0002:00012ba8       ??_R1A@?0A@EA@out_of_range@std@@8 000000018006aba8     libcpmt:xthrow.obj
 0002:00012bd0       ??_R4type_info@@6B@        000000018006abd0     LIBCMT:std_type_info_static.obj
 0002:00012bf8       ??_R3type_info@@8          000000018006abf8     LIBCMT:std_type_info_static.obj
 0002:00012c10       ??_R2type_info@@8          000000018006ac10     LIBCMT:std_type_info_static.obj
 0002:00012c20       ??_R1A@?0A@EA@type_info@@8 000000018006ac20     LIBCMT:std_type_info_static.obj
 0002:00012c48       ??_R4bad_array_new_length@std@@6B@ 000000018006ac48     LIBCMT:throw_bad_alloc.obj
 0002:00012c70       ??_R3bad_array_new_length@std@@8 000000018006ac70     LIBCMT:throw_bad_alloc.obj
 0002:00012c88       ??_R2bad_array_new_length@std@@8 000000018006ac88     LIBCMT:throw_bad_alloc.obj
 0002:00012ca8       ??_R1A@?0A@EA@bad_array_new_length@std@@8 000000018006aca8     LIBCMT:throw_bad_alloc.obj
 0002:00012cd0       ??_R4bad_exception@std@@6B@ 000000018006acd0     libvcruntime:frame.obj
 0002:00012cf8       ??_R3bad_exception@std@@8  000000018006acf8     libvcruntime:frame.obj
 0002:00012d10       ??_R2bad_exception@std@@8  000000018006ad10     libvcruntime:frame.obj
 0002:00012d28       ??_R1A@?0A@EA@bad_exception@std@@8 000000018006ad28     libvcruntime:frame.obj
 0002:000131d8       __rtc_iaa                  000000018006b1d8     LIBCMT:_initsect_.obj
 0002:000131e0       __rtc_izz                  000000018006b1e0     LIBCMT:_initsect_.obj
 0002:000131e8       __rtc_taa                  000000018006b1e8     LIBCMT:_initsect_.obj
 0002:000131f0       __rtc_tzz                  000000018006b1f0     LIBCMT:_initsect_.obj
 0002:0001f660       _TI2?AVbad_alloc@std@@     0000000180077660     libcpmt:xthrow.obj
 0002:0001f680       _CTA2?AVbad_alloc@std@@    0000000180077680     libcpmt:xthrow.obj
 0002:0001f698       _CT??_R0?AVbad_alloc@std@@@8??0bad_alloc@std@@QEAA@AEBV01@@Z24 0000000180077698     libcpmt:xthrow.obj
 0002:0001f6c0       _CT??_R0?AVexception@std@@@8??0exception@std@@QEAA@AEBV01@@Z24 00000001800776c0     libcpmt:xthrow.obj
 0002:0001f6e8       _CT??_R0?AVlogic_error@std@@@8??0logic_error@std@@QEAA@AEBV01@@Z24 00000001800776e8     libcpmt:xthrow.obj
 0002:0001f710       _TI3?AVlength_error@std@@  0000000180077710     libcpmt:xthrow.obj
 0002:0001f730       _CTA3?AVlength_error@std@@ 0000000180077730     libcpmt:xthrow.obj
 0002:0001f750       _CT??_R0?AVlength_error@std@@@8??0length_error@std@@QEAA@AEBV01@@Z24 0000000180077750     libcpmt:xthrow.obj
 0002:0001f778       _TI3?AVout_of_range@std@@  0000000180077778     libcpmt:xthrow.obj
 0002:0001f798       _CTA3?AVout_of_range@std@@ 0000000180077798     libcpmt:xthrow.obj
 0002:0001f7b8       _CT??_R0?AVout_of_range@std@@@8??0out_of_range@std@@QEAA@AEBV01@@Z24 00000001800777b8     libcpmt:xthrow.obj
 0002:0001f7e0       _TI3?AVbad_array_new_length@std@@ 00000001800777e0     LIBCMT:throw_bad_alloc.obj
 0002:0001f800       _CTA3?AVbad_array_new_length@std@@ 0000000180077800     LIBCMT:throw_bad_alloc.obj
 0002:0001f820       _CT??_R0?AVbad_array_new_length@std@@@8??0bad_array_new_length@std@@QEAA@AEBV01@@Z24 0000000180077820     LIBCMT:throw_bad_alloc.obj
 0002:0001f848       _TI2?AVbad_exception@std@@ 0000000180077848     libvcruntime:frame.obj
 0002:0001f868       _CTA2?AVbad_exception@std@@ 0000000180077868     libvcruntime:frame.obj
 0002:0001f880       _CT??_R0?AVbad_exception@std@@@8??0bad_exception@std@@QEAA@AEBV01@@Z24 0000000180077880     libvcruntime:frame.obj
 0002:0001f8a4       __DELAY_IMPORT_DESCRIPTOR_node_exe 00000001800778a4     node:node.exe
 0002:0001f8c4       __NULL_DELAY_IMPORT_DESCRIPTOR 00000001800778c4     node:node.exe
 0002:0001fb78       \177node_NULL_THUNK_DATA_DLN 0000000180077b78     node:node.exe
 0002:00020d58       \177node_NULL_THUNK_DATA_DLB 0000000180078d58     node:node.exe
 0002:00021048       __IMPORT_DESCRIPTOR_KERNEL32 0000000180079048     kernel32:KERNEL32.dll
 0002:0002105c       __NULL_IMPORT_DESCRIPTOR   000000018007905c     kernel32:KERNEL32.dll
 0003:00000000       __scrt_native_dllmain_reason 000000018007a000     LIBCMT:utility.obj
 0003:00000004       _Init_global_epoch         000000018007a004     LIBCMT:thread_safe_statics.obj
 0003:00000008       __security_cookie          000000018007a008     LIBCMT:gs_cookie.obj
 0003:00000010       __security_cookie_complement 000000018007a010     LIBCMT:gs_cookie.obj
 0003:00000018       __isa_available            000000018007a018     LIBCMT:_cpu_disp_.obj
 0003:0000001c       __isa_enabled              000000018007a01c     LIBCMT:_cpu_disp_.obj
 0003:00000020       __memcpy_nt_iters          000000018007a020     LIBCMT:_cpu_disp_.obj
 0003:00000040       __abort_behavior           000000018007a040     libucrt:abort.obj
 0003:00000050       _iob                       000000018007a050     libucrt:_file.obj
 0003:00000170       __acrt_initial_locale_data 000000018007a170     libucrt:nlsdata.obj
 0003:000002c8       __acrt_initial_locale_pointers 000000018007a2c8     libucrt:nlsdata.obj
 0003:000002d8       __acrt_wide_c_locale_string 000000018007a2d8     libucrt:nlsdata.obj
 0003:000002e0       __badioinfo                000000018007a2e0     libucrt:ioinit.obj
 0003:00000320       __acrt_initial_multibyte_data 000000018007a320     libucrt:mbctype.obj
 0003:00000548       __acrt_current_multibyte_data 000000018007a548     libucrt:mbctype.obj
 0003:00000650       _mbctype                   000000018007a650     libucrt:mbctype.obj
 0003:00000760       _mbcasemap                 000000018007a760     libucrt:mbctype.obj
 0003:00000860       _pwctype                   000000018007a860     libucrt:ctype.obj
 0003:00000868       __globallocalestatus       000000018007a868     libucrt:glstatus.obj
 0003:00000870       __acrt_lconv_c             000000018007a870     libucrt:localeconv.obj
 0003:00000908       __acrt_lconv_static_decimal 000000018007a908     libucrt:localeconv.obj
 0003:0000090c       __acrt_lconv_static_W_decimal 000000018007a90c     libucrt:localeconv.obj
 0003:00000910       _lookuptrailbytes          000000018007a910     libucrt:read.obj
 0003:00000a10       __dcrt_lowio_console_output_handle 000000018007aa10     libucrt:initcon.obj
 0003:00000a30       _fltused                   000000018007aa30     LIBCMT:fltused.obj
 0003:00000a80       ??_R0?AVbad_alloc@std@@@8  000000018007aa80     libcpmt:xthrow.obj
 0003:00000aa8       ??_R0?AVexception@std@@@8  000000018007aaa8     libcpmt:xthrow.obj
 0003:00000ad0       ??_R0?AVlogic_error@std@@@8 000000018007aad0     libcpmt:xthrow.obj
 0003:00000af8       ??_R0?AVlength_error@std@@@8 000000018007aaf8     libcpmt:xthrow.obj
 0003:00000b20       ??_R0?AVout_of_range@std@@@8 000000018007ab20     libcpmt:xthrow.obj
 0003:00000b48       ??_R0?AVtype_info@@@8      000000018007ab48     LIBCMT:std_type_info_static.obj
 0003:00000b68       ??_R0?AVbad_array_new_length@std@@@8 000000018007ab68     LIBCMT:throw_bad_alloc.obj
 0003:00000b98       ??_R0?AVbad_exception@std@@@8 000000018007ab98     libvcruntime:frame.obj
 0003:00000bc0       __imp_uv_queue_work        000000018007abc0     node:node.exe
 0003:00000bc8       __imp_?Global@Context@v8@@QEAA?AV?$Local@VObject@v8@@@2@XZ 000000018007abc8     node:node.exe
 0003:00000bd0       __imp_?Value@External@v8@@QEBAPEAXXZ 000000018007abd0     node:node.exe
 0003:00000bd8       __imp_?New@External@v8@@SA?AV?$Local@VExternal@v8@@@2@PEAVIsolate@2@PEAX@Z 000000018007abd8     node:node.exe
 0003:00000be0       __imp_?New@Signature@v8@@SA?AV?$Local@VSignature@v8@@@2@PEAVIsolate@2@V?$Local@VFunctionTemplate@v8@@@2@@Z 000000018007abe0     node:node.exe
 0003:00000be8       __imp_?ThrowException@Isolate@v8@@QEAA?AV?$Local@VValue@v8@@@2@V32@@Z 000000018007abe8     node:node.exe
 0003:00000bf0       __imp_?GetCurrentContext@Isolate@v8@@QEAA?AV?$Local@VContext@v8@@@2@XZ 000000018007abf0     node:node.exe
 0003:00000bf8       __imp_?GetCurrent@Isolate@v8@@SAPEAV12@XZ 000000018007abf8     node:node.exe
 0003:00000c00       __imp_?CreateHandle@HandleScope@v8@@KAPEAPEAVObject@internal@2@PEAVIsolate@42@PEAV342@@Z 000000018007ac00     node:node.exe
 0003:00000c08       __imp_?CreateHandle@HandleScope@v8@@CAPEAPEAVObject@internal@2@PEAVHeapObject@42@PEAV342@@Z 000000018007ac08     node:node.exe
 0003:00000c10       __imp_??1HandleScope@v8@@QEAA@XZ 000000018007ac10     node:node.exe
 0003:00000c18       __imp_??0HandleScope@v8@@QEAA@PEAVIsolate@1@@Z 000000018007ac18     node:node.exe
 0003:00000c20       __imp_?Set@Template@v8@@QEAAXV?$Local@VName@v8@@@2@V?$Local@VData@v8@@@2@W4PropertyAttribute@2@@Z 000000018007ac20     node:node.exe
 0003:00000c28       __imp_?Error@Exception@v8@@SA?AV?$Local@VValue@v8@@@2@V?$Local@VString@v8@@@2@@Z 000000018007ac28     node:node.exe
 0003:00000c30       __imp_?SetClassName@FunctionTemplate@v8@@QEAAXV?$Local@VString@v8@@@2@@Z 000000018007ac30     node:node.exe
 0003:00000c38       __imp_?PrototypeTemplate@FunctionTemplate@v8@@QEAA?AV?$Local@VObjectTemplate@v8@@@2@XZ 000000018007ac38     node:node.exe
 0003:00000c40       __imp_?InstanceTemplate@FunctionTemplate@v8@@QEAA?AV?$Local@VObjectTemplate@v8@@@2@XZ 000000018007ac40     node:node.exe
 0003:00000c48       __imp_?GetFunction@FunctionTemplate@v8@@QEAA?AV?$Local@VFunction@v8@@@2@XZ 000000018007ac48     node:node.exe
 0003:00000c50       __imp_?New@FunctionTemplate@v8@@SA?AV?$Local@VFunctionTemplate@v8@@@2@PEAVIsolate@2@P6AXAEBV?$FunctionCallbackInfo@VValue@v8@@@2@@ZV?$Local@VValue@v8@@@2@V?$Local@VSignature@v8@@@2@HW4ConstructorBehavior@2@W4SideEffectType@2@@Z 000000018007ac50     node:node.exe
 0003:00000c58       __imp_?ToLocalEmpty@V8@v8@@CAXXZ 000000018007ac58     node:node.exe
 0003:00000c60       __imp_?ClearWeak@V8@v8@@CAPEAXPEAPEAVObject@internal@2@@Z 000000018007ac60     node:node.exe
 0003:00000c68       __imp_?MakeWeak@V8@v8@@CAXPEAPEAVObject@internal@2@PEAXP6AXAEBV?$WeakCallbackInfo@X@2@@ZW4WeakCallbackType@2@@Z 000000018007ac68     node:node.exe
 0003:00000c70       __imp_?DisposeGlobal@V8@v8@@CAXPEAPEAVObject@internal@2@@Z 000000018007ac70     node:node.exe
 0003:00000c78       __imp_?GlobalizeReference@V8@v8@@CAPEAPEAVObject@internal@2@PEAVIsolate@42@PEAPEAV342@@Z 000000018007ac78     node:node.exe
 0003:00000c80       __imp_?BooleanValue@Value@v8@@QEBA_NXZ 000000018007ac80     node:node.exe
 0003:00000c88       __imp_?IsObject@Value@v8@@QEBA_NXZ 000000018007ac88     node:node.exe
 0003:00000c90       __imp_?Escape@EscapableHandleScope@v8@@AEAAPEAPEAVObject@internal@2@PEAPEAV342@@Z 000000018007ac90     node:node.exe
 0003:00000c98       __imp_??0EscapableHandleScope@v8@@QEAA@PEAVIsolate@1@@Z 000000018007ac98     node:node.exe
 0003:00000ca0       __imp_?NewFromUtf8@String@v8@@SA?AV?$MaybeLocal@VString@v8@@@2@PEAVIsolate@2@PEBDW4NewStringType@2@H@Z 000000018007aca0     node:node.exe
 0003:00000ca8       __imp_?WriteUtf8@String@v8@@QEBAHPEADHPEAHH@Z 000000018007aca8     node:node.exe
 0003:00000cb0       __imp_?Utf8Length@String@v8@@QEBAHXZ 000000018007acb0     node:node.exe
 0003:00000cb8       __imp_?SlowGetAlignedPointerFromInternalField@Object@v8@@AEAAPEAXH@Z 000000018007acb8     node:node.exe
 0003:00000cc0       __imp_?SlowGetInternalField@Object@v8@@AEAA?AV?$Local@VValue@v8@@@2@H@Z 000000018007acc0     node:node.exe
 0003:00000cc8       __imp_?SetAlignedPointerInInternalField@Object@v8@@QEAAXHPEAX@Z 000000018007acc8     node:node.exe
 0003:00000cd0       __imp_?SetInternalField@Object@v8@@QEAAXHV?$Local@VValue@v8@@@2@@Z 000000018007acd0     node:node.exe
 0003:00000cd8       __imp_?InternalFieldCount@Object@v8@@QEAAHXZ 000000018007acd8     node:node.exe
 0003:00000ce0       __imp_?Has@Object@v8@@QEAA_NV?$Local@VValue@v8@@@2@@Z 000000018007ace0     node:node.exe
 0003:00000ce8       __imp_?Get@Object@v8@@QEAA?AV?$Local@VValue@v8@@@2@V32@@Z 000000018007ace8     node:node.exe
 0003:00000cf0       __imp_?Set@Object@v8@@QEAA_NV?$Local@VValue@v8@@@2@0@Z 000000018007acf0     node:node.exe
 0003:00000cf8       __imp_?NewInstance@Function@v8@@QEBA?AV?$MaybeLocal@VObject@v8@@@2@V?$Local@VContext@v8@@@2@HQEAV?$Local@VValue@v8@@@2@@Z 000000018007acf8     node:node.exe
 0003:00000d00       __imp_?SetInternalFieldCount@ObjectTemplate@v8@@QEAAXH@Z 000000018007ad00     node:node.exe
 0003:00000d08       __imp_?NewInstance@ObjectTemplate@v8@@QEAA?AV?$MaybeLocal@VObject@v8@@@2@V?$Local@VContext@v8@@@2@@Z 000000018007ad08     node:node.exe
 0003:00000d10       __imp_?New@ObjectTemplate@v8@@SA?AV?$Local@VObjectTemplate@v8@@@2@PEAVIsolate@2@V?$Local@VFunctionTemplate@v8@@@2@@Z 000000018007ad10     node:node.exe
 0003:00000d18       __imp_?HasInstance@Buffer@node@@YA_NV?$Local@VValue@v8@@@v8@@@Z 000000018007ad18     node:node.exe
 0003:00000d20       __imp_?HasInstance@Buffer@node@@YA_NV?$Local@VObject@v8@@@v8@@@Z 000000018007ad20     node:node.exe
 0003:00000d28       __imp_?Data@Buffer@node@@YAPEADV?$Local@VObject@v8@@@v8@@@Z 000000018007ad28     node:node.exe
 0003:00000d30       __imp_?Length@Buffer@node@@YA_KV?$Local@VObject@v8@@@v8@@@Z 000000018007ad30     node:node.exe
 0003:00000d38       __imp_?MakeCallback@node@@YA?AV?$Local@VValue@v8@@@v8@@PEAVIsolate@3@V?$Local@VObject@v8@@@3@V?$Local@VFunction@v8@@@3@HPEAV23@@Z 000000018007ad38     node:node.exe
 0003:00000d40       __imp_uv_default_loop      000000018007ad40     node:node.exe
 0003:00000d48       __imp_?ToObject@Value@v8@@QEBA?AV?$Local@VObject@v8@@@2@XZ 000000018007ad48     node:node.exe
 0003:00000d50       __imp_?ToString@Value@v8@@QEBA?AV?$Local@VString@v8@@@2@XZ 000000018007ad50     node:node.exe
 0003:00000d58       __imp_??1EscapableHandleScope@v8@@QEAA@XZ 000000018007ad58     node:node.exe
 0003:00000d60       __imp_?New@Object@v8@@SA?AV?$Local@VObject@v8@@@2@PEAVIsolate@2@@Z 000000018007ad60     node:node.exe
 0003:00000d68       __imp_?Length@Array@v8@@QEBAIXZ 000000018007ad68     node:node.exe
 0003:00000d70       __imp_?StrictEquals@Value@v8@@QEBA_NV?$Local@VValue@v8@@@2@@Z 000000018007ad70     node:node.exe
 0003:00000d78       __imp_?Uint32Value@Value@v8@@QEBAIXZ 000000018007ad78     node:node.exe
 0003:00000d80       __imp_?IsNumber@Value@v8@@QEBA_NXZ 000000018007ad80     node:node.exe
 0003:00000d88       __imp_?IsArray@Value@v8@@QEBA_NXZ 000000018007ad88     node:node.exe
 0003:00000d90       __imp_?IsFunction@Value@v8@@QEBA_NXZ 000000018007ad90     node:node.exe
 0003:00000d98       __imp_?HasCaught@TryCatch@v8@@QEBA_NXZ 000000018007ad98     node:node.exe
 0003:00000da0       __imp_??1TryCatch@v8@@QEAA@XZ 000000018007ada0     node:node.exe
 0003:00000da8       __imp_??0TryCatch@v8@@QEAA@PEAVIsolate@1@@Z 000000018007ada8     node:node.exe
 0003:00000db0       __imp_?Length@String@v8@@QEBAHXZ 000000018007adb0     node:node.exe
 0003:00000db8       __imp_?New@Number@v8@@SA?AV?$Local@VNumber@v8@@@2@PEAVIsolate@2@N@Z 000000018007adb8     node:node.exe
 0003:00000dc0       __imp_?Get@Object@v8@@QEAA?AV?$Local@VValue@v8@@@2@I@Z 000000018007adc0     node:node.exe
 0003:00000dc8       __imp_?Copy@Buffer@node@@YA?AV?$MaybeLocal@VObject@v8@@@v8@@PEAVIsolate@4@PEBD_K@Z 000000018007adc8     node:node.exe
 0003:00000dd0       __imp_?Value@Integer@v8@@QEBA_JXZ 000000018007add0     node:node.exe
 0003:00000dd8       __imp_?Int32Value@Value@v8@@QEBAHXZ 000000018007add8     node:node.exe
 0003:00000de0       __imp_?New@Integer@v8@@SA?AV?$Local@VInteger@v8@@@2@PEAVIsolate@2@H@Z 000000018007ade0     node:node.exe
 0003:00000de8       __imp_?New@Array@v8@@SA?AV?$Local@VArray@v8@@@2@PEAVIsolate@2@H@Z 000000018007ade8     node:node.exe
 0003:00000df0       __imp_?ToInteger@Value@v8@@QEBA?AV?$MaybeLocal@VInteger@v8@@@2@V?$Local@VContext@v8@@@2@@Z 000000018007adf0     node:node.exe
 0003:00000df8       __imp_node_module_register 000000018007adf8     node:node.exe
 0003:00000e00       __imp_uv_cond_signal       000000018007ae00     node:node.exe
 0003:00000e08       __imp_uv_cond_destroy      000000018007ae08     node:node.exe
 0003:00000e10       __imp_uv_mutex_unlock      000000018007ae10     node:node.exe
 0003:00000e18       __imp_uv_cond_init         000000018007ae18     node:node.exe
 0003:00000e20       __imp_uv_once              000000018007ae20     node:node.exe
 0003:00000e28       __imp_uv_mutex_lock        000000018007ae28     node:node.exe
 0003:00000e30       __imp_uv_cond_wait         000000018007ae30     node:node.exe
 0003:00000e38       __imp_uv_mutex_destroy     000000018007ae38     node:node.exe
 0003:00000e40       __imp_uv_cond_broadcast    000000018007ae40     node:node.exe
 0003:00000e48       __imp_uv_mutex_init        000000018007ae48     node:node.exe
 0003:00000e50       \177node_NULL_THUNK_DATA_DLA 000000018007ae50     node:node.exe
 0003:00000e60       __hmod__node_exe           000000018007ae60     node:node.exe
 0003:00000e68       __scrt_current_native_startup_state 000000018007ae68     LIBCMT:utility.obj
 0003:00000e70       __scrt_native_startup_lock 000000018007ae70     LIBCMT:utility.obj
 0003:00001470       __favor                    000000018007b470     LIBCMT:_cpu_disp_.obj
 0003:00001474       __scrt_debugger_hook_flag  000000018007b474     LIBCMT:utility_desktop.obj
 0003:00001480       ?__type_info_root_node@@3U__type_info_node@@A 000000018007b480     LIBCMT:tncleanup.obj
 0003:00001490       ?_OptionsStorage@?1??__local_stdio_scanf_options@@9@4_KA 000000018007b490     LIBCMT:default_local_stdio_options.obj
 0003:00001498       _tls_index                 000000018007b498     LIBCMT:tlssup.obj
 0003:00001508       __pPurecall                000000018007b508     libvcruntime:purevirt_data.obj
 0003:000015b8       ?pArgList@UnDecorator@@0PEAVReplicator@@EA 000000018007b5b8     libvcruntime:undname.obj
 0003:000015c0       ?pZNameList@UnDecorator@@0PEAVReplicator@@EA 000000018007b5c0     libvcruntime:undname.obj
 0003:000015c8       ?pTemplateArgList@UnDecorator@@0PEAVReplicator@@EA 000000018007b5c8     libvcruntime:undname.obj
 0003:000015d0       ?gName@UnDecorator@@0PEBDEB 000000018007b5d0     libvcruntime:undname.obj
 0003:000015d8       ?name@UnDecorator@@0PEBDEB 000000018007b5d8     libvcruntime:undname.obj
 0003:000015e0       ?outputString@UnDecorator@@0PEADEA 000000018007b5e0     libvcruntime:undname.obj
 0003:000015e8       ?maxStringLength@UnDecorator@@0HA 000000018007b5e8     libvcruntime:undname.obj
 0003:000015ec       ?disableFlags@UnDecorator@@0KA 000000018007b5ec     libvcruntime:undname.obj
 0003:000015f0       ?fExplicitTemplateParams@UnDecorator@@0_NA 000000018007b5f0     libvcruntime:undname.obj
 0003:000015f1       ?fGetTemplateArgumentList@UnDecorator@@0_NA 000000018007b5f1     libvcruntime:undname.obj
 0003:000015f8       ?m_pGetParameter@UnDecorator@@0P6APEADJ@ZEA 000000018007b5f8     libvcruntime:undname.obj
 0003:00001630       _nstream                   000000018007b630     libucrt:_file.obj
 0003:00001638       __piob                     000000018007b638     libucrt:_file.obj
 0003:00001640       _cflush                    000000018007b640     libucrt:_file.obj
 0003:00001778       _environ_table             000000018007b778     libucrt:environment_initialization.obj
 0003:00001780       _wenviron_table            000000018007b780     libucrt:environment_initialization.obj
 0003:00001788       __dcrt_initial_wide_environment 000000018007b788     libucrt:environment_initialization.obj
 0003:00001790       __dcrt_initial_narrow_environment 000000018007b790     libucrt:environment_initialization.obj
 0003:00001798       __acrt_atexit_table        000000018007b798     libucrt:onexit.obj
 0003:000017b0       __acrt_at_quick_exit_table 000000018007b7b0     libucrt:onexit.obj
 0003:000017f0       __acrt_locale_changed_data 000000018007b7f0     libucrt:wsetlocale.obj
 0003:000017f8       __acrt_current_locale_data 000000018007b7f8     libucrt:nlsdata.obj
 0003:00001808       __acrt_stdout_buffer       000000018007b808     libucrt:_sftbuf.obj
 0003:00001810       __acrt_stderr_buffer       000000018007b810     libucrt:_sftbuf.obj
 0003:00001820       __pioinfo                  000000018007b820     libucrt:ioinit.obj
 0003:00001c20       _nhandle                   000000018007bc20     libucrt:ioinit.obj
 0003:00001fec       __mbcodepage               000000018007bfec     libucrt:mbctype.obj
 0003:00001ff0       __ismbcodepage             000000018007bff0     libucrt:mbctype.obj
 0003:00001ff8       __mbulinfo                 000000018007bff8     libucrt:mbctype.obj
 0003:00002008       __mblocalename             000000018007c008     libucrt:mbctype.obj
 0003:00002014       __argc                     000000018007c014     libucrt:argv_data.obj
 0003:00002018       __argv                     000000018007c018     libucrt:argv_data.obj
 0003:00002020       __wargv                    000000018007c020     libucrt:argv_data.obj
 0003:00002028       _acmdln                    000000018007c028     libucrt:argv_data.obj
 0003:00002030       _wcmdln                    000000018007c030     libucrt:argv_data.obj
 0003:00002038       _pgmptr                    000000018007c038     libucrt:argv_data.obj
 0003:00002040       __acrt_heap                000000018007c040     libucrt:heap_handle.obj
 0003:00002054       __acrt_lconv_static_null   000000018007c054     libucrt:localeconv.obj
 0003:00002058       __acrt_lconv_static_W_null 000000018007c058     libucrt:localeconv.obj
 0003:0000205c       _commode                   000000018007c05c     libucrt:ncommode.obj
 0003:00002060       _umaskval                  000000018007c060     libucrt:umask.obj
 0003:00002064       __fma3_is_available        000000018007c064     libucrt:fma3_available.obj
 0003:00002068       __use_fma3_lib             000000018007c068     libucrt:fma3_available.obj
 0003:0000206c       _fmode                     000000018007c06c     libucrt:txtmode.obj
 0003:00002070       ?DloadKernel32@@3PEAUHINSTANCE__@@EA 000000018007c070     DelayImp:delayhlp.obj
 0003:00002078       ?DloadAcquireSRWLockExclusive@@3P6AXPEA_K@ZEA 000000018007c078     DelayImp:delayhlp.obj
 0003:00002080       ?DloadReleaseSRWLockExclusive@@3P6AXPEA_K@ZEA 000000018007c080     DelayImp:delayhlp.obj
 0003:00002088       ?DloadSrwLock@@3_KA        000000018007c088     DelayImp:delayhlp.obj
 0003:00002090       ?DloadSectionLockCount@@3KA 000000018007c090     DelayImp:delayhlp.obj
 0003:00002094       ?DloadSectionOldProtection@@3KA 000000018007c094     DelayImp:delayhlp.obj
 0003:00002098       ?DloadSectionCommitPermanent@@3KA 000000018007c098     DelayImp:delayhlp.obj
 0003:000020a0       ?_OptionsStorage@?1??__local_stdio_printf_options@@9@4_KA 000000018007c0a0     leveldb:status.obj
 0003:00002110       ?g_OutOfMemoryExceptionCallback@@3P6APEAXXZEA 000000018007c110     libvcruntime:frame.obj
 0003:00002118       __dyn_tls_init_callback    000000018007c118     <common>
 0003:00002120       __scrt_ucrt_dll_is_in_use  000000018007c120     <common>
 0006:00000000       _tls_start                 0000000180083000     LIBCMT:tlssup.obj
 0006:00000004       _Init_thread_epoch         0000000180083004     LIBCMT:thread_safe_statics.obj
 0006:00000008       _tls_end                   0000000180083008     LIBCMT:tlssup.obj

 entry point at        0001:00037820

 Static symbols

 0000:fff7a000       .debug$S                   0000000180000000     kernel32:KERNEL32.dll
 0000:fff7a000       .debug$S                   0000000180000000     kernel32:KERNEL32.dll
 0000:fff7a000       .debug$S                   0000000180000000     kernel32:KERNEL32.dll
 0000:fff7a000       .debug$S                   0000000180000000     kernel32:KERNEL32.dll
 0000:fff7a000       .debug$S                   0000000180000000     kernel32:KERNEL32.dll
 0000:fff7a000       .debug$S                   0000000180000000     kernel32:KERNEL32.dll
 0000:fff7a000       .debug$S                   0000000180000000     kernel32:KERNEL32.dll
 0000:fff7a000       .debug$S                   0000000180000000     kernel32:KERNEL32.dll
 0000:fff7a000       .debug$S                   0000000180000000     kernel32:KERNEL32.dll
 0000:fff7a000       .debug$S                   0000000180000000     kernel32:KERNEL32.dll
 0000:fff7a000       .debug$S                   0000000180000000     leveldown.exp
 0000:fff7a000       .debug$S                   0000000180000000     kernel32:KERNEL32.dll
 0000:fff7a000       .debug$S                   0000000180000000     kernel32:KERNEL32.dll
 0000:fff7a000       .debug$S                   0000000180000000     kernel32:KERNEL32.dll
 0000:fff7a000       .debug$S                   0000000180000000     kernel32:KERNEL32.dll
 0000:fff7a000       .debug$S                   0000000180000000     kernel32:KERNEL32.dll
 0000:fff7a000       .debug$S                   0000000180000000     kernel32:KERNEL32.dll
 0000:fff7a000       .debug$S                   0000000180000000     kernel32:KERNEL32.dll
 0000:fff7a000       .debug$S                   0000000180000000     kernel32:KERNEL32.dll
 0000:fff7a000       .debug$S                   0000000180000000     kernel32:KERNEL32.dll
 0000:fff7a000       .debug$S                   0000000180000000     kernel32:KERNEL32.dll
 0000:fff7a000       .debug$S                   0000000180000000     kernel32:KERNEL32.dll
 0000:fff7a000       .debug$S                   0000000180000000     kernel32:KERNEL32.dll
 0000:fff7a000       .debug$S                   0000000180000000     kernel32:KERNEL32.dll
 0000:fff7a000       .debug$S                   0000000180000000     kernel32:KERNEL32.dll
 0000:fff7a000       .debug$S                   0000000180000000     kernel32:KERNEL32.dll
 0000:fff7a000       .debug$S                   0000000180000000     kernel32:KERNEL32.dll
 0000:fff7a000       .debug$S                   0000000180000000     kernel32:KERNEL32.dll
 0000:fff7a000       .debug$S                   0000000180000000     kernel32:KERNEL32.dll
 0000:fff7a000       .debug$S                   0000000180000000     kernel32:KERNEL32.dll
 0000:fff7a000       .debug$S                   0000000180000000     kernel32:KERNEL32.dll
 0000:fff7a000       .debug$S                   0000000180000000     kernel32:KERNEL32.dll
 0000:fff7a000       .debug$S                   0000000180000000     kernel32:KERNEL32.dll
 0000:fff7a000       .debug$S                   0000000180000000     kernel32:KERNEL32.dll
 0000:fff7a000       .debug$S                   0000000180000000     kernel32:KERNEL32.dll
 0000:fff7a000       .debug$S                   0000000180000000     kernel32:KERNEL32.dll
 0000:fff7a000       .debug$S                   0000000180000000     kernel32:KERNEL32.dll
 0000:fff7a000       .debug$S                   0000000180000000     kernel32:KERNEL32.dll
 0000:fff7a000       .debug$S                   0000000180000000     kernel32:KERNEL32.dll
 0000:fff7a000       .debug$S                   0000000180000000     kernel32:KERNEL32.dll
 0000:fff7a000       .debug$S                   0000000180000000     kernel32:KERNEL32.dll
 0000:fff7a000       .debug$S                   0000000180000000     kernel32:KERNEL32.dll
 0000:fff7a000       .debug$S                   0000000180000000     kernel32:KERNEL32.dll
 0000:fff7a000       .debug$S                   0000000180000000     kernel32:KERNEL32.dll
 0000:fff7a000       .debug$S                   0000000180000000     kernel32:KERNEL32.dll
 0000:fff7a000       .debug$S                   0000000180000000     kernel32:KERNEL32.dll
 0000:fff7a000       .debug$S                   0000000180000000     kernel32:KERNEL32.dll
 0000:fff7a000       .debug$S                   0000000180000000     kernel32:KERNEL32.dll
 0000:fff7a000       .debug$S                   0000000180000000     kernel32:KERNEL32.dll
 0000:fff7a000       .debug$S                   0000000180000000     kernel32:KERNEL32.dll
 0000:fff7a000       .debug$S                   0000000180000000     kernel32:KERNEL32.dll
 0000:fff7a000       .debug$S                   0000000180000000     kernel32:KERNEL32.dll
 0000:fff7a000       .debug$S                   0000000180000000     kernel32:KERNEL32.dll
 0000:fff7a000       .debug$S                   0000000180000000     kernel32:KERNEL32.dll
 0000:fff7a000       .debug$S                   0000000180000000     kernel32:KERNEL32.dll
 0000:fff7a000       .debug$S                   0000000180000000     kernel32:KERNEL32.dll
 0000:fff7a000       .debug$S                   0000000180000000     kernel32:KERNEL32.dll
 0000:fff7a000       .debug$S                   0000000180000000     node:node.exe
 0000:fff7a000       .debug$S                   0000000180000000     node:node.exe
 0000:fff7a000       .debug$S                   0000000180000000     node:node.exe
 0000:fff7a000       .debug$S                   0000000180000000     node:node.exe
 0000:fff7a000       .debug$S                   0000000180000000     node:node.exe
 0000:fff7a000       .debug$S                   0000000180000000     node:node.exe
 0000:fff7a000       .debug$S                   0000000180000000     node:node.exe
 0000:fff7a000       .debug$S                   0000000180000000     kernel32:KERNEL32.dll
 0000:fff7a000       .debug$S                   0000000180000000     node:node.exe
 0000:fff7a000       .debug$S                   0000000180000000     kernel32:KERNEL32.dll
 0000:fff7a000       .debug$S                   0000000180000000     node:node.exe
 0000:fff7a000       .debug$S                   0000000180000000     node:node.exe
 0000:fff7a000       .debug$S                   0000000180000000     node:node.exe
 0000:fff7a000       .debug$S                   0000000180000000     node:node.exe
 0000:fff7a000       .debug$S                   0000000180000000     node:node.exe
 0000:fff7a000       .debug$S                   0000000180000000     node:node.exe
 0000:fff7a000       .debug$S                   0000000180000000     node:node.exe
 0000:fff7a000       .debug$S                   0000000180000000     node:node.exe
 0000:fff7a000       .debug$S                   0000000180000000     node:node.exe
 0000:fff7a000       .debug$S                   0000000180000000     node:node.exe
 0000:fff7a000       .debug$S                   0000000180000000     node:node.exe
 0000:fff7a000       .debug$S                   0000000180000000     kernel32:KERNEL32.dll
 0000:fff7a000       .debug$S                   0000000180000000     kernel32:KERNEL32.dll
 0000:fff7a000       .debug$S                   0000000180000000     kernel32:KERNEL32.dll
 0000:fff7a000       .debug$S                   0000000180000000     kernel32:KERNEL32.dll
 0000:fff7a000       .debug$S                   0000000180000000     node:node.exe
 0000:fff7a000       .debug$S                   0000000180000000     node:node.exe
 0000:fff7a000       .debug$S                   0000000180000000     node:node.exe
 0000:fff7a000       .debug$S                   0000000180000000     node:node.exe
 0000:fff7a000       .debug$S                   0000000180000000     kernel32:KERNEL32.dll
 0000:fff7a000       .debug$S                   0000000180000000     kernel32:KERNEL32.dll
 0000:fff7a000       .debug$S                   0000000180000000     kernel32:KERNEL32.dll
 0000:fff7a000       .debug$S                   0000000180000000     kernel32:KERNEL32.dll
 0000:fff7a000       .debug$S                   0000000180000000     kernel32:KERNEL32.dll
 0000:fff7a000       .debug$S                   0000000180000000     kernel32:KERNEL32.dll
 0000:fff7a000       .debug$S                   0000000180000000     kernel32:KERNEL32.dll
 0000:fff7a000       .debug$S                   0000000180000000     kernel32:KERNEL32.dll
 0000:fff7a000       .debug$S                   0000000180000000     kernel32:KERNEL32.dll
 0000:fff7a000       .debug$S                   0000000180000000     kernel32:KERNEL32.dll
 0000:fff7a000       .debug$S                   0000000180000000     kernel32:KERNEL32.dll
 0000:fff7a000       .debug$S                   0000000180000000     kernel32:KERNEL32.dll
 0000:fff7a000       .debug$S                   0000000180000000     kernel32:KERNEL32.dll
 0000:fff7a000       .debug$S                   0000000180000000     node:node.exe
 0000:fff7a000       .debug$S                   0000000180000000     node:node.exe
 0000:fff7a000       .debug$S                   0000000180000000     node:node.exe
 0000:fff7a000       .debug$S                   0000000180000000     node:node.exe
 0000:fff7a000       .debug$S                   0000000180000000     node:node.exe
 0000:fff7a000       .debug$S                   0000000180000000     node:node.exe
 0000:fff7a000       .debug$S                   0000000180000000     node:node.exe
 0000:fff7a000       .debug$S                   0000000180000000     node:node.exe
 0000:fff7a000       .debug$S                   0000000180000000     kernel32:KERNEL32.dll
 0000:fff7a000       .debug$S                   0000000180000000     kernel32:KERNEL32.dll
 0000:fff7a000       .debug$S                   0000000180000000     node:node.exe
 0000:fff7a000       .debug$S                   0000000180000000     kernel32:KERNEL32.dll
 0000:fff7a000       .debug$S                   0000000180000000     node:node.exe
 0000:fff7a000       .debug$S                   0000000180000000     kernel32:KERNEL32.dll
 0000:fff7a000       .debug$S                   0000000180000000     kernel32:KERNEL32.dll
 0000:fff7a000       .debug$S                   0000000180000000     kernel32:KERNEL32.dll
 0000:fff7a000       .debug$S                   0000000180000000     node:node.exe
 0000:fff7a000       .debug$S                   0000000180000000     node:node.exe
 0000:fff7a000       .debug$S                   0000000180000000     kernel32:KERNEL32.dll
 0000:fff7a000       .debug$S                   0000000180000000     node:node.exe
 0000:fff7a000       .debug$S                   0000000180000000     node:node.exe
 0000:fff7a000       .debug$S                   0000000180000000     node:node.exe
 0000:fff7a000       .debug$S                   0000000180000000     node:node.exe
 0000:fff7a000       .debug$S                   0000000180000000     node:node.exe
 0000:fff7a000       .debug$S                   0000000180000000     node:node.exe
 0000:fff7a000       .debug$S                   0000000180000000     node:node.exe
 0000:fff7a000       .debug$S                   0000000180000000     kernel32:KERNEL32.dll
 0000:fff7a000       .debug$S                   0000000180000000     kernel32:KERNEL32.dll
 0000:fff7a000       .debug$S                   0000000180000000     node:node.exe
 0000:fff7a000       .debug$S                   0000000180000000     node:node.exe
 0000:fff7a000       .debug$S                   0000000180000000     kernel32:KERNEL32.dll
 0000:fff7a000       .debug$S                   0000000180000000     node:node.exe
 0000:fff7a000       .debug$S                   0000000180000000     node:node.exe
 0000:fff7a000       .debug$S                   0000000180000000     node:node.exe
 0000:fff7a000       .debug$S                   0000000180000000     node:node.exe
 0000:fff7a000       .debug$S                   0000000180000000     kernel32:KERNEL32.dll
 0000:fff7a000       .debug$S                   0000000180000000     node:node.exe
 0000:fff7a000       .debug$S                   0000000180000000     node:node.exe
 0000:fff7a000       .debug$S                   0000000180000000     node:node.exe
 0000:fff7a000       .debug$S                   0000000180000000     node:node.exe
 0000:fff7a000       .debug$S                   0000000180000000     node:node.exe
 0000:fff7a000       .debug$S                   0000000180000000     node:node.exe
 0000:fff7a000       .debug$S                   0000000180000000     kernel32:KERNEL32.dll
 0000:fff7a000       .debug$S                   0000000180000000     node:node.exe
 0000:fff7a000       .debug$S                   0000000180000000     node:node.exe
 0000:fff7a000       .debug$S                   0000000180000000     node:node.exe
 0000:fff7a000       .debug$S                   0000000180000000     node:node.exe
 0000:fff7a000       .debug$S                   0000000180000000     node:node.exe
 0000:fff7a000       .debug$S                   0000000180000000     node:node.exe
 0000:fff7a000       .debug$S                   0000000180000000     node:node.exe
 0000:fff7a000       .debug$S                   0000000180000000     node:node.exe
 0000:fff7a000       .debug$S                   0000000180000000     node:node.exe
 0000:fff7a000       .debug$S                   0000000180000000     node:node.exe
 0000:fff7a000       .debug$S                   0000000180000000     node:node.exe
 0000:fff7a000       .debug$S                   0000000180000000     node:node.exe
 0000:fff7a000       .debug$S                   0000000180000000     node:node.exe
 0000:fff7a000       .debug$S                   0000000180000000     node:node.exe
 0000:fff7a000       .debug$S                   0000000180000000     node:node.exe
 0000:fff7a000       .debug$S                   0000000180000000     node:node.exe
 0000:fff7a000       .debug$S                   0000000180000000     node:node.exe
 0000:fff7a000       .debug$S                   0000000180000000     node:node.exe
 0000:fff7a000       .debug$S                   0000000180000000     node:node.exe
 0000:fff7a000       .debug$S                   0000000180000000     node:node.exe
 0000:fff7a000       .debug$S                   0000000180000000     node:node.exe
 0000:fff7a000       .debug$S                   0000000180000000     node:node.exe
 0000:fff7a000       .debug$S                   0000000180000000     node:node.exe
 0000:fff7a000       .debug$S                   0000000180000000     node:node.exe
 0000:fff7a000       .debug$S                   0000000180000000     node:node.exe
 0000:fff7a000       .debug$S                   0000000180000000     node:node.exe
 0000:fff7a000       .debug$S                   0000000180000000     node:node.exe
 0000:fff7a000       .debug$S                   0000000180000000     node:node.exe
 0000:fff7a000       .debug$S                   0000000180000000     node:node.exe
 0000:fff7a000       .debug$S                   0000000180000000     node:node.exe
 0000:fff7a000       .debug$S                   0000000180000000     node:node.exe
 0000:fff7a000       .debug$S                   0000000180000000     node:node.exe
 0000:fff7a000       .debug$S                   0000000180000000     node:node.exe
 0000:fff7a000       .debug$S                   0000000180000000     node:node.exe
 0000:fff7a000       .debug$S                   0000000180000000     node:node.exe
 0000:fff7a000       .debug$S                   0000000180000000     node:node.exe
 0000:fff7a000       .debug$S                   0000000180000000     node:node.exe
 0000:fff7a000       .debug$S                   0000000180000000     node:node.exe
 0000:fff7a000       .debug$S                   0000000180000000     node:node.exe
 0000:fff7a000       .debug$S                   0000000180000000     node:node.exe
 0000:fff7a000       .debug$S                   0000000180000000     node:node.exe
 0000:fff7a000       .debug$S                   0000000180000000     kernel32:KERNEL32.dll
 0000:fff7a000       .debug$S                   0000000180000000     node:node.exe
 0000:fff7a000       .debug$S                   0000000180000000     node:node.exe
 0000:fff7a000       .debug$S                   0000000180000000     kernel32:KERNEL32.dll
 0000:fff7a000       .debug$S                   0000000180000000     kernel32:KERNEL32.dll
 0000:fff7a000       .debug$S                   0000000180000000     kernel32:KERNEL32.dll
 0000:fff7a000       .debug$S                   0000000180000000     kernel32:KERNEL32.dll
 0000:fff7a000       .debug$S                   0000000180000000     kernel32:KERNEL32.dll
 0000:fff7a000       .debug$S                   0000000180000000     kernel32:KERNEL32.dll
 0000:fff7a000       .debug$S                   0000000180000000     kernel32:KERNEL32.dll
 0000:fff7a000       .debug$S                   0000000180000000     kernel32:KERNEL32.dll
 0000:fff7a000       .debug$S                   0000000180000000     kernel32:KERNEL32.dll
 0000:fff7a000       .debug$S                   0000000180000000     kernel32:KERNEL32.dll
 0000:fff7a000       .debug$S                   0000000180000000     kernel32:KERNEL32.dll
 0000:fff7a000       .debug$S                   0000000180000000     kernel32:KERNEL32.dll
 0000:fff7a000       .debug$S                   0000000180000000     kernel32:KERNEL32.dll
 0000:fff7a000       .debug$S                   0000000180000000     kernel32:KERNEL32.dll
 0000:fff7a000       .debug$S                   0000000180000000     kernel32:KERNEL32.dll
 0000:fff7a000       .debug$S                   0000000180000000     kernel32:KERNEL32.dll
 0000:fff7a000       .debug$S                   0000000180000000     kernel32:KERNEL32.dll
 0000:fff7a000       .debug$S                   0000000180000000     kernel32:KERNEL32.dll
 0000:fff7a000       .debug$S                   0000000180000000     kernel32:KERNEL32.dll
 0000:fff7a000       .debug$S                   0000000180000000     kernel32:KERNEL32.dll
 0000:fff7a000       .debug$S                   0000000180000000     kernel32:KERNEL32.dll
 0000:fff7a000       .debug$S                   0000000180000000     kernel32:KERNEL32.dll
 0000:fff7a000       .debug$S                   0000000180000000     kernel32:KERNEL32.dll
 0000:fff7a000       .debug$S                   0000000180000000     kernel32:KERNEL32.dll
 0000:fff7a000       .debug$S                   0000000180000000     kernel32:KERNEL32.dll
 0000:fff7a000       .debug$S                   0000000180000000     kernel32:KERNEL32.dll
 0001:00000000       ??__Ebatch_constructor@leveldown@@YAXXZ 0000000180001000 f   batch.obj
 0001:00000020       ??__Edatabase_constructor@leveldown@@YAXXZ 0000000180001020 f   database.obj
 0001:00000040       ??__Eiterator_constructor@leveldown@@YAXXZ 0000000180001040 f   iterator.obj
 0001:00000060       ??__Edefault_env_mutex@leveldb@@YAXXZ 0000000180001060 f   leveldb:env_win.obj
 0001:00000090       ?FunctionCallbackWrapper@imp@Nan@@YAXAEBV?$FunctionCallbackInfo@VValue@v8@@@v8@@@Z 0000000180001090 f   batch.obj
 0001:00002220       ?SeekToLast@EmptyIterator@?A0xf4b9f651@leveldb@@UEAAXXZ 0000000180003220 f i leveldb:iterator.obj
 0001:00002220       ?SeekToFirst@EmptyIterator@?A0xf4b9f651@leveldb@@UEAAXXZ 0000000180003220 f i leveldb:iterator.obj
 0001:00002220       ?Seek@EmptyIterator@?A0xf4b9f651@leveldb@@UEAAXAEBVSlice@3@@Z 0000000180003220 f i leveldb:iterator.obj
 0001:000083d0       ?StringOrBufferLength@@YA_KV?$Local@VValue@v8@@@v8@@@Z 00000001800093d0 f   iterator.obj
 0001:0000c170       _register_leveldown        000000018000d170 f   leveldown.obj
 0001:0000c5e0       ?load_exe_hook@@YAP6A_JXZIPEAUDelayLoadInfo@@@Z 000000018000d5e0 f   win_delay_load_hook.obj
 0001:0000ccd0       ?Put@MemTableInserter@?A0xa8e95b65@leveldb@@UEAAXAEBVSlice@3@0@Z 000000018000dcd0 f   leveldb:write_batch.obj
 0001:0000cd00       ?Delete@MemTableInserter@?A0xa8e95b65@leveldb@@UEAAXAEBVSlice@3@@Z 000000018000dd00 f   leveldb:write_batch.obj
 0001:0000cde0       ??1MemTableInserter@?A0xa8e95b65@leveldb@@UEAA@XZ 000000018000dde0 f   leveldb:write_batch.obj
 0001:0000d4e0       $LN429                     000000018000e4e0     leveldb:status.obj
 0001:0000d500       ?Name@BloomFilterPolicy@?A0x9ca00a5f@leveldb@@UEBAPEBDXZ 000000018000e500 f   leveldb:bloom.obj
 0001:0000d510       ?CreateFilter@BloomFilterPolicy@?A0x9ca00a5f@leveldb@@UEBAXPEBVSlice@3@HPEAV?$basic_string@DU?$char_traits@D@std@@V?$allocator@D@2@@std@@@Z 000000018000e510 f   leveldb:bloom.obj
 0001:0000d6b0       ?KeyMayMatch@BloomFilterPolicy@?A0x9ca00a5f@leveldb@@UEBA_NAEBVSlice@3@0@Z 000000018000e6b0 f   leveldb:bloom.obj
 0001:0000f3d8       $LN839                     00000001800103d8     leveldb:db_impl.obj
 0001:00010740       ?Corruption@LogReporter@?1??RecoverLogFile@DBImpl@leveldb@@AEAA?AVStatus@4@_K_NPEA_NPEAVVersionEdit@4@PEA_K@Z@UEAAX0AEBV54@@Z 0000000180011740 f   leveldb:db_impl.obj
 0001:00012e60       ?CleanupIteratorState@?A0xfc6d1dae@leveldb@@YAXPEAX0@Z 0000000180013e60 f   leveldb:db_impl.obj
 0001:00015630       ??1LogReporter@?1??RecoverLogFile@DBImpl@leveldb@@AEAA?AVStatus@3@_K_NPEA_NPEAVVersionEdit@3@PEA_K@Z@UEAA@XZ 0000000180016630 f   leveldb:db_impl.obj
 0001:00015630       ??1LogReporter@?1??Recover@VersionSet@leveldb@@QEAA?AVStatus@3@PEA_N@Z@UEAA@XZ 0000000180016630 f   leveldb:version_set.obj
 0001:00015630       ??1LogReporter@?1??ConvertLogToTable@Repairer@?A0xf548df11@leveldb@@AEAA?AVStatus@4@_K@Z@UEAA@XZ 0000000180016630 f   leveldb:repair.obj
 0001:000182b0       ??1HandleTable@?A0xfa0b1ac0@leveldb@@QEAA@XZ 00000001800192b0 f   leveldb:cache.obj
 0001:000182c0       ?Insert@HandleTable@?A0xfa0b1ac0@leveldb@@QEAAPEAULRUHandle@23@PEAU423@@Z 00000001800192c0 f   leveldb:cache.obj
 0001:00018350       ?FindPointer@HandleTable@?A0xfa0b1ac0@leveldb@@AEAAPEAPEAULRUHandle@23@AEBVSlice@3@I@Z 0000000180019350 f   leveldb:cache.obj
 0001:000183f0       ?Resize@HandleTable@?A0xfa0b1ac0@leveldb@@AEAAXXZ 00000001800193f0 f   leveldb:cache.obj
 0001:000184f0       ??0LRUCache@?A0xfa0b1ac0@leveldb@@QEAA@XZ 00000001800194f0 f   leveldb:cache.obj
 0001:00018560       ??1LRUCache@?A0xfa0b1ac0@leveldb@@QEAA@XZ 0000000180019560 f   leveldb:cache.obj
 0001:00018650       ?Unref@LRUCache@?A0xfa0b1ac0@leveldb@@AEAAXPEAULRUHandle@23@@Z 0000000180019650 f   leveldb:cache.obj
 0001:00018740       ?Lookup@LRUCache@?A0xfa0b1ac0@leveldb@@QEAAPEAUHandle@Cache@3@AEBVSlice@3@I@Z 0000000180019740 f   leveldb:cache.obj
 0001:00018800       ?Insert@LRUCache@?A0xfa0b1ac0@leveldb@@QEAAPEAUHandle@Cache@3@AEBVSlice@3@IPEAX_KP6AX01@Z@Z 0000000180019800 f   leveldb:cache.obj
 0001:00018a10       ?FinishErase@LRUCache@?A0xfa0b1ac0@leveldb@@AEAA_NPEAULRUHandle@23@@Z 0000000180019a10 f   leveldb:cache.obj
 0001:00018a90       ?Erase@LRUCache@?A0xfa0b1ac0@leveldb@@QEAAXAEBVSlice@3@I@Z 0000000180019a90 f   leveldb:cache.obj
 0001:00018b20       ?Prune@LRUCache@?A0xfa0b1ac0@leveldb@@QEAAXXZ 0000000180019b20 f   leveldb:cache.obj
 0001:00018c70       ??0ShardedLRUCache@?A0xfa0b1ac0@leveldb@@QEAA@_K@Z 0000000180019c70 f   leveldb:cache.obj
 0001:00018d30       ?Insert@ShardedLRUCache@?A0xfa0b1ac0@leveldb@@UEAAPEAUHandle@Cache@3@AEBVSlice@3@PEAX_KP6AX01@Z@Z 0000000180019d30 f   leveldb:cache.obj
 0001:00018da0       ?Lookup@ShardedLRUCache@?A0xfa0b1ac0@leveldb@@UEAAPEAUHandle@Cache@3@AEBVSlice@3@@Z 0000000180019da0 f   leveldb:cache.obj
 0001:00018de0       ?Release@ShardedLRUCache@?A0xfa0b1ac0@leveldb@@UEAAXPEAUHandle@Cache@3@@Z 0000000180019de0 f   leveldb:cache.obj
 0001:00018e50       ?Erase@ShardedLRUCache@?A0xfa0b1ac0@leveldb@@UEAAXAEBVSlice@3@@Z 0000000180019e50 f   leveldb:cache.obj
 0001:00018e90       ?Value@ShardedLRUCache@?A0xfa0b1ac0@leveldb@@UEAAPEAXPEAUHandle@Cache@3@@Z 0000000180019e90 f   leveldb:cache.obj
 0001:00018ea0       ?NewId@ShardedLRUCache@?A0xfa0b1ac0@leveldb@@UEAA_KXZ 0000000180019ea0 f   leveldb:cache.obj
 0001:00018f00       ?Prune@ShardedLRUCache@?A0xfa0b1ac0@leveldb@@UEAAXXZ 0000000180019f00 f   leveldb:cache.obj
 0001:00018f40       ?TotalCharge@ShardedLRUCache@?A0xfa0b1ac0@leveldb@@UEBA_KXZ 0000000180019f40 f   leveldb:cache.obj
 0001:00019110       ??0Repairer@?A0xf548df11@leveldb@@QEAA@AEBV?$basic_string@DU?$char_traits@D@std@@V?$allocator@D@2@@std@@AEBUOptions@2@@Z 000000018001a110 f   leveldb:repair.obj
 0001:00019290       ??1Repairer@?A0xf548df11@leveldb@@QEAA@XZ 000000018001a290 f   leveldb:repair.obj
 0001:000194a0       ?Run@Repairer@?A0xf548df11@leveldb@@QEAA?AVStatus@3@XZ 000000018001a4a0 f   leveldb:repair.obj
 0001:00019630       ?FindFiles@Repairer@?A0xf548df11@leveldb@@AEAA?AVStatus@3@XZ 000000018001a630 f   leveldb:repair.obj
 0001:00019920       ?ConvertLogFilesToTables@Repairer@?A0xf548df11@leveldb@@AEAAXXZ 000000018001a920 f   leveldb:repair.obj
 0001:00019b30       ?ConvertLogToTable@Repairer@?A0xf548df11@leveldb@@AEAA?AVStatus@3@_K@Z 000000018001ab30 f   leveldb:repair.obj
 0001:0001a460       ?Corruption@LogReporter@?1??ConvertLogToTable@Repairer@?A0xf548df11@leveldb@@AEAA?AVStatus@5@_K@Z@UEAAX0AEBV65@@Z 000000018001b460 f   leveldb:repair.obj
 0001:0001a550       ?ScanTable@Repairer@?A0xf548df11@leveldb@@AEAAX_K@Z 000000018001b550 f   leveldb:repair.obj
 0001:0001ad00       ?RepairTable@Repairer@?A0xf548df11@leveldb@@AEAAXAEBV?$basic_string@DU?$char_traits@D@std@@V?$allocator@D@2@@std@@UTableInfo@123@@Z 000000018001bd00 f   leveldb:repair.obj
 0001:0001b220       ?WriteDescriptor@Repairer@?A0xf548df11@leveldb@@AEAA?AVStatus@3@XZ 000000018001c220 f   leveldb:repair.obj
 0001:0001ba60       ?ArchiveFile@Repairer@?A0xf548df11@leveldb@@AEAAXAEBV?$basic_string@DU?$char_traits@D@std@@V?$allocator@D@2@@std@@@Z 000000018001ca60 f   leveldb:repair.obj
 0001:0001bdb0       ??1TableInfo@Repairer@?A0xf548df11@leveldb@@QEAA@XZ 000000018001cdb0 f   leveldb:repair.obj
 0001:0001eb00       ?MakeFileName@leveldb@@YA?AV?$basic_string@DU?$char_traits@D@std@@V?$allocator@D@2@@std@@AEBV23@_KPEBD@Z 000000018001fb00 f   leveldb:filename.obj
 0001:0001f8a0       ?DoWriteStringToFile@leveldb@@YA?AVStatus@1@PEAVEnv@1@AEBVSlice@1@AEBV?$basic_string@DU?$char_traits@D@std@@V?$allocator@D@2@@std@@_N@Z 00000001800208a0 f   leveldb:env.obj
 0001:0001fe80       ??0MergingIterator@?A0xd4ddc066@leveldb@@QEAA@PEBVComparator@2@PEAPEAVIterator@2@H@Z 0000000180020e80 f   leveldb:merger.obj
 0001:0001ffd0       ??1MergingIterator@?A0xd4ddc066@leveldb@@UEAA@XZ 0000000180020fd0 f   leveldb:merger.obj
 0001:00020040       ?Valid@MergingIterator@?A0xd4ddc066@leveldb@@UEBA_NXZ 0000000180021040 f   leveldb:merger.obj
 0001:00020050       ?SeekToFirst@MergingIterator@?A0xd4ddc066@leveldb@@UEAAXXZ 0000000180021050 f   leveldb:merger.obj
 0001:00020100       ?SeekToLast@MergingIterator@?A0xd4ddc066@leveldb@@UEAAXXZ 0000000180021100 f   leveldb:merger.obj
 0001:000201b0       ?Seek@MergingIterator@?A0xd4ddc066@leveldb@@UEAAXAEBVSlice@3@@Z 00000001800211b0 f   leveldb:merger.obj
 0001:00020270       ?Next@MergingIterator@?A0xd4ddc066@leveldb@@UEAAXXZ 0000000180021270 f   leveldb:merger.obj
 0001:00020410       ?Prev@MergingIterator@?A0xd4ddc066@leveldb@@UEAAXXZ 0000000180021410 f   leveldb:merger.obj
 0001:00020610       ?key@MergingIterator@?A0xd4ddc066@leveldb@@UEBA?AVSlice@3@XZ 0000000180021610 f   leveldb:merger.obj
 0001:00020680       ?value@MergingIterator@?A0xd4ddc066@leveldb@@UEBA?AVSlice@3@XZ 0000000180021680 f   leveldb:merger.obj
 0001:000206f0       ?status@MergingIterator@?A0xd4ddc066@leveldb@@UEBA?AVStatus@3@XZ 00000001800216f0 f   leveldb:merger.obj
 0001:00020810       ?FindSmallest@MergingIterator@?A0xd4ddc066@leveldb@@AEAAXXZ 0000000180021810 f   leveldb:merger.obj
 0001:00020910       ?FindLargest@MergingIterator@?A0xd4ddc066@leveldb@@AEAAXXZ 0000000180021910 f   leveldb:merger.obj
 0001:00020c50       ?TotalFileSize@leveldb@@YA_JAEBV?$vector@PEAUFileMetaData@leveldb@@V?$allocator@PEAUFileMetaData@leveldb@@@std@@@std@@@Z 0000000180021c50 f   leveldb:version_set.obj
 0001:00020ec0       ?AfterFile@leveldb@@YA_NPEBVComparator@1@PEBVSlice@1@PEBUFileMetaData@1@@Z 0000000180021ec0 f   leveldb:version_set.obj
 0001:00020f60       ?BeforeFile@leveldb@@YA_NPEBVComparator@1@PEBVSlice@1@PEBUFileMetaData@1@@Z 0000000180021f60 f   leveldb:version_set.obj
 0001:00021460       ?GetFileIterator@leveldb@@YAPEAVIterator@1@PEAXAEBUReadOptions@1@AEBVSlice@1@@Z 0000000180022460 f   leveldb:version_set.obj
 0001:000216b0       ?SaveValue@leveldb@@YAXPEAXAEBVSlice@1@1@Z 00000001800226b0 f   leveldb:version_set.obj
 0001:00021780       ?NewestFirst@leveldb@@YA_NPEAUFileMetaData@1@0@Z 0000000180022780 f   leveldb:version_set.obj
 0001:000223d0       ?Match@State@?1??RecordReadSample@Version@leveldb@@QEAA_NVSlice@4@@Z@SA_NPEAXHPEAUFileMetaData@4@@Z 00000001800233d0 f   leveldb:version_set.obj
 0001:00024ee0       ?Corruption@LogReporter@?1??Recover@VersionSet@leveldb@@QEAA?AVStatus@4@PEA_N@Z@UEAAX_KAEBV54@@Z 0000000180025ee0 f   leveldb:version_set.obj
 0001:00029060       ?DeleteEntry@leveldb@@YAXAEBVSlice@1@PEAX@Z 000000018002a060 f   leveldb:table_cache.obj
 0001:000290e0       ?ReleaseBlock@leveldb@@YAXPEAX0@Z 000000018002a0e0 f   leveldb:table.obj
 0001:000290e0       ?UnrefEntry@leveldb@@YAXPEAX0@Z 000000018002a0e0 f   leveldb:table_cache.obj
 0001:0002a80c       $LN1024                    000000018002b80c     leveldb:version_edit.obj
 0001:0002ade0       $LN309                     000000018002bde0     leveldb:log_reader.obj
 0001:0002b670       ??0EmptyIterator@?A0xf4b9f651@leveldb@@QEAA@AEBVStatus@2@@Z 000000018002c670 f   leveldb:iterator.obj
 0001:0002b700       ?Valid@EmptyIterator@?A0xf4b9f651@leveldb@@UEBA_NXZ 000000018002c700 f   leveldb:iterator.obj
 0001:0002b710       ?Next@EmptyIterator@?A0xf4b9f651@leveldb@@UEAAXXZ 000000018002c710 f   leveldb:iterator.obj
 0001:0002b730       ?Prev@EmptyIterator@?A0xf4b9f651@leveldb@@UEAAXXZ 000000018002c730 f   leveldb:iterator.obj
 0001:0002b750       ?key@EmptyIterator@?A0xf4b9f651@leveldb@@UEBA?AVSlice@3@XZ 000000018002c750 f   leveldb:iterator.obj
 0001:0002b790       ?value@EmptyIterator@?A0xf4b9f651@leveldb@@UEBA?AVSlice@3@XZ 000000018002c790 f   leveldb:iterator.obj
 0001:0002b7d0       ?status@EmptyIterator@?A0xf4b9f651@leveldb@@UEBA?AVStatus@3@XZ 000000018002c7d0 f   leveldb:iterator.obj
 0001:0002b920       ??0DBIter@?A0x82e07e78@leveldb@@QEAA@PEAVDBImpl@2@PEBVComparator@2@PEAVIterator@2@_KI@Z 000000018002c920 f   leveldb:db_iter.obj
 0001:0002ba20       ?Valid@DBIter@?A0x82e07e78@leveldb@@UEBA_NXZ 000000018002ca20 f   leveldb:db_iter.obj
 0001:0002ba30       ?key@DBIter@?A0x82e07e78@leveldb@@UEBA?AVSlice@3@XZ 000000018002ca30 f   leveldb:db_iter.obj
 0001:0002baf0       ?value@DBIter@?A0x82e07e78@leveldb@@UEBA?AVSlice@3@XZ 000000018002caf0 f   leveldb:db_iter.obj
 0001:0002bb80       ?status@DBIter@?A0x82e07e78@leveldb@@UEBA?AVStatus@3@XZ 000000018002cb80 f   leveldb:db_iter.obj
 0001:0002bbe0       ?ClearSavedValue@DBIter@?A0x82e07e78@leveldb@@AEAAXXZ 000000018002cbe0 f   leveldb:db_iter.obj
 0001:0002bda0       ?ParseKey@DBIter@?A0x82e07e78@leveldb@@AEAA_NPEAUParsedInternalKey@3@@Z 000000018002cda0 f   leveldb:db_iter.obj
 0001:0002bf10       ?Next@DBIter@?A0x82e07e78@leveldb@@UEAAXXZ 000000018002cf10 f   leveldb:db_iter.obj
 0001:0002c000       ?FindNextUserEntry@DBIter@?A0x82e07e78@leveldb@@AEAAX_NPEAV?$basic_string@DU?$char_traits@D@std@@V?$allocator@D@2@@std@@@Z 000000018002d000 f   leveldb:db_iter.obj
 0001:0002c180       ?Prev@DBIter@?A0x82e07e78@leveldb@@UEAAXXZ 000000018002d180 f   leveldb:db_iter.obj
 0001:0002c340       ?FindPrevUserEntry@DBIter@?A0x82e07e78@leveldb@@AEAAXXZ 000000018002d340 f   leveldb:db_iter.obj
 0001:0002c620       ?Seek@DBIter@?A0x82e07e78@leveldb@@UEAAXAEBVSlice@3@@Z 000000018002d620 f   leveldb:db_iter.obj
 0001:0002c700       ?SeekToFirst@DBIter@?A0x82e07e78@leveldb@@UEAAXXZ 000000018002d700 f   leveldb:db_iter.obj
 0001:0002c750       ?SeekToLast@DBIter@?A0x82e07e78@leveldb@@UEAAXXZ 000000018002d750 f   leveldb:db_iter.obj
 0001:0002de50       ?Name@BytewiseComparatorImpl@?A0x70986fc3@leveldb@@UEBAPEBDXZ 000000018002ee50 f   leveldb:comparator.obj
 0001:0002de60       ?Compare@BytewiseComparatorImpl@?A0x70986fc3@leveldb@@UEBAHAEBVSlice@3@0@Z 000000018002ee60 f   leveldb:comparator.obj
 0001:0002dec0       ?FindShortestSeparator@BytewiseComparatorImpl@?A0x70986fc3@leveldb@@UEBAXPEAV?$basic_string@DU?$char_traits@D@std@@V?$allocator@D@2@@std@@AEBVSlice@3@@Z 000000018002eec0 f   leveldb:comparator.obj
 0001:0002e050       ?FindShortSuccessor@BytewiseComparatorImpl@?A0x70986fc3@leveldb@@UEBAXPEAV?$basic_string@DU?$char_traits@D@std@@V?$allocator@D@2@@std@@@Z 000000018002f050 f   leveldb:comparator.obj
 0001:0002e110       ?InitModule@leveldb@@YAXXZ 000000018002f110 f   leveldb:comparator.obj
 0001:0002e1b0       ?IOError@leveldb@@YA?AVStatus@1@AEBV?$basic_string@DU?$char_traits@D@std@@V?$allocator@D@2@@std@@K@Z 000000018002f1b0 f   leveldb:env_win.obj
 0001:0002ea50       ?ToWcharFromCodePage@?A0xcf581e97@leveldb@@YAPEA_WPEBDI@Z 000000018002fa50 f   leveldb:env_win.obj
 0001:0002eaf0       ?ToUtf8@?A0xcf581e97@leveldb@@YAPEADPEB_W@Z 000000018002faf0 f   leveldb:env_win.obj
 0001:0002eb80       ?WstrJoin@?A0xcf581e97@leveldb@@YAPEA_WPEB_W00@Z 000000018002fb80 f   leveldb:env_win.obj
 0001:0002ec90       ?WstrPathJoin@?A0xcf581e97@leveldb@@YAPEA_WPEB_W0@Z 000000018002fc90 f   leveldb:env_win.obj
 0001:0002ede0       ??1WinEnv@?A0xcf581e97@leveldb@@UEAA@XZ 000000018002fde0 f   leveldb:env_win.obj
 0001:0002ee70       ?NewSequentialFile@WinEnv@?A0xcf581e97@leveldb@@UEAA?AVStatus@3@AEBV?$basic_string@DU?$char_traits@D@std@@V?$allocator@D@2@@std@@PEAPEAVSequentialFile@3@@Z 000000018002fe70 f   leveldb:env_win.obj
 0001:0002eff0       ?NewRandomAccessFile@WinEnv@?A0xcf581e97@leveldb@@UEAA?AVStatus@3@AEBV?$basic_string@DU?$char_traits@D@std@@V?$allocator@D@2@@std@@PEAPEAVRandomAccessFile@3@@Z 000000018002fff0 f   leveldb:env_win.obj
 0001:0002f170       ?NewWritableFile@WinEnv@?A0xcf581e97@leveldb@@UEAA?AVStatus@3@AEBV?$basic_string@DU?$char_traits@D@std@@V?$allocator@D@2@@std@@PEAPEAVWritableFile@3@@Z 0000000180030170 f   leveldb:env_win.obj
 0001:0002f300       ?FileExists@WinEnv@?A0xcf581e97@leveldb@@UEAA_NAEBV?$basic_string@DU?$char_traits@D@std@@V?$allocator@D@2@@std@@@Z 0000000180030300 f   leveldb:env_win.obj
 0001:0002f3b0       ?GetChildren@WinEnv@?A0xcf581e97@leveldb@@UEAA?AVStatus@3@AEBV?$basic_string@DU?$char_traits@D@std@@V?$allocator@D@2@@std@@PEAV?$vector@V?$basic_string@DU?$char_traits@D@std@@V?$allocator@D@2@@std@@V?$allocator@V?$basic_string@DU?$char_traits@D@std@@V?$allocator@D@2@@std@@@2@@6@@Z 00000001800303b0 f   leveldb:env_win.obj
 0001:0002f6a0       ?DeleteFile@WinEnv@?A0xcf581e97@leveldb@@UEAA?AVStatus@3@AEBV?$basic_string@DU?$char_traits@D@std@@V?$allocator@D@2@@std@@@Z 00000001800306a0 f   leveldb:env_win.obj
 0001:0002f7f0       ?GetPathParent@WinEnv@?A0xcf581e97@leveldb@@QEAAPEA_WPEB_W@Z 00000001800307f0 f   leveldb:env_win.obj
 0001:0002f8a0       ?CreateDirRecursive@WinEnv@?A0xcf581e97@leveldb@@QEAA_NPEA_W@Z 00000001800308a0 f   leveldb:env_win.obj
 0001:0002f950       ?CreateDir@WinEnv@?A0xcf581e97@leveldb@@UEAA?AVStatus@3@AEBV?$basic_string@DU?$char_traits@D@std@@V?$allocator@D@2@@std@@@Z 0000000180030950 f   leveldb:env_win.obj
 0001:0002fa60       ?DeleteDir@WinEnv@?A0xcf581e97@leveldb@@UEAA?AVStatus@3@AEBV?$basic_string@DU?$char_traits@D@std@@V?$allocator@D@2@@std@@@Z 0000000180030a60 f   leveldb:env_win.obj
 0001:0002fb60       ?GetFileSize@WinEnv@?A0xcf581e97@leveldb@@UEAA?AVStatus@3@AEBV?$basic_string@DU?$char_traits@D@std@@V?$allocator@D@2@@std@@PEA_K@Z 0000000180030b60 f   leveldb:env_win.obj
 0001:0002fda0       ?RenameFile@WinEnv@?A0xcf581e97@leveldb@@UEAA?AVStatus@3@AEBV?$basic_string@DU?$char_traits@D@std@@V?$allocator@D@2@@std@@0@Z 0000000180030da0 f   leveldb:env_win.obj
 0001:0002ffb0       ?LockFile@WinEnv@?A0xcf581e97@leveldb@@UEAA?AVStatus@3@AEBV?$basic_string@DU?$char_traits@D@std@@V?$allocator@D@2@@std@@PEAPEAVFileLock@3@@Z 0000000180030fb0 f   leveldb:env_win.obj
 0001:000301f0       ?UnlockFile@WinEnv@?A0xcf581e97@leveldb@@UEAA?AVStatus@3@PEAVFileLock@3@@Z 00000001800311f0 f   leveldb:env_win.obj
 0001:00030310       ?GetTestDirectory@WinEnv@?A0xcf581e97@leveldb@@UEAA?AVStatus@3@PEAV?$basic_string@DU?$char_traits@D@std@@V?$allocator@D@2@@std@@@Z 0000000180031310 f   leveldb:env_win.obj
 0001:00030650       ?NewLogger@WinEnv@?A0xcf581e97@leveldb@@UEAA?AVStatus@3@AEBV?$basic_string@DU?$char_traits@D@std@@V?$allocator@D@2@@std@@PEAPEAVLogger@3@@Z 0000000180031650 f   leveldb:env_win.obj
 0001:00030750       ?NowMicros@WinEnv@?A0xcf581e97@leveldb@@UEAA_KXZ 0000000180031750 f   leveldb:env_win.obj
 0001:00030780       ?SleepForMicroseconds@WinEnv@?A0xcf581e97@leveldb@@UEAAXH@Z 0000000180031780 f   leveldb:env_win.obj
 0001:000307a0       ?BGThreadWrapper@WinEnv@?A0xcf581e97@leveldb@@CAIPEAX@Z 00000001800317a0 f   leveldb:env_win.obj
 0001:000307f0       ??0WinEnv@?A0xcf581e97@leveldb@@QEAA@XZ 00000001800317f0 f   leveldb:env_win.obj
 0001:000308a0       ?Schedule@WinEnv@?A0xcf581e97@leveldb@@UEAAXP6AXPEAX@Z0@Z 00000001800318a0 f   leveldb:env_win.obj
 0001:00030a40       ?BGThread@WinEnv@?A0xcf581e97@leveldb@@AEAAXXZ 0000000180031a40 f   leveldb:env_win.obj
 0001:00030b40       ?StartThreadWrapper@?A0xcf581e97@leveldb@@YAIPEAX@Z 0000000180031b40 f   leveldb:env_win.obj
 0001:00030b80       ?StartThread@WinEnv@?A0xcf581e97@leveldb@@UEAAXP6AXPEAX@Z0@Z 0000000180031b80 f   leveldb:env_win.obj
 0001:00031c20       ?DeleteBlock@leveldb@@YAXPEAX0@Z 0000000180032c20 f   leveldb:table.obj
 0001:00031c50       ?DeleteCachedBlock@leveldb@@YAXAEBVSlice@1@PEAX@Z 0000000180032c50 f   leveldb:table.obj
 0001:00032300       ?Valid@TwoLevelIterator@?A0x4171a345@leveldb@@UEBA_NXZ 0000000180033300 f   leveldb:two_level_iterator.obj
 0001:00032310       ?key@TwoLevelIterator@?A0x4171a345@leveldb@@UEBA?AVSlice@3@XZ 0000000180033310 f   leveldb:two_level_iterator.obj
 0001:00032380       ?value@TwoLevelIterator@?A0x4171a345@leveldb@@UEBA?AVSlice@3@XZ 0000000180033380 f   leveldb:two_level_iterator.obj
 0001:000323f0       ?status@TwoLevelIterator@?A0x4171a345@leveldb@@UEBA?AVStatus@3@XZ 00000001800333f0 f   leveldb:two_level_iterator.obj
 0001:000324e0       ??0TwoLevelIterator@?A0x4171a345@leveldb@@QEAA@PEAVIterator@2@P6APEAV32@PEAXAEBUReadOptions@2@AEBVSlice@2@@Z12@Z 00000001800334e0 f   leveldb:two_level_iterator.obj
 0001:000325e0       ??1TwoLevelIterator@?A0x4171a345@leveldb@@UEAA@XZ 00000001800335e0 f   leveldb:two_level_iterator.obj
 0001:00032650       ?Seek@TwoLevelIterator@?A0x4171a345@leveldb@@UEAAXAEBVSlice@3@@Z 0000000180033650 f   leveldb:two_level_iterator.obj
 0001:000326f0       ?SeekToFirst@TwoLevelIterator@?A0x4171a345@leveldb@@UEAAXXZ 00000001800336f0 f   leveldb:two_level_iterator.obj
 0001:000327a0       ?SeekToLast@TwoLevelIterator@?A0x4171a345@leveldb@@UEAAXXZ 00000001800337a0 f   leveldb:two_level_iterator.obj
 0001:00032850       ?Next@TwoLevelIterator@?A0x4171a345@leveldb@@UEAAXXZ 0000000180033850 f   leveldb:two_level_iterator.obj
 0001:000328e0       ?Prev@TwoLevelIterator@?A0x4171a345@leveldb@@UEAAXXZ 00000001800338e0 f   leveldb:two_level_iterator.obj
 0001:00032970       ?SkipEmptyDataBlocksForward@TwoLevelIterator@?A0x4171a345@leveldb@@AEAAXXZ 0000000180033970 f   leveldb:two_level_iterator.obj
 0001:00032ab0       ?SkipEmptyDataBlocksBackward@TwoLevelIterator@?A0x4171a345@leveldb@@AEAAXXZ 0000000180033ab0 f   leveldb:two_level_iterator.obj
 0001:00032bf0       ?SetDataIterator@TwoLevelIterator@?A0x4171a345@leveldb@@AEAAXPEAVIterator@3@@Z 0000000180033bf0 f   leveldb:two_level_iterator.obj
 0001:00032cb0       ?InitDataBlock@TwoLevelIterator@?A0x4171a345@leveldb@@AEAAXXZ 0000000180033cb0 f   leveldb:two_level_iterator.obj
 0001:00034930       ?DecodeEntry@leveldb@@YAPEBDPEBD0PEAI11@Z 0000000180035930 f   leveldb:block.obj
 0001:00035590       ?IncrementalCopy@?A0xec2c9bf3@snappy@@YAPEADPEBDPEADQEAD2@Z 0000000180036590 f   snappy:snappy.obj
 0001:000356e0       ?EmitLiteral@snappy@@YAPEADPEADPEBDH_N@Z 00000001800366e0 f   snappy:snappy.obj
 0001:000357f0       ?EmitCopyAtMost64@snappy@@YAPEADPEAD_K1_N@Z 00000001800367f0 f   snappy:snappy.obj
 0001:00035900       ?EmitCopy@snappy@@YAPEADPEAD_K1_N@Z 0000000180036900 f   snappy:snappy.obj
 0001:00036480       ??$InternalUncompress@VSnappyArrayWriter@snappy@@@snappy@@YA_NPEAVSource@0@PEAVSnappyArrayWriter@0@@Z 0000000180037480 f   snappy:snappy.obj
 0001:00037070       $$000000                   0000000180038070     LIBCMT:_amdsecgs_.obj
 0001:000374d4       ?dllmain_crt_dispatch@@YAHQEAUHINSTANCE__@@KQEAX@Z 00000001800384d4 f   LIBCMT:dll_dllmain.obj
 0001:00037524       ?dllmain_crt_process_attach@@YAHQEAUHINSTANCE__@@QEAX@Z 0000000180038524 f   LIBCMT:dll_dllmain.obj
 0001:00037650       ?dllmain_crt_process_detach@@YAH_N@Z 0000000180038650 f   LIBCMT:dll_dllmain.obj
 0001:000376d4       ?dllmain_dispatch@@YAHQEAUHINSTANCE__@@KQEAX@Z 00000001800386d4 f   LIBCMT:dll_dllmain.obj
 0001:000377cc       ?dllmain_raw@@YAHQEAUHINSTANCE__@@KQEAX@Z 00000001800387cc f   LIBCMT:dll_dllmain.obj
 0001:000379a8       ?__scrt_initialize_thread_safe_statics@@YAHXZ 00000001800389a8 f   LIBCMT:thread_safe_statics.obj
 0001:00037ac8       ?__scrt_uninitialize_thread_safe_statics@@YAXXZ 0000000180038ac8 f   LIBCMT:thread_safe_statics.obj
 0001:00037ec0       capture_current_context    0000000180038ec0 f   LIBCMT:gs_report.obj
 0001:00037f30       capture_previous_context   0000000180038f30 f   LIBCMT:gs_report.obj
 0001:00038550       $$000000                   0000000180039550     libvcruntime:memcpy.obj
 0001:000385f7       MoveSmall                  00000001800395f7     libvcruntime:memcpy.obj
 0001:00038ef0       ?try_get_function@@YAPEAXW4function_id@?A0x679b24ab@@QEBDQEBW4module_id@2@2@Z 0000000180039ef0 f   libvcruntime:winapi_downlevel.obj
 0001:00039320       $$000000                   000000018003a320     libvcruntime:memset.obj
 0001:0003940c       MsetTab                    000000018003a40c     libvcruntime:memset.obj
 0001:00039770       $$000000                   000000018003a770     libvcruntime:_jmpuwind_.obj
 0001:000397e4       ??$common_assert_to_message_box@_W@@YAXQEB_W0IQEAX@Z 000000018003a7e4 f   libucrt:assert.obj
 0001:000398a8       ??$common_assert_to_message_box_build_string@_W@@YAXQEA_W_KQEB_W2IQEAX@Z 000000018003a8a8 f   libucrt:assert.obj
 0001:0003a07c       ??$common_assert_to_stderr@_W@@YAXQEB_W0I@Z 000000018003b07c f   libucrt:assert.obj
 0001:0003a1ec       ?get_assert_format@@YAPEB_W_W@Z 000000018003b1ec f   libucrt:assert.obj
 0001:0003a80c       ??$common_vsprintf@Vformat_validation_base@__crt_stdio_output@@D@@YAH_KQEAD0QEBDQEAU__crt_locale_pointers@@1@Z 000000018003b80c f   libucrt:output.obj
 0001:0003aee8       ??R<lambda_0a64b6a4deda75c01876f29c44fc5eb3>@@QEBAHXZ 000000018003bee8 f   libucrt:output.obj
 0001:0003afd8       ??R<lambda_dd75445284c072d0bd3768540cc698fa>@@QEBAHXZ 000000018003bfd8 f   libucrt:output.obj
 0001:0003eb40       ??$thread_start@P6AIPEAX@Z@@YAKQEAX@Z 000000018003fb40 f   libucrt:thread.obj
 0001:0003ebb8       ?common_end_thread@@YAXI@Z 000000018003fbb8 f   libucrt:thread.obj
 0001:0003ec2c       ?create_thread_parameter@@YAPEAU__acrt_thread_parameter@@QEAX0@Z 000000018003fc2c f   libucrt:thread.obj
 0001:0003ed6c       ??$common_fsopen@D@@YAPEAU_iobuf@@QEBD0H@Z 000000018003fd6c f   libucrt:fopen.obj
 0001:0003f184       common_flush_all           0000000180040184 f   libucrt:fflush.obj
 0001:0003f2ec       ??R<lambda_532e024f4337e6fc7ad266c2bef9f4ed>@@QEBA_KXZ 00000001800402ec f   libucrt:fwrite.obj
 0001:0003f790       ?atexit_exception_filter@@YAHK@Z 0000000180040790 f   libucrt:exit.obj
 0001:0003f79c       ?common_exit@@YAXHW4_crt_exit_cleanup_mode@@W4_crt_exit_return_mode@@@Z 000000018004079c f   libucrt:exit.obj
 0001:0003f908       ?exit_or_terminate_process@@YAXI@Z 0000000180040908 f   libucrt:exit.obj
 0001:0003f954       ?try_cor_exit_process@@YAXI@Z 0000000180040954 f   libucrt:exit.obj
 0001:0003f9ec       ??$parse_command_line@D@@YAXPEADPEAPEAD0PEA_K2@Z 00000001800409ec f   libucrt:argv_parsing.obj
 0001:0003fd84       ??$common_initialize_environment_nolock@D@@YAHXZ 0000000180040d84 f   libucrt:environment_initialization.obj
 0001:0003fdf0       ??$create_environment@D@@YAQEAPEADQEAD@Z 0000000180040df0 f   libucrt:environment_initialization.obj
 0001:0003feec       ??$free_environment@D@@YAXQEAPEAD@Z 0000000180040eec f   libucrt:environment_initialization.obj
 0001:0003feec       ??$free_environment@_W@@YAXQEAPEA_W@Z 0000000180040eec f   libucrt:environment_initialization.obj
 0001:0003ff30       ??$uninitialize_environment_internal@D@@YAXAEAPEAPEAD@Z 0000000180040f30 f   libucrt:environment_initialization.obj
 0001:0003ff4c       ??$uninitialize_environment_internal@_W@@YAXAEAPEAPEA_W@Z 0000000180040f4c f   libucrt:environment_initialization.obj
 0001:00040184       ??R<lambda_4e60a939b0d047cfe11ddc22648dfba9>@@QEBAHXZ 0000000180041184 f   libucrt:onexit.obj
 0001:00040434       initialize_global_variables 0000000180041434 f   libucrt:initialization.obj
 0001:00040448       initialize_c               0000000180041448 f   libucrt:initialization.obj
 0001:0004046c       uninitialize_environment   000000018004146c f   libucrt:initialization.obj
 0001:0004047c       initialize_pointers        000000018004147c f   libucrt:initialization.obj
 0001:000404d0       uninitialize_vcruntime     00000001800414d0 f   libucrt:initialization.obj
 0001:000404d8       uninitialize_allocated_memory 00000001800414d8 f   libucrt:initialization.obj
 0001:00040568       initialize_environment     0000000180041568 f   libucrt:initialization.obj
 0001:00040568       initialize_global_state_isolation 0000000180041568 f   libucrt:initialization.obj
 0001:00040568       report_memory_leaks        0000000180041568 f   libucrt:initialization.obj
 0001:00040568       uninitialize_c             0000000180041568 f   libucrt:initialization.obj
 0001:00040568       uninitialize_global_state_isolation 0000000180041568 f   libucrt:initialization.obj
 0001:00041248       ??$common_xtox@K_W@@YAHKQEA_W_KI_N@Z 0000000180042248 f   libucrt:xtoa.obj
 0001:000412f4       ??$common_xtox_s@K_W@@YAHKQEA_W_KI_N@Z 00000001800422f4 f   libucrt:xtoa.obj
 0001:000415b8       ??$message_box_wait_thread@_W@@YAKQEAX@Z 00000001800425b8 f   libucrt:crtmbox.obj
 0001:0004173c       ??R<lambda_b721fa326cdb32351d23dfa67958c160>@@QEBAHXZ 000000018004273c f   libucrt:setvbuf.obj
 0001:00041d28       ?construct_ptd_array@@YAXQEAU__acrt_ptd@@@Z 0000000180042d28 f   libucrt:per_thread_data.obj
 0001:00041df8       ?destroy_fls@@YAXPEAX@Z    0000000180042df8 f   libucrt:per_thread_data.obj
 0001:00041e18       ?destroy_ptd_array@@YAXQEAU__acrt_ptd@@@Z 0000000180042e18 f   libucrt:per_thread_data.obj
 0001:00041f10       ?replace_current_thread_locale_nolock@@YAXQEAU__acrt_ptd@@QEAU__crt_locale_data@@@Z 0000000180042f10 f   libucrt:per_thread_data.obj
 0001:00042150       ?internal_isupper_l@@YA_NHQEAU__crt_locale_pointers@@@Z 0000000180043150 f   libucrt:tolower_toupper.obj
 0001:00042b4c       ?fp_format_a@@YAHQEBNPEAD_KQEAD2H_NIQEAU__crt_locale_pointers@@@Z 0000000180043b4c f   libucrt:cvt.obj
 0001:00042eac       ?fp_format_e@@YAHQEBNQEAD_K12H_NIQEAU__crt_locale_pointers@@@Z 0000000180043eac f   libucrt:cvt.obj
 0001:00042f7c       ?fp_format_e_internal@@YAHQEAD_KH_NIQEAU_strflt@@2QEAU__crt_locale_pointers@@@Z 0000000180043f7c f   libucrt:cvt.obj
 0001:00043158       ?fp_format_f_internal@@YAHQEAD_KHQEAU_strflt@@_NQEAU__crt_locale_pointers@@@Z 0000000180044158 f   libucrt:cvt.obj
 0001:000432a0       ?fp_format_g@@YAHQEBNQEAD_K12H_NIQEAU__crt_locale_pointers@@@Z 00000001800442a0 f   libucrt:cvt.obj
 0001:000433d8       ?fp_format_nan_or_infinity@@YAHW4__acrt_fp_class@@_NPEAD_K1@Z 00000001800443d8 f   libucrt:cvt.obj
 0001:00043a40       ?initialize_inherited_file_handles_nolock@@YAXXZ 0000000180044a40 f   libucrt:ioinit.obj
 0001:00043b2c       ?initialize_stdio_handles_nolock@@YAXXZ 0000000180044b2c f   libucrt:ioinit.obj
 0001:00043ca4       ?try_get_function@@YAPEAXW4function_id@?A0x63058377@@QEBDQEBW4module_id@2@2@Z 0000000180044ca4 f   libucrt:winapi_thunks.obj
 0001:0004473c       ?find_or_allocate_unused_stream_nolock@@YA?AV__crt_stdio_stream@@XZ 000000018004573c f   libucrt:stream.obj
 0001:00044ff0       ?write_double_translated_ansi_nolock@@YA?AUwrite_result@?A0x9c548279@@HQEBDI@Z 0000000180045ff0 f   libucrt:write.obj
 0001:000451f8       ?write_text_ansi_nolock@@YA?AUwrite_result@?A0x9c548279@@HQEBDI@Z 00000001800461f8 f   libucrt:write.obj
 0001:00045300       ?write_text_utf16le_nolock@@YA?AUwrite_result@?A0x9c548279@@HQEBDI@Z 0000000180046300 f   libucrt:write.obj
 0001:0004541c       ?write_text_utf8_nolock@@YA?AUwrite_result@?A0x9c548279@@HQEBDI@Z 000000018004641c f   libucrt:write.obj
 0001:00045960       ??$write_buffer_nolock@D@@YA_NDV__crt_stdio_stream@@@Z 0000000180046960 f   libucrt:_flsbuf.obj
 0001:00045a64       ??$write_buffer_nolock@_W@@YA_N_WV__crt_stdio_stream@@@Z 0000000180046a64 f   libucrt:_flsbuf.obj
 0001:00045d44       ?<helper_func_cdecl>@<lambda_2feae5270eb4d0d5532525f423405775>@@CAHPEBX0@Z 0000000180046d44 f   libucrt:argv_wildcards.obj
 0001:00045d58       ??$common_expand_argv_wildcards@D@@YAHQEAPEADQEAPEAPEAD@Z 0000000180046d58 f   libucrt:argv_wildcards.obj
 0001:00045f64       ??$copy_and_add_argument_to_buffer@D@@YAHQEBD0_KAEAV?$argument_list@D@?A0xca0879c4@@@Z 0000000180046f64 f   libucrt:argv_wildcards.obj
 0001:00046074       ??$expand_argument_wildcards@D@@YAHQEAD0AEAV?$argument_list@D@?A0xca0879c4@@@Z 0000000180047074 f   libucrt:argv_wildcards.obj
 0001:00046328       ??R<lambda_ad1ced32f4ac17aa236e5ef05d6b3b7c>@@QEBAXXZ 0000000180047328 f   libucrt:mbctype.obj
 0001:00046540       ?getSystemCP@@YAHH@Z       0000000180047540 f   libucrt:mbctype.obj
 0001:000465c0       ?setSBCS@@YAXPEAU__crt_multibyte_data@@@Z 00000001800475c0 f   libucrt:mbctype.obj
 0001:00046650       ?setSBUpLow@@YAXPEAU__crt_multibyte_data@@@Z 0000000180047650 f   libucrt:mbctype.obj
 0001:00046834       ?setmbcp_internal@@YAHH_N@Z 0000000180047834 f   libucrt:mbctype.obj
 0001:00046d7c       ?x_ismbbtype_l@@YAHPEAU__crt_locale_pointers@@IHH@Z 0000000180047d7c f   libucrt:ismbbyte.obj
 0001:00047754       ?__acrt_LCMapStringA_stat@@YAHPEAU__crt_locale_pointers@@PEB_WKPEBDHPEADHHH@Z 0000000180048754 f   libucrt:lcmapstringa.obj
 0001:00047cc0       ?free_crt_array_internal@@YAXQEAPEBX_K@Z 0000000180048cc0 f   libucrt:inittime.obj
 0001:000498dc       memcpy_s                   000000018004a8dc f   libucrt:cfout.obj
 0001:00049ed0       ?GetTableIndexFromLocaleName@@YAHPEB_W@Z 000000018004aed0 f   libucrt:lcidtoname_downlevel.obj
 0001:00049fd0       $$000000                   000000018004afd0     libucrt:strncmp.obj
 0001:0004a1d4       ??$common_sopen_dispatch@D@@YAHQEBDHHHQEAHH@Z 000000018004b1d4 f   libucrt:open.obj
 0001:0004a2b4       ?configure_text_mode@@YAHHUfile_options@?A0x656cf9f4@@HAEAW4__crt_lowio_text_mode@@@Z 000000018004b2b4 f   libucrt:open.obj
 0001:0004a548       ?decode_options@@YA?AUfile_options@?A0x656cf9f4@@HHH@Z 000000018004b548 f   libucrt:open.obj
 0001:0004a754       ?truncate_ctrl_z_if_present@@YAHH@Z 000000018004b754 f   libucrt:open.obj
 0001:0004accc       ??$common_lseek@_J@@YA_JH_JH@Z 000000018004bccc f   libucrt:lseek.obj
 0001:0004adbc       ??$common_lseek_nolock@_J@@YA_JH_JH@Z 000000018004bdbc f   libucrt:lseek.obj
 0001:0004af30       ?shortsort@@YAXPEAD0_KP6AHPEBX2@Z@Z 000000018004bf30 f   libucrt:qsort.obj
 0001:0004b474       ?initialize_multibyte@@YAHXZ 000000018004c474 f   libucrt:multibyte_initializer.obj
 0001:0004b6f0       $$000000                   000000018004c6f0     libucrt:log10.obj
 0001:0004c020       ??$translate_text_mode_nolock@_W@@YAHHQEA_W_K@Z 000000018004d020 f   libucrt:read.obj
 0001:0004c250       ?translate_ansi_or_utf8_nolock@@YAHHQEAD_KQEA_W1@Z 000000018004d250 f   libucrt:read.obj
 0001:0004cb44       common_control87           000000018004db44 f   libucrt:ieee.obj
 0001:0004cddc       _call_matherr              000000018004dddc f   libucrt:libm_error.obj
 0001:0004ce44       _exception_enabled         000000018004de44 f   libucrt:libm_error.obj
 0001:0004d0e0       _log_special_common        000000018004e0e0 f   libucrt:log_special.obj
 0001:0004d180       $$000000                   000000018004e180     libucrt:fpsr.obj
 0001:0004dea0       $$000000                   000000018004eea0     LIBCMT:_chkstk_.obj
 0001:0004df10       $$000000                   000000018004ef10     libvcruntime:memcmp.obj
 0001:0004e910       ?CatchIt@@YAXPEAUEHExceptionRecord@@PEA_KPEAU_CONTEXT@@PEAU_xDISPATCHER_CONTEXT@@PEBU_s_FuncInfo@@PEBU_s_HandlerType@@PEBU_s_CatchableType@@PEBU_s_TryBlockMapEntry@@H1EE@Z 000000018004f910 f   libvcruntime:frame.obj
 0001:0004e9d4       ?ExFilterRethrow@@YAHPEAU_EXCEPTION_POINTERS@@PEAUEHExceptionRecord@@PEAH@Z 000000018004f9d4 f   libvcruntime:frame.obj
 0001:0004ea5c       ?FindHandler@@YAXPEAUEHExceptionRecord@@PEA_KPEAU_CONTEXT@@PEAU_xDISPATCHER_CONTEXT@@PEBU_s_FuncInfo@@EH1@Z 000000018004fa5c f   libvcruntime:frame.obj
 0001:0004ef2c       ?FindHandlerForForeignException@@YAXPEAUEHExceptionRecord@@PEA_KPEAU_CONTEXT@@PEAU_xDISPATCHER_CONTEXT@@PEBU_s_FuncInfo@@HH1@Z 000000018004ff2c f   libvcruntime:frame.obj
 0001:0004f198       ?IsInExceptionSpec@@YAEPEAUEHExceptionRecord@@PEBU_s_ESTypeList@@@Z 0000000180050198 f   libvcruntime:frame.obj
 0001:0004fcc0       $$000000                   0000000180050cc0     libvcruntime:handlers.obj
 0001:0004fd10       $$000000                   0000000180050d10     LIBCMT:_guard_dispatch_.obj
 0001:0004fd30       ?dtor$0@?0??NewInstance@Nan@@YA?AV?$MaybeLocal@VObject@v8@@@v8@@V?$Local@VFunction@v8@@@3@HQEAV?$Local@VValue@v8@@@3@@Z@4HA 0000000180050d30 f   batch.obj
 0001:0004fd3e       ?dtor$1@?0??NewInstance@Nan@@YA?AV?$MaybeLocal@VObject@v8@@@v8@@V?$Local@VFunction@v8@@@3@HQEAV?$Local@VValue@v8@@@3@@Z@4HA 0000000180050d3e f   batch.obj
 0001:0004fd50       ?dtor$0@?0??NewInstance@Nan@@YA?AV?$MaybeLocal@VObject@v8@@@v8@@V?$Local@VObjectTemplate@v8@@@3@@Z@4HA 0000000180050d50 f   batch.obj
 0001:0004fd50       ?dtor$0@?0??convert@?$ToFactory@VInteger@v8@@@imp@Nan@@SA?AV?$MaybeLocal@VInteger@v8@@@v8@@V?$Local@VValue@v8@@@5@@Z@4HA 0000000180050d50 f   iterator_async.obj
 0001:0004fd5e       ?dtor$1@?0??convert@?$ToFactory@VInteger@v8@@@imp@Nan@@SA?AV?$MaybeLocal@VInteger@v8@@@v8@@V?$Local@VValue@v8@@@5@@Z@4HA 0000000180050d5e f   iterator_async.obj
 0001:0004fd5e       ?dtor$1@?0??NewInstance@Nan@@YA?AV?$MaybeLocal@VObject@v8@@@v8@@V?$Local@VObjectTemplate@v8@@@3@@Z@4HA 0000000180050d5e f   batch.obj
 0001:0004fd70       ?dtor$0@?0??New@?$Factory@VFunctionTemplate@v8@@@imp@Nan@@SA?AV?$Local@VFunctionTemplate@v8@@@v8@@P6AXAEBV?$FunctionCallbackInfo@VValue@v8@@@3@@ZV?$Local@VValue@v8@@@5@V?$Local@VSignature@v8@@@5@@Z@4HA 0000000180050d70 f   batch.obj
 0001:0004fd7e       ?dtor$2@?0??New@?$Factory@VFunctionTemplate@v8@@@imp@Nan@@SA?AV?$Local@VFunctionTemplate@v8@@@v8@@P6AXAEBV?$FunctionCallbackInfo@VValue@v8@@@3@@ZV?$Local@VValue@v8@@@5@V?$Local@VSignature@v8@@@5@@Z@4HA 0000000180050d7e f   batch.obj
 0001:0004fd90       ?dtor$0@?0???1EscapableHandleScope@Nan@@QEAA@XZ@4HA 0000000180050d90 f   batch.obj
 0001:0004fd9e       ?dtor$1@?0???1EscapableHandleScope@Nan@@QEAA@XZ@4HA 0000000180050d9e f   batch.obj
 0001:0004fdb0       ?dtor$1@?0??HandleOKCallback@ApproximateSizeWorker@leveldown@@UEAAXXZ@4HA 0000000180050db0 f   database_async.obj
 0001:0004fdb0       ?dtor$1@?0??SaveToPersistent@AsyncWorker@Nan@@QEAAXPEBDAEBV?$Local@VValue@v8@@@v8@@@Z@4HA 0000000180050db0 f   batch.obj
 0001:0004fdb0       ?dtor$1@?0???0Utf8String@Nan@@QEAA@V?$Local@VValue@v8@@@v8@@@Z@4HA 0000000180050db0 f   database.obj
 0001:0004fdb0       ?dtor$1@?0??HandleErrorCallback@AsyncWorker@Nan@@MEAAXXZ@4HA 0000000180050db0 f   batch_async.obj
 0001:0004fdb0       ?dtor$1@?0??BooleanOptionValue@leveldown@@YA_NV?$Local@VObject@v8@@@v8@@PEBD_N@Z@4HA 0000000180050db0 f   batch.obj
 0001:0004fdb0       ?dtor$1@?0??ThrowError@Nan@@YAXPEBD@Z@4HA 0000000180050db0 f   batch.obj
 0001:0004fdbe       ?dtor$0@?0??HandleErrorCallback@AsyncWorker@Nan@@MEAAXXZ@4HA 0000000180050dbe f   batch_async.obj
 0001:0004fdbe       ?dtor$0@?0??HandleOKCallback@ApproximateSizeWorker@leveldown@@UEAAXXZ@4HA 0000000180050dbe f   database_async.obj
 0001:0004fdbe       ?dtor$0@?0??SaveToPersistent@AsyncWorker@Nan@@QEAAXPEBDAEBV?$Local@VValue@v8@@@v8@@@Z@4HA 0000000180050dbe f   batch.obj
 0001:0004fdbe       ?dtor$0@?0???0Utf8String@Nan@@QEAA@V?$Local@VValue@v8@@@v8@@@Z@4HA 0000000180050dbe f   database.obj
 0001:0004fdbe       ?dtor$0@?0??BooleanOptionValue@leveldown@@YA_NV?$Local@VObject@v8@@@v8@@PEBD_N@Z@4HA 0000000180050dbe f   batch.obj
 0001:0004fdbe       ?dtor$0@?0??ThrowError@Nan@@YAXPEBD@Z@4HA 0000000180050dbe f   batch.obj
 0001:0004fdca       ?dtor$3@?0??HandleErrorCallback@AsyncWorker@Nan@@MEAAXXZ@4HA 0000000180050dca f   batch_async.obj
 0001:0004fdca       ?dtor$2@?0??BooleanOptionValue@leveldown@@YA_NV?$Local@VObject@v8@@@v8@@PEBD_N@Z@4HA 0000000180050dca f   batch.obj
 0001:0004fdca       ?dtor$2@?0??SaveToPersistent@AsyncWorker@Nan@@QEAAXPEBDAEBV?$Local@VValue@v8@@@v8@@@Z@4HA 0000000180050dca f   batch.obj
 0001:0004fdca       ?dtor$2@?0???0Utf8String@Nan@@QEAA@V?$Local@VValue@v8@@@v8@@@Z@4HA 0000000180050dca f   database.obj
 0001:0004fdca       ?dtor$3@?0??HandleOKCallback@ApproximateSizeWorker@leveldown@@UEAAXXZ@4HA 0000000180050dca f   database_async.obj
 0001:0004fdca       ?dtor$2@?0??ThrowError@Nan@@YAXPEBD@Z@4HA 0000000180050dca f   batch.obj
 0001:0004fde0       ?dtor$0@?0???1HandleScope@Nan@@QEAA@XZ@4HA 0000000180050de0 f   batch.obj
 0001:0004fdf0       ?dtor$0@?0???1?$Persistent@VObject@v8@@V?$NonCopyablePersistentTraits@VObject@v8@@@2@@Nan@@QEAA@XZ@4HA 0000000180050df0 f   batch.obj
 0001:0004fdf0       ?dtor$0@?0???1?$Persistent@VFunction@v8@@V?$NonCopyablePersistentTraits@VFunction@v8@@@2@@Nan@@QEAA@XZ@4HA 0000000180050df0 f   batch.obj
 0001:0004fe00       ?dtor$1@?0??SetPrototypeMethod@Nan@@YAXV?$Local@VFunctionTemplate@v8@@@v8@@PEBDP6AXAEBV?$FunctionCallbackInfo@VValue@v8@@@1@@Z@Z@4HA 0000000180050e00 f   batch.obj
 0001:0004fe00       ?dtor$1@?0??UInt32OptionValue@leveldown@@YAIV?$Local@VObject@v8@@@v8@@PEBDI@Z@4HA 0000000180050e00 f   database.obj
 0001:0004fe0e       ?dtor$0@?0??UInt32OptionValue@leveldown@@YAIV?$Local@VObject@v8@@@v8@@PEBDI@Z@4HA 0000000180050e0e f   database.obj
 0001:0004fe0e       ?dtor$0@?0??SetPrototypeMethod@Nan@@YAXV?$Local@VFunctionTemplate@v8@@@v8@@PEBDP6AXAEBV?$FunctionCallbackInfo@VValue@v8@@@1@@Z@Z@4HA 0000000180050e0e f   batch.obj
 0001:0004fe1a       ?dtor$2@?0??UInt32OptionValue@leveldown@@YAIV?$Local@VObject@v8@@@v8@@PEBDI@Z@4HA 0000000180050e1a f   database.obj
 0001:0004fe1a       ?dtor$2@?0??SetPrototypeMethod@Nan@@YAXV?$Local@VFunctionTemplate@v8@@@v8@@PEBDP6AXAEBV?$FunctionCallbackInfo@VValue@v8@@@1@@Z@Z@4HA 0000000180050e1a f   batch.obj
 0001:0004fe30       ?dtor$0@?0???1ObjectWrap@Nan@@UEAA@XZ@4HA 0000000180050e30 f   batch.obj
 0001:0004fe40       ?dtor$1@?0???1ObjectWrap@Nan@@UEAA@XZ@4HA 0000000180050e40 f   batch.obj
 0001:0004fe50       ?dtor$0@?0???__Ebatch_constructor@leveldown@@YAXXZ@4HA 0000000180050e50 f   batch.obj
 0001:0004fe50       ?dtor$0@?0???__Fbatch_constructor@leveldown@@YAXXZ@4HA 0000000180050e50 f   batch.obj
 0001:0004fe60       ?dtor$4@?0???0Batch@leveldown@@QEAA@PEAVDatabase@1@_N@Z@4HA 0000000180050e60 f   batch.obj
 0001:0004fe6c       ?dtor$3@?0???0Batch@leveldown@@QEAA@PEAVDatabase@1@_N@Z@4HA 0000000180050e6c f   batch.obj
 0001:0004fe7c       ?dtor$0@?0???0Batch@leveldown@@QEAA@PEAVDatabase@1@_N@Z@4HA 0000000180050e7c f   batch.obj
 0001:0004fe88       ?dtor$1@?0???0Batch@leveldown@@QEAA@PEAVDatabase@1@_N@Z@4HA 0000000180050e88 f   batch.obj
 0001:0004fea5       ?dtor$2@?0???0Batch@leveldown@@QEAA@PEAVDatabase@1@_N@Z@4HA 0000000180050ea5 f   batch.obj
 0001:0004fed0       ?dtor$0@?0???_GBatch@leveldown@@UEAAPEAXI@Z@4HA 0000000180050ed0 f   batch.obj
 0001:0004fedc       ?dtor$1@?0???_GBatch@leveldown@@UEAAPEAXI@Z@4HA 0000000180050edc f   batch.obj
 0001:0004fef0       ?dtor$0@?0??status@IteratorWrapper@leveldb@@QEBA?AVStatus@2@XZ@4HA 0000000180050ef0 f   leveldb:merger.obj
 0001:0004fef0       ?dtor$0@?0??Flush@WinWritableFile@leveldb@@UEAA?AVStatus@2@XZ@4HA 0000000180050ef0 f   leveldb:env_win.obj
 0001:0004fef0       ?dtor$0@?0??IteratorStatus@Iterator@leveldown@@QEAA?AVStatus@leveldb@@XZ@4HA 0000000180050ef0 f   iterator.obj
 0001:0004fef0       ?dtor$0@?0??status@TableBuilder@leveldb@@QEBA?AVStatus@2@XZ@4HA 0000000180050ef0 f   leveldb:table_builder.obj
 0001:0004fef0       ?dtor$0@?0??Write@Batch@leveldown@@QEAA?AVStatus@leveldb@@XZ@4HA 0000000180050ef0 f   batch.obj
 0001:0004fef0       ?dtor$0@?0??status@MemTableIterator@leveldb@@UEBA?AVStatus@2@XZ@4HA 0000000180050ef0 f   leveldb:memtable.obj
 0001:0004fef0       ?dtor$0@?0??WriteBatchToDatabase@Database@leveldown@@QEAA?AVStatus@leveldb@@PEAUWriteOptions@4@PEAVWriteBatch@4@@Z@4HA 0000000180050ef0 f   database.obj
 0001:0004fef0       ?dtor$0@?0??status@EmptyIterator@?A0xf4b9f651@leveldb@@UEBA?AVStatus@3@XZ@4HA 0000000180050ef0 f   leveldb:iterator.obj
 0001:0004fef0       ?dtor$0@?0??status@DBIter@?A0x82e07e78@leveldb@@UEBA?AVStatus@3@XZ@4HA 0000000180050ef0 f   leveldb:db_iter.obj
 0001:0004fef0       ?dtor$0@?0??status@LevelFileNumIterator@Version@leveldb@@UEBA?AVStatus@3@XZ@4HA 0000000180050ef0 f   leveldb:version_set.obj
 0001:0004fef0       ?dtor$0@?0??Delete@DBImpl@leveldb@@UEAA?AVStatus@2@AEBUWriteOptions@2@AEBVSlice@2@@Z@4HA 0000000180050ef0 f   leveldb:db_impl.obj
 0001:0004fef0       ?dtor$0@?0??status@Iter@Block@leveldb@@UEBA?AVStatus@3@XZ@4HA 0000000180050ef0 f   leveldb:block.obj
 0001:0004fef0       ?dtor$0@?0??Sync@WinWritableFile@leveldb@@UEAA?AVStatus@2@XZ@4HA 0000000180050ef0 f   leveldb:env_win.obj
 0001:0004fef0       ?dtor$0@?0??DeleteFromDatabase@Database@leveldown@@QEAA?AVStatus@leveldb@@PEAUWriteOptions@4@VSlice@4@@Z@4HA 0000000180050ef0 f   database.obj
 0001:0004fef0       ?dtor$0@?0??Skip@WinSequentialFile@leveldb@@UEAA?AVStatus@2@_K@Z@4HA 0000000180050ef0 f   leveldb:env_win.obj
 0001:0004ff20       ?dtor$0@?0??New@Batch@leveldown@@CAXAEBV?$FunctionCallbackInfo@VValue@v8@@@Nan@@@Z@4HA 0000000180050f20 f   batch.obj
 0001:0004ff40       ?dtor$1@?0??NewInstance@Batch@leveldown@@SA?AV?$Local@VValue@v8@@@v8@@V?$Local@VObject@v8@@@4@0@Z@4HA 0000000180050f40 f   batch.obj
 0001:0004ff4e       ?dtor$0@?0??NewInstance@Batch@leveldown@@SA?AV?$Local@VValue@v8@@@v8@@V?$Local@VObject@v8@@@4@0@Z@4HA 0000000180050f4e f   batch.obj
 0001:0004ff5a       ?dtor$4@?0??NewInstance@Batch@leveldown@@SA?AV?$Local@VValue@v8@@@v8@@V?$Local@VObject@v8@@@4@0@Z@4HA 0000000180050f5a f   batch.obj
 0001:0004ff68       ?dtor$5@?0??NewInstance@Batch@leveldown@@SA?AV?$Local@VValue@v8@@@v8@@V?$Local@VObject@v8@@@4@0@Z@4HA 0000000180050f68 f   batch.obj
 0001:0004ff80       ?dtor$0@?0??Write@Batch@leveldown@@CAXAEBV?$FunctionCallbackInfo@VValue@v8@@@Nan@@@Z@4HA 0000000180050f80 f   batch.obj
 0001:0004ffa0       ?dtor$3@?0??Write@Batch@leveldown@@CAXAEBV?$FunctionCallbackInfo@VValue@v8@@@Nan@@@Z@4HA 0000000180050fa0 f   batch.obj
 0001:0004ffac       ?dtor$2@?0??Write@Batch@leveldown@@CAXAEBV?$FunctionCallbackInfo@VValue@v8@@@Nan@@@Z@4HA 0000000180050fac f   batch.obj
 0001:0004ffb8       ?dtor$1@?0??Write@Batch@leveldown@@CAXAEBV?$FunctionCallbackInfo@VValue@v8@@@Nan@@@Z@4HA 0000000180050fb8 f   batch.obj
 0001:0004ffd8       ?dtor$5@?0??Write@Batch@leveldown@@CAXAEBV?$FunctionCallbackInfo@VValue@v8@@@Nan@@@Z@4HA 0000000180050fd8 f   batch.obj
 0001:0004ffe4       ?dtor$6@?0??Write@Batch@leveldown@@CAXAEBV?$FunctionCallbackInfo@VValue@v8@@@Nan@@@Z@4HA 0000000180050fe4 f   batch.obj
 0001:0004fff7       ?dtor$4@?0??Write@Batch@leveldown@@CAXAEBV?$FunctionCallbackInfo@VValue@v8@@@Nan@@@Z@4HA 0000000180050ff7 f   batch.obj
 0001:00050003       ?dtor$8@?0??Write@Batch@leveldown@@CAXAEBV?$FunctionCallbackInfo@VValue@v8@@@Nan@@@Z@4HA 0000000180051003 f   batch.obj
 0001:00050011       ?dtor$7@?0??Write@Batch@leveldown@@CAXAEBV?$FunctionCallbackInfo@VValue@v8@@@Nan@@@Z@4HA 0000000180051011 f   batch.obj
 0001:0005001d       ?dtor$9@?0??Write@Batch@leveldown@@CAXAEBV?$FunctionCallbackInfo@VValue@v8@@@Nan@@@Z@4HA 000000018005101d f   batch.obj
 0001:00050030       ?dtor$0@?0??Call@Callback@Nan@@QEBA?AV?$Local@VValue@v8@@@v8@@HQEAV34@@Z@4HA 0000000180051030 f   batch_async.obj
 0001:0005003e       ?dtor$2@?0??Call@Callback@Nan@@QEBA?AV?$Local@VValue@v8@@@v8@@HQEAV34@@Z@4HA 000000018005103e f   batch_async.obj
 0001:00050050       ?dtor$1@?0??Call_@Callback@Nan@@AEBA?AV?$Local@VValue@v8@@@v8@@PEAVIsolate@4@V?$Local@VObject@v8@@@4@HQEAV34@@Z@4HA 0000000180051050 f   batch_async.obj
 0001:0005005e       ?dtor$0@?0??Call_@Callback@Nan@@AEBA?AV?$Local@VValue@v8@@@v8@@PEAVIsolate@4@V?$Local@VObject@v8@@@4@HQEAV34@@Z@4HA 000000018005105e f   batch_async.obj
 0001:0005006a       ?dtor$2@?0??Call_@Callback@Nan@@AEBA?AV?$Local@VValue@v8@@@v8@@PEAVIsolate@4@V?$Local@VObject@v8@@@4@HQEAV34@@Z@4HA 000000018005106a f   batch_async.obj
 0001:00050078       ?dtor$3@?0??Call_@Callback@Nan@@AEBA?AV?$Local@VValue@v8@@@v8@@PEAVIsolate@4@V?$Local@VObject@v8@@@4@HQEAV34@@Z@4HA 0000000180051078 f   batch_async.obj
 0001:00050090       ?dtor$2@?0???0AsyncWorker@Nan@@QEAA@PEAVCallback@1@@Z@4HA 0000000180051090 f   batch_async.obj
 0001:0005009c       ?dtor$0@?0???0AsyncWorker@Nan@@QEAA@PEAVCallback@1@@Z@4HA 000000018005109c f   batch_async.obj
 0001:000500af       ?dtor$3@?0???0AsyncWorker@Nan@@QEAA@PEAVCallback@1@@Z@4HA 00000001800510af f   batch_async.obj
 0001:000500bd       ?dtor$1@?0???0AsyncWorker@Nan@@QEAA@PEAVCallback@1@@Z@4HA 00000001800510bd f   batch_async.obj
 0001:000500c9       ?dtor$4@?0???0AsyncWorker@Nan@@QEAA@PEAVCallback@1@@Z@4HA 00000001800510c9 f   batch_async.obj
 0001:000500e0       ?dtor$0@?0???1AsyncWorker@Nan@@UEAA@XZ@4HA 00000001800510e0 f   batch_async.obj
 0001:000500f3       ?dtor$2@?0???1AsyncWorker@Nan@@UEAA@XZ@4HA 00000001800510f3 f   batch_async.obj
 0001:00050101       ?dtor$1@?0???1AsyncWorker@Nan@@UEAA@XZ@4HA 0000000180051101 f   batch_async.obj
 0001:0005010d       ?dtor$3@?0???1AsyncWorker@Nan@@UEAA@XZ@4HA 000000018005110d f   batch_async.obj
 0001:00050119       ?dtor$4@?0???1AsyncWorker@Nan@@UEAA@XZ@4HA 0000000180051119 f   batch_async.obj
 0001:00050125       ?dtor$5@?0???1AsyncWorker@Nan@@UEAA@XZ@4HA 0000000180051125 f   batch_async.obj
 0001:00050133       ?dtor$6@?0???1AsyncWorker@Nan@@UEAA@XZ@4HA 0000000180051133 f   batch_async.obj
 0001:00050140       ?dtor$1@?0??WorkComplete@CloseWorker@leveldown@@UEAAXXZ@4HA 0000000180051140 f   database_async.obj
 0001:00050140       ?dtor$1@?0??WorkComplete@AsyncWorker@Nan@@UEAAXXZ@4HA 0000000180051140 f   batch_async.obj
 0001:0005014e       ?dtor$0@?0??WorkComplete@CloseWorker@leveldown@@UEAAXXZ@4HA 000000018005114e f   database_async.obj
 0001:0005014e       ?dtor$0@?0??WorkComplete@AsyncWorker@Nan@@UEAAXXZ@4HA 000000018005114e f   batch_async.obj
 0001:0005015a       ?dtor$2@?0??WorkComplete@AsyncWorker@Nan@@UEAAXXZ@4HA 000000018005115a f   batch_async.obj
 0001:0005015a       ?dtor$2@?0??WorkComplete@CloseWorker@leveldown@@UEAAXXZ@4HA 000000018005115a f   database_async.obj
 0001:00050166       ?dtor$3@?0??WorkComplete@AsyncWorker@Nan@@UEAAXXZ@4HA 0000000180051166 f   batch_async.obj
 0001:00050166       ?dtor$3@?0??WorkComplete@CloseWorker@leveldown@@UEAAXXZ@4HA 0000000180051166 f   database_async.obj
 0001:00050172       ?dtor$4@?0??WorkComplete@CloseWorker@leveldown@@UEAAXXZ@4HA 0000000180051172 f   database_async.obj
 0001:00050172       ?dtor$4@?0??WorkComplete@AsyncWorker@Nan@@UEAAXXZ@4HA 0000000180051172 f   batch_async.obj
 0001:00050180       ?dtor$1@?0??HandleOKCallback@CompactRangeWorker@leveldown@@UEAAXXZ@4HA 0000000180051180 f   database_async.obj
 0001:00050180       ?dtor$1@?0??HandleOKCallback@AsyncWorker@Nan@@MEAAXXZ@4HA 0000000180051180 f   batch_async.obj
 0001:0005018e       ?dtor$0@?0??HandleOKCallback@AsyncWorker@Nan@@MEAAXXZ@4HA 000000018005118e f   batch_async.obj
 0001:0005018e       ?dtor$0@?0??HandleOKCallback@CompactRangeWorker@leveldown@@UEAAXXZ@4HA 000000018005118e f   database_async.obj
 0001:0005019a       ?dtor$3@?0??HandleOKCallback@CompactRangeWorker@leveldown@@UEAAXXZ@4HA 000000018005119a f   database_async.obj
 0001:0005019a       ?dtor$3@?0??HandleOKCallback@AsyncWorker@Nan@@MEAAXXZ@4HA 000000018005119a f   batch_async.obj
 0001:000501b0       ?dtor$0@?0??SetStatus@AsyncWorker@leveldown@@IEAAXVStatus@leveldb@@@Z@4HA 00000001800511b0 f   batch_async.obj
 0001:000501bc       ?dtor$1@?0??SetStatus@AsyncWorker@leveldown@@IEAAXVStatus@leveldb@@@Z@4HA 00000001800511bc f   batch_async.obj
 0001:000501d0       ?dtor$0@?0???_GAsyncWorker@leveldown@@UEAAPEAXI@Z@4HA 00000001800511d0 f   batch_async.obj
 0001:000501d0       ?dtor$0@?0???1AsyncWorker@leveldown@@UEAA@XZ@4HA 00000001800511d0 f   batch_async.obj
 0001:000501dc       ?dtor$1@?0???_GAsyncWorker@leveldown@@UEAAPEAXI@Z@4HA 00000001800511dc f   batch_async.obj
 0001:000501dc       ?dtor$1@?0???1AsyncWorker@leveldown@@UEAA@XZ@4HA 00000001800511dc f   batch_async.obj
 0001:000501f0       ?dtor$0@?0???1IOWorker@leveldown@@UEAA@XZ@4HA 00000001800511f0 f   database_async.obj
 0001:000501f0       ?dtor$0@?0???_GApproximateSizeWorker@leveldown@@UEAAPEAXI@Z@4HA 00000001800511f0 f   database_async.obj
 0001:000501f0       ?dtor$0@?0???_GCloseWorker@leveldown@@UEAAPEAXI@Z@4HA 00000001800511f0 f   database_async.obj
 0001:000501f0       ?dtor$0@?0???_GCompactRangeWorker@leveldown@@UEAAPEAXI@Z@4HA 00000001800511f0 f   database_async.obj
 0001:000501f0       ?dtor$0@?0???_GBatchWriteWorker@leveldown@@UEAAPEAXI@Z@4HA 00000001800511f0 f   batch_async.obj
 0001:000501f0       ?dtor$0@?0???_GIOWorker@leveldown@@UEAAPEAXI@Z@4HA 00000001800511f0 f   database_async.obj
 0001:000501f0       ?dtor$0@?0???_GOpenWorker@leveldown@@UEAAPEAXI@Z@4HA 00000001800511f0 f   database_async.obj
 0001:000501f0       ?dtor$0@?0???_GEndWorker@leveldown@@UEAAPEAXI@Z@4HA 00000001800511f0 f   iterator_async.obj
 0001:000501f0       ?dtor$0@?0???1DestroyWorker@leveldown@@UEAA@XZ@4HA 00000001800511f0 f   leveldown_async.obj
 0001:000501f0       ?dtor$0@?0???1RepairWorker@leveldown@@UEAA@XZ@4HA 00000001800511f0 f   leveldown_async.obj
 0001:000501fc       ?dtor$1@?0???_GIOWorker@leveldown@@UEAAPEAXI@Z@4HA 00000001800511fc f   database_async.obj
 0001:000501fc       ?dtor$1@?0???_GApproximateSizeWorker@leveldown@@UEAAPEAXI@Z@4HA 00000001800511fc f   database_async.obj
 0001:000501fc       ?dtor$1@?0???_GOpenWorker@leveldown@@UEAAPEAXI@Z@4HA 00000001800511fc f   database_async.obj
 0001:000501fc       ?dtor$1@?0???_GCloseWorker@leveldown@@UEAAPEAXI@Z@4HA 00000001800511fc f   database_async.obj
 0001:000501fc       ?dtor$1@?0???1IOWorker@leveldown@@UEAA@XZ@4HA 00000001800511fc f   database_async.obj
 0001:000501fc       ?dtor$1@?0???1RepairWorker@leveldown@@UEAA@XZ@4HA 00000001800511fc f   leveldown_async.obj
 0001:000501fc       ?dtor$1@?0???_GBatchWriteWorker@leveldown@@UEAAPEAXI@Z@4HA 00000001800511fc f   batch_async.obj
 0001:000501fc       ?dtor$1@?0???1DestroyWorker@leveldown@@UEAA@XZ@4HA 00000001800511fc f   leveldown_async.obj
 0001:000501fc       ?dtor$1@?0???_GCompactRangeWorker@leveldown@@UEAAPEAXI@Z@4HA 00000001800511fc f   database_async.obj
 0001:000501fc       ?dtor$1@?0???_GEndWorker@leveldown@@UEAAPEAXI@Z@4HA 00000001800511fc f   iterator_async.obj
 0001:00050208       ?dtor$2@?0???_GCompactRangeWorker@leveldown@@UEAAPEAXI@Z@4HA 0000000180051208 f   database_async.obj
 0001:00050208       ?dtor$2@?0???_GApproximateSizeWorker@leveldown@@UEAAPEAXI@Z@4HA 0000000180051208 f   database_async.obj
 0001:00050208       ?dtor$2@?0???1IOWorker@leveldown@@UEAA@XZ@4HA 0000000180051208 f   database_async.obj
 0001:00050208       ?dtor$2@?0???1DestroyWorker@leveldown@@UEAA@XZ@4HA 0000000180051208 f   leveldown_async.obj
 0001:00050208       ?dtor$2@?0???_GBatchWriteWorker@leveldown@@UEAAPEAXI@Z@4HA 0000000180051208 f   batch_async.obj
 0001:00050208       ?dtor$2@?0???_GIOWorker@leveldown@@UEAAPEAXI@Z@4HA 0000000180051208 f   database_async.obj
 0001:00050208       ?dtor$2@?0???_GOpenWorker@leveldown@@UEAAPEAXI@Z@4HA 0000000180051208 f   database_async.obj
 0001:00050208       ?dtor$2@?0???_GEndWorker@leveldown@@UEAAPEAXI@Z@4HA 0000000180051208 f   iterator_async.obj
 0001:00050208       ?dtor$2@?0???_GCloseWorker@leveldown@@UEAAPEAXI@Z@4HA 0000000180051208 f   database_async.obj
 0001:00050208       ?dtor$2@?0???1RepairWorker@leveldown@@UEAA@XZ@4HA 0000000180051208 f   leveldown_async.obj
 0001:00050220       ?dtor$0@?0??Execute@BatchWorker@leveldown@@UEAAXXZ@4HA 0000000180051220 f   database_async.obj
 0001:00050220       ?dtor$0@?0??Execute@OpenWorker@leveldown@@UEAAXXZ@4HA 0000000180051220 f   database_async.obj
 0001:00050220       ?dtor$0@?0??Execute@BatchWriteWorker@leveldown@@UEAAXXZ@4HA 0000000180051220 f   batch_async.obj
 0001:00050220       ?dtor$0@?0??Execute@NextWorker@leveldown@@UEAAXXZ@4HA 0000000180051220 f   iterator_async.obj
 0001:00050230       ?dtor$0@?0???__Edatabase_constructor@leveldown@@YAXXZ@4HA 0000000180051230 f   database.obj
 0001:00050230       ?dtor$0@?0???__Fdatabase_constructor@leveldown@@YAXXZ@4HA 0000000180051230 f   database.obj
 0001:00050240       ?dtor$4@?0???0Database@leveldown@@QEAA@AEBV?$Local@VValue@v8@@@v8@@@Z@4HA 0000000180051240 f   database.obj
 0001:0005024c       ?dtor$3@?0???0Database@leveldown@@QEAA@AEBV?$Local@VValue@v8@@@v8@@@Z@4HA 000000018005124c f   database.obj
 0001:0005025c       ?dtor$0@?0???0Database@leveldown@@QEAA@AEBV?$Local@VValue@v8@@@v8@@@Z@4HA 000000018005125c f   database.obj
 0001:00050268       ?dtor$1@?0???0Database@leveldown@@QEAA@AEBV?$Local@VValue@v8@@@v8@@@Z@4HA 0000000180051268 f   database.obj
 0001:00050285       ?dtor$6@?0???0Database@leveldown@@QEAA@AEBV?$Local@VValue@v8@@@v8@@@Z@4HA 0000000180051285 f   database.obj
 0001:00050291       ?dtor$5@?0???0Database@leveldown@@QEAA@AEBV?$Local@VValue@v8@@@v8@@@Z@4HA 0000000180051291 f   database.obj
 0001:0005029d       ?dtor$2@?0???0Database@leveldown@@QEAA@AEBV?$Local@VValue@v8@@@v8@@@Z@4HA 000000018005129d f   database.obj
 0001:000502b0       ?dtor$0@?0???1?$set@_KU?$less@_K@std@@V?$allocator@_K@2@@std@@QEAA@XZ@4HA 00000001800512b0 f   leveldb:db_impl.obj
 0001:000502b0       ?dtor$0@?0???1?$map@IPEAVIterator@leveldown@@U?$less@I@std@@V?$allocator@U?$pair@$$CBIPEAVIterator@leveldown@@@std@@@4@@std@@QEAA@XZ@4HA 00000001800512b0 f   database.obj
 0001:000502bc       ?dtor$1@?0???1?$map@IPEAVIterator@leveldown@@U?$less@I@std@@V?$allocator@U?$pair@$$CBIPEAVIterator@leveldown@@@std@@@4@@std@@QEAA@XZ@4HA 00000001800512bc f   database.obj
 0001:000502bc       ?dtor$1@?0???1?$set@_KU?$less@_K@std@@V?$allocator@_K@2@@std@@QEAA@XZ@4HA 00000001800512bc f   leveldb:db_impl.obj
 0001:000502d0       ?dtor$0@?0???1Database@leveldown@@UEAA@XZ@4HA 00000001800512d0 f   database.obj
 0001:000502dc       ?dtor$1@?0???1Database@leveldown@@UEAA@XZ@4HA 00000001800512dc f   database.obj
 0001:000502ec       ?dtor$2@?0???1Database@leveldown@@UEAA@XZ@4HA 00000001800512ec f   database.obj
 0001:000502f8       ?dtor$3@?0???1Database@leveldown@@UEAA@XZ@4HA 00000001800512f8 f   database.obj
 0001:00050310       ?dtor$0@?0??OpenDatabase@Database@leveldown@@QEAA?AVStatus@leveldb@@PEAUOptions@4@@Z@4HA 0000000180051310 f   database.obj
 0001:0005031c       ?dtor$1@?0??OpenDatabase@Database@leveldown@@QEAA?AVStatus@leveldb@@PEAUOptions@4@@Z@4HA 000000018005131c f   database.obj
 0001:00050350       ?dtor$0@?0??Put@DBImpl@leveldb@@UEAA?AVStatus@2@AEBUWriteOptions@2@AEBVSlice@2@1@Z@4HA 0000000180051350 f   leveldb:db_impl.obj
 0001:00050350       ?dtor$0@?0??GetFromDatabase@Database@leveldown@@QEAA?AVStatus@leveldb@@PEAUReadOptions@4@VSlice@4@AEAV?$basic_string@DU?$char_traits@D@std@@V?$allocator@D@2@@std@@@Z@4HA 0000000180051350 f   database.obj
 0001:00050350       ?dtor$0@?0??PutToDatabase@Database@leveldown@@QEAA?AVStatus@leveldb@@PEAUWriteOptions@4@VSlice@4@1@Z@4HA 0000000180051350 f   database.obj
 0001:00050380       ?dtor$0@?0??New@Database@leveldown@@CAXAEBV?$FunctionCallbackInfo@VValue@v8@@@Nan@@@Z@4HA 0000000180051380 f   database.obj
 0001:000503a0       ?dtor$1@?0??NewInstance@Database@leveldown@@SA?AV?$Local@VValue@v8@@@v8@@AEAV?$Local@VString@v8@@@4@@Z@4HA 00000001800513a0 f   database.obj
 0001:000503ae       ?dtor$0@?0??NewInstance@Database@leveldown@@SA?AV?$Local@VValue@v8@@@v8@@AEAV?$Local@VString@v8@@@4@@Z@4HA 00000001800513ae f   database.obj
 0001:000503ba       ?dtor$3@?0??NewInstance@Database@leveldown@@SA?AV?$Local@VValue@v8@@@v8@@AEAV?$Local@VString@v8@@@4@@Z@4HA 00000001800513ba f   database.obj
 0001:000503c8       ?dtor$4@?0??NewInstance@Database@leveldown@@SA?AV?$Local@VValue@v8@@@v8@@AEAV?$Local@VString@v8@@@4@@Z@4HA 00000001800513c8 f   database.obj
 0001:000503e0       ?dtor$2@?0??Open@Database@leveldown@@CAXAEBV?$FunctionCallbackInfo@VValue@v8@@@Nan@@@Z@4HA 00000001800513e0 f   database.obj
 0001:00050400       ?dtor$0@?0??Open@Database@leveldown@@CAXAEBV?$FunctionCallbackInfo@VValue@v8@@@Nan@@@Z@4HA 0000000180051400 f   database.obj
 0001:00050420       ?dtor$1@?0??Open@Database@leveldown@@CAXAEBV?$FunctionCallbackInfo@VValue@v8@@@Nan@@@Z@4HA 0000000180051420 f   database.obj
 0001:00050440       ?dtor$4@?0??Open@Database@leveldown@@CAXAEBV?$FunctionCallbackInfo@VValue@v8@@@Nan@@@Z@4HA 0000000180051440 f   database.obj
 0001:0005044c       ?dtor$3@?0??Open@Database@leveldown@@CAXAEBV?$FunctionCallbackInfo@VValue@v8@@@Nan@@@Z@4HA 000000018005144c f   database.obj
 0001:00050458       ?dtor$6@?0??Open@Database@leveldown@@CAXAEBV?$FunctionCallbackInfo@VValue@v8@@@Nan@@@Z@4HA 0000000180051458 f   database.obj
 0001:00050466       ?dtor$5@?0??Open@Database@leveldown@@CAXAEBV?$FunctionCallbackInfo@VValue@v8@@@Nan@@@Z@4HA 0000000180051466 f   database.obj
 0001:00050472       ?dtor$7@?0??Open@Database@leveldown@@CAXAEBV?$FunctionCallbackInfo@VValue@v8@@@Nan@@@Z@4HA 0000000180051472 f   database.obj
 0001:00050480       ?dtor$0@?0??Close@Database@leveldown@@CAXAEBV?$FunctionCallbackInfo@VValue@v8@@@Nan@@@Z@4HA 0000000180051480 f   database.obj
 0001:000504a0       ?dtor$1@?0??Close@Database@leveldown@@CAXAEBV?$FunctionCallbackInfo@VValue@v8@@@Nan@@@Z@4HA 00000001800514a0 f   database.obj
 0001:000504c0       ?dtor$3@?0??Close@Database@leveldown@@CAXAEBV?$FunctionCallbackInfo@VValue@v8@@@Nan@@@Z@4HA 00000001800514c0 f   database.obj
 0001:000504cc       ?dtor$2@?0??Close@Database@leveldown@@CAXAEBV?$FunctionCallbackInfo@VValue@v8@@@Nan@@@Z@4HA 00000001800514cc f   database.obj
 0001:000504d8       ?dtor$5@?0??Close@Database@leveldown@@CAXAEBV?$FunctionCallbackInfo@VValue@v8@@@Nan@@@Z@4HA 00000001800514d8 f   database.obj
 0001:000504e4       ?dtor$6@?0??Close@Database@leveldown@@CAXAEBV?$FunctionCallbackInfo@VValue@v8@@@Nan@@@Z@4HA 00000001800514e4 f   database.obj
 0001:000504f7       ?dtor$4@?0??Close@Database@leveldown@@CAXAEBV?$FunctionCallbackInfo@VValue@v8@@@Nan@@@Z@4HA 00000001800514f7 f   database.obj
 0001:00050503       ?dtor$8@?0??Close@Database@leveldown@@CAXAEBV?$FunctionCallbackInfo@VValue@v8@@@Nan@@@Z@4HA 0000000180051503 f   database.obj
 0001:00050511       ?dtor$7@?0??Close@Database@leveldown@@CAXAEBV?$FunctionCallbackInfo@VValue@v8@@@Nan@@@Z@4HA 0000000180051511 f   database.obj
 0001:0005051d       ?dtor$9@?0??Close@Database@leveldown@@CAXAEBV?$FunctionCallbackInfo@VValue@v8@@@Nan@@@Z@4HA 000000018005151d f   database.obj
 0001:00050530       ?dtor$0@?0??Put@Database@leveldown@@CAXAEBV?$FunctionCallbackInfo@VValue@v8@@@Nan@@@Z@4HA 0000000180051530 f   database.obj
 0001:00050550       ?dtor$1@?0??Put@Database@leveldown@@CAXAEBV?$FunctionCallbackInfo@VValue@v8@@@Nan@@@Z@4HA 0000000180051550 f   database.obj
 0001:00050570       ?dtor$3@?0??Put@Database@leveldown@@CAXAEBV?$FunctionCallbackInfo@VValue@v8@@@Nan@@@Z@4HA 0000000180051570 f   database.obj
 0001:0005057c       ?dtor$2@?0??Put@Database@leveldown@@CAXAEBV?$FunctionCallbackInfo@VValue@v8@@@Nan@@@Z@4HA 000000018005157c f   database.obj
 0001:00050588       ?dtor$4@?0??Put@Database@leveldown@@CAXAEBV?$FunctionCallbackInfo@VValue@v8@@@Nan@@@Z@4HA 0000000180051588 f   database.obj
 0001:00050594       ?dtor$6@?0??Put@Database@leveldown@@CAXAEBV?$FunctionCallbackInfo@VValue@v8@@@Nan@@@Z@4HA 0000000180051594 f   database.obj
 0001:000505a2       ?dtor$5@?0??Put@Database@leveldown@@CAXAEBV?$FunctionCallbackInfo@VValue@v8@@@Nan@@@Z@4HA 00000001800515a2 f   database.obj
 0001:000505ae       ?dtor$8@?0??Put@Database@leveldown@@CAXAEBV?$FunctionCallbackInfo@VValue@v8@@@Nan@@@Z@4HA 00000001800515ae f   database.obj
 0001:000505bc       ?dtor$7@?0??Put@Database@leveldown@@CAXAEBV?$FunctionCallbackInfo@VValue@v8@@@Nan@@@Z@4HA 00000001800515bc f   database.obj
 0001:000505c8       ?dtor$9@?0??Put@Database@leveldown@@CAXAEBV?$FunctionCallbackInfo@VValue@v8@@@Nan@@@Z@4HA 00000001800515c8 f   database.obj
 0001:000505d6       ?dtor$10@?0??Put@Database@leveldown@@CAXAEBV?$FunctionCallbackInfo@VValue@v8@@@Nan@@@Z@4HA 00000001800515d6 f   database.obj
 0001:000505e4       ?dtor$12@?0??Put@Database@leveldown@@CAXAEBV?$FunctionCallbackInfo@VValue@v8@@@Nan@@@Z@4HA 00000001800515e4 f   database.obj
 0001:000505f2       ?dtor$11@?0??Put@Database@leveldown@@CAXAEBV?$FunctionCallbackInfo@VValue@v8@@@Nan@@@Z@4HA 00000001800515f2 f   database.obj
 0001:000505fe       ?dtor$13@?0??Put@Database@leveldown@@CAXAEBV?$FunctionCallbackInfo@VValue@v8@@@Nan@@@Z@4HA 00000001800515fe f   database.obj
 0001:00050610       ?dtor$0@?0??Get@Database@leveldown@@CAXAEBV?$FunctionCallbackInfo@VValue@v8@@@Nan@@@Z@4HA 0000000180051610 f   database.obj
 0001:00050630       ?dtor$1@?0??Get@Database@leveldown@@CAXAEBV?$FunctionCallbackInfo@VValue@v8@@@Nan@@@Z@4HA 0000000180051630 f   database.obj
 0001:00050650       ?dtor$3@?0??Get@Database@leveldown@@CAXAEBV?$FunctionCallbackInfo@VValue@v8@@@Nan@@@Z@4HA 0000000180051650 f   database.obj
 0001:0005065c       ?dtor$2@?0??Get@Database@leveldown@@CAXAEBV?$FunctionCallbackInfo@VValue@v8@@@Nan@@@Z@4HA 000000018005165c f   database.obj
 0001:00050668       ?dtor$5@?0??Get@Database@leveldown@@CAXAEBV?$FunctionCallbackInfo@VValue@v8@@@Nan@@@Z@4HA 0000000180051668 f   database.obj
 0001:00050676       ?dtor$4@?0??Get@Database@leveldown@@CAXAEBV?$FunctionCallbackInfo@VValue@v8@@@Nan@@@Z@4HA 0000000180051676 f   database.obj
 0001:00050682       ?dtor$6@?0??Get@Database@leveldown@@CAXAEBV?$FunctionCallbackInfo@VValue@v8@@@Nan@@@Z@4HA 0000000180051682 f   database.obj
 0001:00050690       ?dtor$0@?0??Delete@Database@leveldown@@CAXAEBV?$FunctionCallbackInfo@VValue@v8@@@Nan@@@Z@4HA 0000000180051690 f   database.obj
 0001:000506b0       ?dtor$1@?0??Delete@Database@leveldown@@CAXAEBV?$FunctionCallbackInfo@VValue@v8@@@Nan@@@Z@4HA 00000001800516b0 f   database.obj
 0001:000506d0       ?dtor$3@?0??Delete@Database@leveldown@@CAXAEBV?$FunctionCallbackInfo@VValue@v8@@@Nan@@@Z@4HA 00000001800516d0 f   database.obj
 0001:000506dc       ?dtor$2@?0??Delete@Database@leveldown@@CAXAEBV?$FunctionCallbackInfo@VValue@v8@@@Nan@@@Z@4HA 00000001800516dc f   database.obj
 0001:000506e8       ?dtor$5@?0??Delete@Database@leveldown@@CAXAEBV?$FunctionCallbackInfo@VValue@v8@@@Nan@@@Z@4HA 00000001800516e8 f   database.obj
 0001:000506f6       ?dtor$4@?0??Delete@Database@leveldown@@CAXAEBV?$FunctionCallbackInfo@VValue@v8@@@Nan@@@Z@4HA 00000001800516f6 f   database.obj
 0001:00050702       ?dtor$6@?0??Delete@Database@leveldown@@CAXAEBV?$FunctionCallbackInfo@VValue@v8@@@Nan@@@Z@4HA 0000000180051702 f   database.obj
 0001:00050710       ?dtor$0@?0??Batch@Database@leveldown@@CAXAEBV?$FunctionCallbackInfo@VValue@v8@@@Nan@@@Z@4HA 0000000180051710 f   database.obj
 0001:00050730       ?dtor$1@?0??Batch@Database@leveldown@@CAXAEBV?$FunctionCallbackInfo@VValue@v8@@@Nan@@@Z@4HA 0000000180051730 f   database.obj
 0001:00050750       ?dtor$2@?0??Batch@Database@leveldown@@CAXAEBV?$FunctionCallbackInfo@VValue@v8@@@Nan@@@Z@4HA 0000000180051750 f   database.obj
 0001:00050770       ?dtor$4@?0??Batch@Database@leveldown@@CAXAEBV?$FunctionCallbackInfo@VValue@v8@@@Nan@@@Z@4HA 0000000180051770 f   database.obj
 0001:0005077c       ?dtor$3@?0??Batch@Database@leveldown@@CAXAEBV?$FunctionCallbackInfo@VValue@v8@@@Nan@@@Z@4HA 000000018005177c f   database.obj
 0001:00050788       ?dtor$6@?0??Batch@Database@leveldown@@CAXAEBV?$FunctionCallbackInfo@VValue@v8@@@Nan@@@Z@4HA 0000000180051788 f   database.obj
 0001:00050796       ?dtor$5@?0??Batch@Database@leveldown@@CAXAEBV?$FunctionCallbackInfo@VValue@v8@@@Nan@@@Z@4HA 0000000180051796 f   database.obj
 0001:000507a2       ?dtor$7@?0??Batch@Database@leveldown@@CAXAEBV?$FunctionCallbackInfo@VValue@v8@@@Nan@@@Z@4HA 00000001800517a2 f   database.obj
 0001:000507b0       ?dtor$0@?0??ApproximateSize@Database@leveldown@@CAXAEBV?$FunctionCallbackInfo@VValue@v8@@@Nan@@@Z@4HA 00000001800517b0 f   database.obj
 0001:000507d0       ?dtor$1@?0??ApproximateSize@Database@leveldown@@CAXAEBV?$FunctionCallbackInfo@VValue@v8@@@Nan@@@Z@4HA 00000001800517d0 f   database.obj
 0001:000507f0       ?dtor$3@?0??ApproximateSize@Database@leveldown@@CAXAEBV?$FunctionCallbackInfo@VValue@v8@@@Nan@@@Z@4HA 00000001800517f0 f   database.obj
 0001:000507fc       ?dtor$2@?0??ApproximateSize@Database@leveldown@@CAXAEBV?$FunctionCallbackInfo@VValue@v8@@@Nan@@@Z@4HA 00000001800517fc f   database.obj
 0001:00050808       ?dtor$5@?0??ApproximateSize@Database@leveldown@@CAXAEBV?$FunctionCallbackInfo@VValue@v8@@@Nan@@@Z@4HA 0000000180051808 f   database.obj
 0001:00050816       ?dtor$4@?0??ApproximateSize@Database@leveldown@@CAXAEBV?$FunctionCallbackInfo@VValue@v8@@@Nan@@@Z@4HA 0000000180051816 f   database.obj
 0001:00050822       ?dtor$6@?0??ApproximateSize@Database@leveldown@@CAXAEBV?$FunctionCallbackInfo@VValue@v8@@@Nan@@@Z@4HA 0000000180051822 f   database.obj
 0001:00050830       ?dtor$0@?0??CompactRange@Database@leveldown@@CAXAEBV?$FunctionCallbackInfo@VValue@v8@@@Nan@@@Z@4HA 0000000180051830 f   database.obj
 0001:00050850       ?dtor$1@?0??CompactRange@Database@leveldown@@CAXAEBV?$FunctionCallbackInfo@VValue@v8@@@Nan@@@Z@4HA 0000000180051850 f   database.obj
 0001:00050870       ?dtor$3@?0??CompactRange@Database@leveldown@@CAXAEBV?$FunctionCallbackInfo@VValue@v8@@@Nan@@@Z@4HA 0000000180051870 f   database.obj
 0001:0005087c       ?dtor$2@?0??CompactRange@Database@leveldown@@CAXAEBV?$FunctionCallbackInfo@VValue@v8@@@Nan@@@Z@4HA 000000018005187c f   database.obj
 0001:00050888       ?dtor$5@?0??CompactRange@Database@leveldown@@CAXAEBV?$FunctionCallbackInfo@VValue@v8@@@Nan@@@Z@4HA 0000000180051888 f   database.obj
 0001:00050896       ?dtor$4@?0??CompactRange@Database@leveldown@@CAXAEBV?$FunctionCallbackInfo@VValue@v8@@@Nan@@@Z@4HA 0000000180051896 f   database.obj
 0001:000508a2       ?dtor$6@?0??CompactRange@Database@leveldown@@CAXAEBV?$FunctionCallbackInfo@VValue@v8@@@Nan@@@Z@4HA 00000001800518a2 f   database.obj
 0001:000508b0       ?dtor$0@?0??GetProperty@Database@leveldown@@CAXAEBV?$FunctionCallbackInfo@VValue@v8@@@Nan@@@Z@4HA 00000001800518b0 f   database.obj
 0001:000508d0       ?dtor$1@?0??Iterator@Database@leveldown@@CAXAEBV?$FunctionCallbackInfo@VValue@v8@@@Nan@@@Z@4HA 00000001800518d0 f   database.obj
 0001:000508de       ?dtor$0@?0??Iterator@Database@leveldown@@CAXAEBV?$FunctionCallbackInfo@VValue@v8@@@Nan@@@Z@4HA 00000001800518de f   database.obj
 0001:000508ea       ?dtor$2@?0??Iterator@Database@leveldown@@CAXAEBV?$FunctionCallbackInfo@VValue@v8@@@Nan@@@Z@4HA 00000001800518ea f   database.obj
 0001:000508f8       ?dtor$3@?0??Iterator@Database@leveldown@@CAXAEBV?$FunctionCallbackInfo@VValue@v8@@@Nan@@@Z@4HA 00000001800518f8 f   database.obj
 0001:00050910       ?dtor$0@?0???1TryCatch@Nan@@QEAA@XZ@4HA 0000000180051910 f   database.obj
 0001:00050920       ?dtor$0@?0???1?$_Tree@V?$_Tset_traits@_KU?$less@_K@std@@V?$allocator@_K@2@$0A@@std@@@std@@QEAA@XZ@4HA 0000000180051920 f   leveldb:db_impl.obj
 0001:00050920       ?dtor$0@?0???1?$_Tree@V?$_Tset_traits@U?$pair@H_K@std@@U?$less@U?$pair@H_K@std@@@2@V?$allocator@U?$pair@H_K@std@@@2@$0A@@std@@@std@@QEAA@XZ@4HA 0000000180051920 f   leveldb:db_impl.obj
 0001:00050920       ?dtor$0@?0???1?$_Tree@V?$_Tmap_traits@IPEAVIterator@leveldown@@U?$less@I@std@@V?$allocator@U?$pair@$$CBIPEAVIterator@leveldown@@@std@@@4@$0A@@std@@@std@@QEAA@XZ@4HA 0000000180051920 f   database.obj
 0001:00050930       ?dtor$0@?0???A?$map@IPEAVIterator@leveldown@@U?$less@I@std@@V?$allocator@U?$pair@$$CBIPEAVIterator@leveldown@@@std@@@4@@std@@QEAAAEAPEAVIterator@leveldown@@AEBI@Z@4HA 0000000180051930 f   database.obj
 0001:00050950       ?dtor$1@?0??GetFromPersistent@AsyncWorker@Nan@@QEBA?AV?$Local@VValue@v8@@@v8@@PEBD@Z@4HA 0000000180051950 f   database_async.obj
 0001:0005095e       ?dtor$0@?0??GetFromPersistent@AsyncWorker@Nan@@QEBA?AV?$Local@VValue@v8@@@v8@@PEBD@Z@4HA 000000018005195e f   database_async.obj
 0001:0005096a       ?dtor$2@?0??GetFromPersistent@AsyncWorker@Nan@@QEBA?AV?$Local@VValue@v8@@@v8@@PEBD@Z@4HA 000000018005196a f   database_async.obj
 0001:00050978       ?dtor$3@?0??GetFromPersistent@AsyncWorker@Nan@@QEBA?AV?$Local@VValue@v8@@@v8@@PEBD@Z@4HA 0000000180051978 f   database_async.obj
 0001:00050990       ?dtor$2@?0???0OpenWorker@leveldown@@QEAA@PEAVDatabase@1@PEAVCallback@Nan@@PEAVCache@leveldb@@PEBVFilterPolicy@6@_N44IIIII@Z@4HA 0000000180051990 f   database_async.obj
 0001:0005099c       ?dtor$3@?0???0OpenWorker@leveldown@@QEAA@PEAVDatabase@1@PEAVCallback@Nan@@PEAVCache@leveldb@@PEBVFilterPolicy@6@_N44IIIII@Z@4HA 000000018005199c f   database_async.obj
 0001:000509af       ?dtor$0@?0???0OpenWorker@leveldown@@QEAA@PEAVDatabase@1@PEAVCallback@Nan@@PEAVCache@leveldb@@PEBVFilterPolicy@6@_N44IIIII@Z@4HA 00000001800519af f   database_async.obj
 0001:000509bb       ?dtor$1@?0???0OpenWorker@leveldown@@QEAA@PEAVDatabase@1@PEAVCallback@Nan@@PEAVCache@leveldb@@PEBVFilterPolicy@6@_N44IIIII@Z@4HA 00000001800519bb f   database_async.obj
 0001:000509e0       ?dtor$2@?0???0IOWorker@leveldown@@QEAA@PEAVDatabase@1@PEAVCallback@Nan@@VSlice@leveldb@@AEAV?$Local@VObject@v8@@@v8@@@Z@4HA 00000001800519e0 f   database_async.obj
 0001:000509ec       ?dtor$3@?0???0IOWorker@leveldown@@QEAA@PEAVDatabase@1@PEAVCallback@Nan@@VSlice@leveldb@@AEAV?$Local@VObject@v8@@@v8@@@Z@4HA 00000001800519ec f   database_async.obj
 0001:000509ff       ?dtor$0@?0???0IOWorker@leveldown@@QEAA@PEAVDatabase@1@PEAVCallback@Nan@@VSlice@leveldb@@AEAV?$Local@VObject@v8@@@v8@@@Z@4HA 00000001800519ff f   database_async.obj
 0001:00050a0b       ?dtor$4@?0???0IOWorker@leveldown@@QEAA@PEAVDatabase@1@PEAVCallback@Nan@@VSlice@leveldb@@AEAV?$Local@VObject@v8@@@v8@@@Z@4HA 0000000180051a0b f   database_async.obj
 0001:00050a19       ?dtor$1@?0???0IOWorker@leveldown@@QEAA@PEAVDatabase@1@PEAVCallback@Nan@@VSlice@leveldb@@AEAV?$Local@VObject@v8@@@v8@@@Z@4HA 0000000180051a19 f   database_async.obj
 0001:00050a25       ?dtor$6@?0???0IOWorker@leveldown@@QEAA@PEAVDatabase@1@PEAVCallback@Nan@@VSlice@leveldb@@AEAV?$Local@VObject@v8@@@v8@@@Z@4HA 0000000180051a25 f   database_async.obj
 0001:00050a33       ?dtor$5@?0???0IOWorker@leveldown@@QEAA@PEAVDatabase@1@PEAVCallback@Nan@@VSlice@leveldb@@AEAV?$Local@VObject@v8@@@v8@@@Z@4HA 0000000180051a33 f   database_async.obj
 0001:00050a3f       ?dtor$7@?0???0IOWorker@leveldown@@QEAA@PEAVDatabase@1@PEAVCallback@Nan@@VSlice@leveldb@@AEAV?$Local@VObject@v8@@@v8@@@Z@4HA 0000000180051a3f f   database_async.obj
 0001:00050a4d       ?dtor$8@?0???0IOWorker@leveldown@@QEAA@PEAVDatabase@1@PEAVCallback@Nan@@VSlice@leveldb@@AEAV?$Local@VObject@v8@@@v8@@@Z@4HA 0000000180051a4d f   database_async.obj
 0001:00050a60       ?dtor$1@?0??WorkComplete@IOWorker@leveldown@@UEAAXXZ@4HA 0000000180051a60 f   database_async.obj
 0001:00050a60       ?dtor$1@?0??WorkComplete@CompactRangeWorker@leveldown@@UEAAXXZ@4HA 0000000180051a60 f   database_async.obj
 0001:00050a60       ?dtor$1@?0??WorkComplete@WriteWorker@leveldown@@UEAAXXZ@4HA 0000000180051a60 f   database_async.obj
 0001:00050a60       ?dtor$1@?0??WorkComplete@ApproximateSizeWorker@leveldown@@UEAAXXZ@4HA 0000000180051a60 f   database_async.obj
 0001:00050a6e       ?dtor$0@?0??WorkComplete@CompactRangeWorker@leveldown@@UEAAXXZ@4HA 0000000180051a6e f   database_async.obj
 0001:00050a6e       ?dtor$0@?0??WorkComplete@ApproximateSizeWorker@leveldown@@UEAAXXZ@4HA 0000000180051a6e f   database_async.obj
 0001:00050a6e       ?dtor$0@?0??WorkComplete@IOWorker@leveldown@@UEAAXXZ@4HA 0000000180051a6e f   database_async.obj
 0001:00050a6e       ?dtor$0@?0??WorkComplete@WriteWorker@leveldown@@UEAAXXZ@4HA 0000000180051a6e f   database_async.obj
 0001:00050a7a       ?dtor$2@?0??WorkComplete@CompactRangeWorker@leveldown@@UEAAXXZ@4HA 0000000180051a7a f   database_async.obj
 0001:00050a7a       ?dtor$2@?0??WorkComplete@ApproximateSizeWorker@leveldown@@UEAAXXZ@4HA 0000000180051a7a f   database_async.obj
 0001:00050a7a       ?dtor$2@?0??WorkComplete@WriteWorker@leveldown@@UEAAXXZ@4HA 0000000180051a7a f   database_async.obj
 0001:00050a7a       ?dtor$2@?0??WorkComplete@IOWorker@leveldown@@UEAAXXZ@4HA 0000000180051a7a f   database_async.obj
 0001:00050a90       ?dtor$0@?0???0ReadWorker@leveldown@@QEAA@PEAVDatabase@1@PEAVCallback@Nan@@VSlice@leveldb@@_N3AEAV?$Local@VObject@v8@@@v8@@@Z@4HA 0000000180051a90 f   database_async.obj
 0001:00050a9c       ?dtor$1@?0???0ReadWorker@leveldown@@QEAA@PEAVDatabase@1@PEAVCallback@Nan@@VSlice@leveldb@@_N3AEAV?$Local@VObject@v8@@@v8@@@Z@4HA 0000000180051a9c f   database_async.obj
 0001:00050aaf       ?dtor$4@?0???0ReadWorker@leveldown@@QEAA@PEAVDatabase@1@PEAVCallback@Nan@@VSlice@leveldb@@_N3AEAV?$Local@VObject@v8@@@v8@@@Z@4HA 0000000180051aaf f   database_async.obj
 0001:00050abd       ?dtor$2@?0???0ReadWorker@leveldown@@QEAA@PEAVDatabase@1@PEAVCallback@Nan@@VSlice@leveldb@@_N3AEAV?$Local@VObject@v8@@@v8@@@Z@4HA 0000000180051abd f   database_async.obj
 0001:00050ac9       ?dtor$3@?0???0ReadWorker@leveldown@@QEAA@PEAVDatabase@1@PEAVCallback@Nan@@VSlice@leveldb@@_N3AEAV?$Local@VObject@v8@@@v8@@@Z@4HA 0000000180051ac9 f   database_async.obj
 0001:00050ae9       ?dtor$6@?0???0ReadWorker@leveldown@@QEAA@PEAVDatabase@1@PEAVCallback@Nan@@VSlice@leveldb@@_N3AEAV?$Local@VObject@v8@@@v8@@@Z@4HA 0000000180051ae9 f   database_async.obj
 0001:00050af7       ?dtor$5@?0???0ReadWorker@leveldown@@QEAA@PEAVDatabase@1@PEAVCallback@Nan@@VSlice@leveldb@@_N3AEAV?$Local@VObject@v8@@@v8@@@Z@4HA 0000000180051af7 f   database_async.obj
 0001:00050b03       ?dtor$7@?0???0ReadWorker@leveldown@@QEAA@PEAVDatabase@1@PEAVCallback@Nan@@VSlice@leveldb@@_N3AEAV?$Local@VObject@v8@@@v8@@@Z@4HA 0000000180051b03 f   database_async.obj
 0001:00050b11       ?dtor$8@?0???0ReadWorker@leveldown@@QEAA@PEAVDatabase@1@PEAVCallback@Nan@@VSlice@leveldb@@_N3AEAV?$Local@VObject@v8@@@v8@@@Z@4HA 0000000180051b11 f   database_async.obj
 0001:00050b20       ?dtor$0@?0???_GReadWorker@leveldown@@UEAAPEAXI@Z@4HA 0000000180051b20 f   database_async.obj
 0001:00050b2c       ?dtor$1@?0???_GReadWorker@leveldown@@UEAAPEAXI@Z@4HA 0000000180051b2c f   database_async.obj
 0001:00050b3f       ?dtor$2@?0???_GReadWorker@leveldown@@UEAAPEAXI@Z@4HA 0000000180051b3f f   database_async.obj
 0001:00050b4b       ?dtor$3@?0???_GReadWorker@leveldown@@UEAAPEAXI@Z@4HA 0000000180051b4b f   database_async.obj
 0001:00050b57       ?dtor$4@?0???_GReadWorker@leveldown@@UEAAPEAXI@Z@4HA 0000000180051b57 f   database_async.obj
 0001:00050b70       ?dtor$0@?0??Execute@ReadWorker@leveldown@@UEAAXXZ@4HA 0000000180051b70 f   database_async.obj
 0001:00050b80       ?dtor$1@?0??HandleOKCallback@ReadWorker@leveldown@@UEAAXXZ@4HA 0000000180051b80 f   database_async.obj
 0001:00050b8e       ?dtor$0@?0??HandleOKCallback@ReadWorker@leveldown@@UEAAXXZ@4HA 0000000180051b8e f   database_async.obj
 0001:00050b9a       ?dtor$3@?0??HandleOKCallback@ReadWorker@leveldown@@UEAAXXZ@4HA 0000000180051b9a f   database_async.obj
 0001:00050bb0       ?dtor$0@?0???0DeleteWorker@leveldown@@QEAA@PEAVDatabase@1@PEAVCallback@Nan@@VSlice@leveldb@@_NAEAV?$Local@VObject@v8@@@v8@@@Z@4HA 0000000180051bb0 f   database_async.obj
 0001:00050bbc       ?dtor$3@?0???0DeleteWorker@leveldown@@QEAA@PEAVDatabase@1@PEAVCallback@Nan@@VSlice@leveldb@@_NAEAV?$Local@VObject@v8@@@v8@@@Z@4HA 0000000180051bbc f   database_async.obj
 0001:00050bca       ?dtor$1@?0???0DeleteWorker@leveldown@@QEAA@PEAVDatabase@1@PEAVCallback@Nan@@VSlice@leveldb@@_NAEAV?$Local@VObject@v8@@@v8@@@Z@4HA 0000000180051bca f   database_async.obj
 0001:00050bd6       ?dtor$2@?0???0DeleteWorker@leveldown@@QEAA@PEAVDatabase@1@PEAVCallback@Nan@@VSlice@leveldb@@_NAEAV?$Local@VObject@v8@@@v8@@@Z@4HA 0000000180051bd6 f   database_async.obj
 0001:00050bf6       ?dtor$5@?0???0DeleteWorker@leveldown@@QEAA@PEAVDatabase@1@PEAVCallback@Nan@@VSlice@leveldb@@_NAEAV?$Local@VObject@v8@@@v8@@@Z@4HA 0000000180051bf6 f   database_async.obj
 0001:00050c04       ?dtor$4@?0???0DeleteWorker@leveldown@@QEAA@PEAVDatabase@1@PEAVCallback@Nan@@VSlice@leveldb@@_NAEAV?$Local@VObject@v8@@@v8@@@Z@4HA 0000000180051c04 f   database_async.obj
 0001:00050c10       ?dtor$6@?0???0DeleteWorker@leveldown@@QEAA@PEAVDatabase@1@PEAVCallback@Nan@@VSlice@leveldb@@_NAEAV?$Local@VObject@v8@@@v8@@@Z@4HA 0000000180051c10 f   database_async.obj
 0001:00050c1e       ?dtor$7@?0???0DeleteWorker@leveldown@@QEAA@PEAVDatabase@1@PEAVCallback@Nan@@VSlice@leveldb@@_NAEAV?$Local@VObject@v8@@@v8@@@Z@4HA 0000000180051c1e f   database_async.obj
 0001:00050c30       ?dtor$0@?0???1DeleteWorker@leveldown@@UEAA@XZ@4HA 0000000180051c30 f   database_async.obj
 0001:00050c30       ?dtor$0@?0???_GDeleteWorker@leveldown@@UEAAPEAXI@Z@4HA 0000000180051c30 f   database_async.obj
 0001:00050c3c       ?dtor$1@?0???1DeleteWorker@leveldown@@UEAA@XZ@4HA 0000000180051c3c f   database_async.obj
 0001:00050c3c       ?dtor$1@?0???_GDeleteWorker@leveldown@@UEAAPEAXI@Z@4HA 0000000180051c3c f   database_async.obj
 0001:00050c48       ?dtor$2@?0???1DeleteWorker@leveldown@@UEAA@XZ@4HA 0000000180051c48 f   database_async.obj
 0001:00050c48       ?dtor$2@?0???_GDeleteWorker@leveldown@@UEAAPEAXI@Z@4HA 0000000180051c48 f   database_async.obj
 0001:00050c54       ?dtor$3@?0???_GDeleteWorker@leveldown@@UEAAPEAXI@Z@4HA 0000000180051c54 f   database_async.obj
 0001:00050c54       ?dtor$3@?0???1DeleteWorker@leveldown@@UEAA@XZ@4HA 0000000180051c54 f   database_async.obj
 0001:00050c70       ?dtor$0@?0??Execute@DeleteWorker@leveldown@@UEAAXXZ@4HA 0000000180051c70 f   database_async.obj
 0001:00050c80       ?dtor$0@?0???_GWriteWorker@leveldown@@UEAAPEAXI@Z@4HA 0000000180051c80 f   database_async.obj
 0001:00050c8c       ?dtor$1@?0???_GWriteWorker@leveldown@@UEAAPEAXI@Z@4HA 0000000180051c8c f   database_async.obj
 0001:00050c98       ?dtor$2@?0???_GWriteWorker@leveldown@@UEAAPEAXI@Z@4HA 0000000180051c98 f   database_async.obj
 0001:00050ca4       ?dtor$3@?0???_GWriteWorker@leveldown@@UEAAPEAXI@Z@4HA 0000000180051ca4 f   database_async.obj
 0001:00050cb0       ?dtor$4@?0???_GWriteWorker@leveldown@@UEAAPEAXI@Z@4HA 0000000180051cb0 f   database_async.obj
 0001:00050cd0       ?dtor$0@?0??Execute@WriteWorker@leveldown@@UEAAXXZ@4HA 0000000180051cd0 f   database_async.obj
 0001:00050ce0       ?dtor$2@?0???0BatchWorker@leveldown@@QEAA@PEAVDatabase@1@PEAVCallback@Nan@@PEAVWriteBatch@leveldb@@_N@Z@4HA 0000000180051ce0 f   database_async.obj
 0001:00050cec       ?dtor$3@?0???0BatchWorker@leveldown@@QEAA@PEAVDatabase@1@PEAVCallback@Nan@@PEAVWriteBatch@leveldb@@_N@Z@4HA 0000000180051cec f   database_async.obj
 0001:00050cff       ?dtor$0@?0???0BatchWorker@leveldown@@QEAA@PEAVDatabase@1@PEAVCallback@Nan@@PEAVWriteBatch@leveldb@@_N@Z@4HA 0000000180051cff f   database_async.obj
 0001:00050d0b       ?dtor$1@?0???0BatchWorker@leveldown@@QEAA@PEAVDatabase@1@PEAVCallback@Nan@@PEAVWriteBatch@leveldb@@_N@Z@4HA 0000000180051d0b f   database_async.obj
 0001:00050d30       ?dtor$0@?0???1BatchWorker@leveldown@@UEAA@XZ@4HA 0000000180051d30 f   database_async.obj
 0001:00050d3c       ?dtor$1@?0???1BatchWorker@leveldown@@UEAA@XZ@4HA 0000000180051d3c f   database_async.obj
 0001:00050d48       ?dtor$2@?0???1BatchWorker@leveldown@@UEAA@XZ@4HA 0000000180051d48 f   database_async.obj
 0001:00050d54       ?dtor$3@?0???1BatchWorker@leveldown@@UEAA@XZ@4HA 0000000180051d54 f   database_async.obj
 0001:00050d70       ?dtor$2@?0???0CompactRangeWorker@leveldown@@QEAA@PEAVDatabase@1@PEAVCallback@Nan@@VSlice@leveldb@@2AEAV?$Local@VObject@v8@@@v8@@3@Z@4HA 0000000180051d70 f   database_async.obj
 0001:00050d70       ?dtor$2@?0???0ApproximateSizeWorker@leveldown@@QEAA@PEAVDatabase@1@PEAVCallback@Nan@@VSlice@leveldb@@2AEAV?$Local@VObject@v8@@@v8@@3@Z@4HA 0000000180051d70 f   database_async.obj
 0001:00050d7c       ?dtor$3@?0???0CompactRangeWorker@leveldown@@QEAA@PEAVDatabase@1@PEAVCallback@Nan@@VSlice@leveldb@@2AEAV?$Local@VObject@v8@@@v8@@3@Z@4HA 0000000180051d7c f   database_async.obj
 0001:00050d7c       ?dtor$3@?0???0ApproximateSizeWorker@leveldown@@QEAA@PEAVDatabase@1@PEAVCallback@Nan@@VSlice@leveldb@@2AEAV?$Local@VObject@v8@@@v8@@3@Z@4HA 0000000180051d7c f   database_async.obj
 0001:00050d8f       ?dtor$0@?0???0CompactRangeWorker@leveldown@@QEAA@PEAVDatabase@1@PEAVCallback@Nan@@VSlice@leveldb@@2AEAV?$Local@VObject@v8@@@v8@@3@Z@4HA 0000000180051d8f f   database_async.obj
 0001:00050d8f       ?dtor$0@?0???0ApproximateSizeWorker@leveldown@@QEAA@PEAVDatabase@1@PEAVCallback@Nan@@VSlice@leveldb@@2AEAV?$Local@VObject@v8@@@v8@@3@Z@4HA 0000000180051d8f f   database_async.obj
 0001:00050d9b       ?dtor$4@?0???0CompactRangeWorker@leveldown@@QEAA@PEAVDatabase@1@PEAVCallback@Nan@@VSlice@leveldb@@2AEAV?$Local@VObject@v8@@@v8@@3@Z@4HA 0000000180051d9b f   database_async.obj
 0001:00050d9b       ?dtor$4@?0???0ApproximateSizeWorker@leveldown@@QEAA@PEAVDatabase@1@PEAVCallback@Nan@@VSlice@leveldb@@2AEAV?$Local@VObject@v8@@@v8@@3@Z@4HA 0000000180051d9b f   database_async.obj
 0001:00050da9       ?dtor$1@?0???0CompactRangeWorker@leveldown@@QEAA@PEAVDatabase@1@PEAVCallback@Nan@@VSlice@leveldb@@2AEAV?$Local@VObject@v8@@@v8@@3@Z@4HA 0000000180051da9 f   database_async.obj
 0001:00050da9       ?dtor$1@?0???0ApproximateSizeWorker@leveldown@@QEAA@PEAVDatabase@1@PEAVCallback@Nan@@VSlice@leveldb@@2AEAV?$Local@VObject@v8@@@v8@@3@Z@4HA 0000000180051da9 f   database_async.obj
 0001:00050db5       ?dtor$6@?0???0CompactRangeWorker@leveldown@@QEAA@PEAVDatabase@1@PEAVCallback@Nan@@VSlice@leveldb@@2AEAV?$Local@VObject@v8@@@v8@@3@Z@4HA 0000000180051db5 f   database_async.obj
 0001:00050db5       ?dtor$6@?0???0ApproximateSizeWorker@leveldown@@QEAA@PEAVDatabase@1@PEAVCallback@Nan@@VSlice@leveldb@@2AEAV?$Local@VObject@v8@@@v8@@3@Z@4HA 0000000180051db5 f   database_async.obj
 0001:00050dc3       ?dtor$5@?0???0CompactRangeWorker@leveldown@@QEAA@PEAVDatabase@1@PEAVCallback@Nan@@VSlice@leveldb@@2AEAV?$Local@VObject@v8@@@v8@@3@Z@4HA 0000000180051dc3 f   database_async.obj
 0001:00050dc3       ?dtor$5@?0???0ApproximateSizeWorker@leveldown@@QEAA@PEAVDatabase@1@PEAVCallback@Nan@@VSlice@leveldb@@2AEAV?$Local@VObject@v8@@@v8@@3@Z@4HA 0000000180051dc3 f   database_async.obj
 0001:00050dcf       ?dtor$7@?0???0CompactRangeWorker@leveldown@@QEAA@PEAVDatabase@1@PEAVCallback@Nan@@VSlice@leveldb@@2AEAV?$Local@VObject@v8@@@v8@@3@Z@4HA 0000000180051dcf f   database_async.obj
 0001:00050dcf       ?dtor$7@?0???0ApproximateSizeWorker@leveldown@@QEAA@PEAVDatabase@1@PEAVCallback@Nan@@VSlice@leveldb@@2AEAV?$Local@VObject@v8@@@v8@@3@Z@4HA 0000000180051dcf f   database_async.obj
 0001:00050ddd       ?dtor$9@?0???0ApproximateSizeWorker@leveldown@@QEAA@PEAVDatabase@1@PEAVCallback@Nan@@VSlice@leveldb@@2AEAV?$Local@VObject@v8@@@v8@@3@Z@4HA 0000000180051ddd f   database_async.obj
 0001:00050ddd       ?dtor$9@?0???0CompactRangeWorker@leveldown@@QEAA@PEAVDatabase@1@PEAVCallback@Nan@@VSlice@leveldb@@2AEAV?$Local@VObject@v8@@@v8@@3@Z@4HA 0000000180051ddd f   database_async.obj
 0001:00050deb       ?dtor$8@?0???0ApproximateSizeWorker@leveldown@@QEAA@PEAVDatabase@1@PEAVCallback@Nan@@VSlice@leveldb@@2AEAV?$Local@VObject@v8@@@v8@@3@Z@4HA 0000000180051deb f   database_async.obj
 0001:00050deb       ?dtor$8@?0???0CompactRangeWorker@leveldown@@QEAA@PEAVDatabase@1@PEAVCallback@Nan@@VSlice@leveldb@@2AEAV?$Local@VObject@v8@@@v8@@3@Z@4HA 0000000180051deb f   database_async.obj
 0001:00050df7       ?dtor$10@?0???0ApproximateSizeWorker@leveldown@@QEAA@PEAVDatabase@1@PEAVCallback@Nan@@VSlice@leveldb@@2AEAV?$Local@VObject@v8@@@v8@@3@Z@4HA 0000000180051df7 f   database_async.obj
 0001:00050df7       ?dtor$10@?0???0CompactRangeWorker@leveldown@@QEAA@PEAVDatabase@1@PEAVCallback@Nan@@VSlice@leveldb@@2AEAV?$Local@VObject@v8@@@v8@@3@Z@4HA 0000000180051df7 f   database_async.obj
 0001:00050e05       ?dtor$11@?0???0ApproximateSizeWorker@leveldown@@QEAA@PEAVDatabase@1@PEAVCallback@Nan@@VSlice@leveldb@@2AEAV?$Local@VObject@v8@@@v8@@3@Z@4HA 0000000180051e05 f   database_async.obj
 0001:00050e05       ?dtor$11@?0???0CompactRangeWorker@leveldown@@QEAA@PEAVDatabase@1@PEAVCallback@Nan@@VSlice@leveldb@@2AEAV?$Local@VObject@v8@@@v8@@3@Z@4HA 0000000180051e05 f   database_async.obj
 0001:00050e20       ?dtor$0@?0??ToString@Slice@leveldb@@QEBA?AV?$basic_string@DU?$char_traits@D@std@@V?$allocator@D@2@@std@@XZ@4HA 0000000180051e20 f   iterator.obj
 0001:00050e50       ?dtor$1@?0??Error@Nan@@YA?AV?$Local@VValue@v8@@@v8@@PEBD@Z@4HA 0000000180051e50 f   iterator.obj
 0001:00050e5e       ?dtor$0@?0??Error@Nan@@YA?AV?$Local@VValue@v8@@@v8@@PEBD@Z@4HA 0000000180051e5e f   iterator.obj
 0001:00050e6a       ?dtor$2@?0??Error@Nan@@YA?AV?$Local@VValue@v8@@@v8@@PEBD@Z@4HA 0000000180051e6a f   iterator.obj
 0001:00050e78       ?dtor$3@?0??Error@Nan@@YA?AV?$Local@VValue@v8@@@v8@@PEBD@Z@4HA 0000000180051e78 f   iterator.obj
 0001:00050e90       ?dtor$1@?0??StringOrBufferLength@@YA_KV?$Local@VValue@v8@@@v8@@@Z@4HA 0000000180051e90 f   iterator.obj
 0001:00050e9e       ?dtor$0@?0??StringOrBufferLength@@YA_KV?$Local@VValue@v8@@@v8@@@Z@4HA 0000000180051e9e f   iterator.obj
 0001:00050eaa       ?dtor$2@?0??StringOrBufferLength@@YA_KV?$Local@VValue@v8@@@v8@@@Z@4HA 0000000180051eaa f   iterator.obj
 0001:00050ec0       ?dtor$0@?0???__Fiterator_constructor@leveldown@@YAXXZ@4HA 0000000180051ec0 f   iterator.obj
 0001:00050ec0       ?dtor$0@?0???__Eiterator_constructor@leveldown@@YAXXZ@4HA 0000000180051ec0 f   iterator.obj
 0001:00050ed0       ?dtor$4@?0???0Iterator@leveldown@@QEAA@PEAVDatabase@1@IPEAVSlice@leveldb@@PEAV?$basic_string@DU?$char_traits@D@std@@V?$allocator@D@2@@std@@_N33H2222333_K@Z@4HA 0000000180051ed0 f   iterator.obj
 0001:00050edc       ?dtor$3@?0???0Iterator@leveldown@@QEAA@PEAVDatabase@1@IPEAVSlice@leveldb@@PEAV?$basic_string@DU?$char_traits@D@std@@V?$allocator@D@2@@std@@_N33H2222333_K@Z@4HA 0000000180051edc f   iterator.obj
 0001:00050eec       ?dtor$0@?0???0Iterator@leveldown@@QEAA@PEAVDatabase@1@IPEAVSlice@leveldb@@PEAV?$basic_string@DU?$char_traits@D@std@@V?$allocator@D@2@@std@@_N33H2222333_K@Z@4HA 0000000180051eec f   iterator.obj
 0001:00050ef8       ?dtor$5@?0???0Iterator@leveldown@@QEAA@PEAVDatabase@1@IPEAVSlice@leveldb@@PEAV?$basic_string@DU?$char_traits@D@std@@V?$allocator@D@2@@std@@_N33H2222333_K@Z@4HA 0000000180051ef8 f   iterator.obj
 0001:00050f06       ?dtor$1@?0???0Iterator@leveldown@@QEAA@PEAVDatabase@1@IPEAVSlice@leveldb@@PEAV?$basic_string@DU?$char_traits@D@std@@V?$allocator@D@2@@std@@_N33H2222333_K@Z@4HA 0000000180051f06 f   iterator.obj
 0001:00050f12       ?dtor$2@?0???0Iterator@leveldown@@QEAA@PEAVDatabase@1@IPEAVSlice@leveldb@@PEAV?$basic_string@DU?$char_traits@D@std@@V?$allocator@D@2@@std@@_N33H2222333_K@Z@4HA 0000000180051f12 f   iterator.obj
 0001:00050f2f       ?dtor$6@?0???0Iterator@leveldown@@QEAA@PEAVDatabase@1@IPEAVSlice@leveldb@@PEAV?$basic_string@DU?$char_traits@D@std@@V?$allocator@D@2@@std@@_N33H2222333_K@Z@4HA 0000000180051f2f f   iterator.obj
 0001:00050f40       ?dtor$0@?0???1Iterator@leveldown@@UEAA@XZ@4HA 0000000180051f40 f   iterator.obj
 0001:00050f50       ?dtor$0@?0??GetIterator@Iterator@leveldown@@AEAA_NXZ@4HA 0000000180051f50 f   iterator.obj
 0001:00050f5c       ?dtor$1@?0??GetIterator@Iterator@leveldown@@AEAA_NXZ@4HA 0000000180051f5c f   iterator.obj
 0001:00050f68       ?dtor$2@?0??GetIterator@Iterator@leveldown@@AEAA_NXZ@4HA 0000000180051f68 f   iterator.obj
 0001:00050f90       ?dtor$0@?0??FindShortSuccessor@InternalKeyComparator@leveldb@@UEBAXPEAV?$basic_string@DU?$char_traits@D@std@@V?$allocator@D@2@@std@@@Z@4HA 0000000180051f90 f   leveldb:dbformat.obj
 0001:00050f90       ?dtor$0@?0??Read@Iterator@leveldown@@AEAA_NAEAV?$basic_string@DU?$char_traits@D@std@@V?$allocator@D@2@@std@@0@Z@4HA 0000000180051f90 f   iterator.obj
 0001:00050fa0       ?dtor$0@?0??IteratorNext@Iterator@leveldown@@QEAA_NAEAV?$vector@U?$pair@V?$basic_string@DU?$char_traits@D@std@@V?$allocator@D@2@@std@@V12@@std@@V?$allocator@U?$pair@V?$basic_string@DU?$char_traits@D@std@@V?$allocator@D@2@@std@@V12@@std@@@2@@std@@@Z@4HA 0000000180051fa0 f   iterator.obj
 0001:00050fac       ?dtor$1@?0??IteratorNext@Iterator@leveldown@@QEAA_NAEAV?$vector@U?$pair@V?$basic_string@DU?$char_traits@D@std@@V?$allocator@D@2@@std@@V12@@std@@V?$allocator@U?$pair@V?$basic_string@DU?$char_traits@D@std@@V?$allocator@D@2@@std@@V12@@std@@@2@@std@@@Z@4HA 0000000180051fac f   iterator.obj
 0001:00050fb8       ?dtor$2@?0??IteratorNext@Iterator@leveldown@@QEAA_NAEAV?$vector@U?$pair@V?$basic_string@DU?$char_traits@D@std@@V?$allocator@D@2@@std@@V12@@std@@V?$allocator@U?$pair@V?$basic_string@DU?$char_traits@D@std@@V?$allocator@D@2@@std@@V12@@std@@@2@@std@@@Z@4HA 0000000180051fb8 f   iterator.obj
 0001:00050fc4       ?dtor$3@?0??IteratorNext@Iterator@leveldown@@QEAA_NAEAV?$vector@U?$pair@V?$basic_string@DU?$char_traits@D@std@@V?$allocator@D@2@@std@@V12@@std@@V?$allocator@U?$pair@V?$basic_string@DU?$char_traits@D@std@@V?$allocator@D@2@@std@@V12@@std@@@2@@std@@@Z@4HA 0000000180051fc4 f   iterator.obj
 0001:00050fd0       ?dtor$4@?0??IteratorNext@Iterator@leveldown@@QEAA_NAEAV?$vector@U?$pair@V?$basic_string@DU?$char_traits@D@std@@V?$allocator@D@2@@std@@V12@@std@@V?$allocator@U?$pair@V?$basic_string@DU?$char_traits@D@std@@V?$allocator@D@2@@std@@V12@@std@@@2@@std@@@Z@4HA 0000000180051fd0 f   iterator.obj
 0001:00050fe0       ?dtor$0@?0??_Tidy@?$vector@U?$pair@V?$basic_string@DU?$char_traits@D@std@@V?$allocator@D@2@@std@@V12@@std@@V?$allocator@U?$pair@V?$basic_string@DU?$char_traits@D@std@@V?$allocator@D@2@@std@@V12@@std@@@2@@std@@IEAAXXZ@4HA 0000000180051fe0 f   iterator_async.obj
 0001:00050fe0       ?dtor$0@?0???1?$pair@V?$basic_string@DU?$char_traits@D@std@@V?$allocator@D@2@@std@@V12@@std@@QEAA@XZ@4HA 0000000180051fe0 f   iterator.obj
 0001:00050fec       ?dtor$1@?0??_Tidy@?$vector@U?$pair@V?$basic_string@DU?$char_traits@D@std@@V?$allocator@D@2@@std@@V12@@std@@V?$allocator@U?$pair@V?$basic_string@DU?$char_traits@D@std@@V?$allocator@D@2@@std@@V12@@std@@@2@@std@@IEAAXXZ@4HA 0000000180051fec f   iterator_async.obj
 0001:00050fec       ?dtor$1@?0???1?$pair@V?$basic_string@DU?$char_traits@D@std@@V?$allocator@D@2@@std@@V12@@std@@QEAA@XZ@4HA 0000000180051fec f   iterator.obj
 0001:00051000       ?dtor$0@?0??Seek@Iterator@leveldown@@CAXAEBV?$FunctionCallbackInfo@VValue@v8@@@Nan@@@Z@4HA 0000000180052000 f   iterator.obj
 0001:00051020       ?dtor$0@?0??Next@Iterator@leveldown@@CAXAEBV?$FunctionCallbackInfo@VValue@v8@@@Nan@@@Z@4HA 0000000180052020 f   iterator.obj
 0001:0005103d       ?dtor$1@?0??Next@Iterator@leveldown@@CAXAEBV?$FunctionCallbackInfo@VValue@v8@@@Nan@@@Z@4HA 000000018005203d f   iterator.obj
 0001:0005105a       ?dtor$4@?0??Next@Iterator@leveldown@@CAXAEBV?$FunctionCallbackInfo@VValue@v8@@@Nan@@@Z@4HA 000000018005205a f   iterator.obj
 0001:00051066       ?dtor$3@?0??Next@Iterator@leveldown@@CAXAEBV?$FunctionCallbackInfo@VValue@v8@@@Nan@@@Z@4HA 0000000180052066 f   iterator.obj
 0001:00051080       ?dtor$0@?0??End@Iterator@leveldown@@CAXAEBV?$FunctionCallbackInfo@VValue@v8@@@Nan@@@Z@4HA 0000000180052080 f   iterator.obj
 0001:0005109d       ?dtor$1@?0??End@Iterator@leveldown@@CAXAEBV?$FunctionCallbackInfo@VValue@v8@@@Nan@@@Z@4HA 000000018005209d f   iterator.obj
 0001:000510ba       ?dtor$3@?0??End@Iterator@leveldown@@CAXAEBV?$FunctionCallbackInfo@VValue@v8@@@Nan@@@Z@4HA 00000001800520ba f   iterator.obj
 0001:000510c6       ?dtor$2@?0??End@Iterator@leveldown@@CAXAEBV?$FunctionCallbackInfo@VValue@v8@@@Nan@@@Z@4HA 00000001800520c6 f   iterator.obj
 0001:000510d2       ?dtor$5@?0??End@Iterator@leveldown@@CAXAEBV?$FunctionCallbackInfo@VValue@v8@@@Nan@@@Z@4HA 00000001800520d2 f   iterator.obj
 0001:000510de       ?dtor$6@?0??End@Iterator@leveldown@@CAXAEBV?$FunctionCallbackInfo@VValue@v8@@@Nan@@@Z@4HA 00000001800520de f   iterator.obj
 0001:000510f1       ?dtor$4@?0??End@Iterator@leveldown@@CAXAEBV?$FunctionCallbackInfo@VValue@v8@@@Nan@@@Z@4HA 00000001800520f1 f   iterator.obj
 0001:00051100       ?dtor$1@?0??NewInstance@Iterator@leveldown@@SA?AV?$Local@VObject@v8@@@v8@@V34@V?$Local@VNumber@v8@@@4@0@Z@4HA 0000000180052100 f   iterator.obj
 0001:0005110e       ?dtor$0@?0??NewInstance@Iterator@leveldown@@SA?AV?$Local@VObject@v8@@@v8@@V34@V?$Local@VNumber@v8@@@4@0@Z@4HA 000000018005210e f   iterator.obj
 0001:0005111a       ?dtor$4@?0??NewInstance@Iterator@leveldown@@SA?AV?$Local@VObject@v8@@@v8@@V34@V?$Local@VNumber@v8@@@4@0@Z@4HA 000000018005211a f   iterator.obj
 0001:00051128       ?dtor$5@?0??NewInstance@Iterator@leveldown@@SA?AV?$Local@VObject@v8@@@v8@@V34@V?$Local@VNumber@v8@@@4@0@Z@4HA 0000000180052128 f   iterator.obj
 0001:00051140       ?dtor$0@?0??New@Iterator@leveldown@@CAXAEBV?$FunctionCallbackInfo@VValue@v8@@@Nan@@@Z@4HA 0000000180052140 f   iterator.obj
 0001:00051160       ?dtor$1@?0??New@Iterator@leveldown@@CAXAEBV?$FunctionCallbackInfo@VValue@v8@@@Nan@@@Z@4HA 0000000180052160 f   iterator.obj
 0001:00051180       ?dtor$2@?0??New@Iterator@leveldown@@CAXAEBV?$FunctionCallbackInfo@VValue@v8@@@Nan@@@Z@4HA 0000000180052180 f   iterator.obj
 0001:000511a0       ?dtor$3@?0??New@Iterator@leveldown@@CAXAEBV?$FunctionCallbackInfo@VValue@v8@@@Nan@@@Z@4HA 00000001800521a0 f   iterator.obj
 0001:000511c0       ?dtor$4@?0??New@Iterator@leveldown@@CAXAEBV?$FunctionCallbackInfo@VValue@v8@@@Nan@@@Z@4HA 00000001800521c0 f   iterator.obj
 0001:000511e0       ?dtor$5@?0??New@Iterator@leveldown@@CAXAEBV?$FunctionCallbackInfo@VValue@v8@@@Nan@@@Z@4HA 00000001800521e0 f   iterator.obj
 0001:00051200       ?dtor$6@?0??New@Iterator@leveldown@@CAXAEBV?$FunctionCallbackInfo@VValue@v8@@@Nan@@@Z@4HA 0000000180052200 f   iterator.obj
 0001:00051220       ?dtor$7@?0??New@Iterator@leveldown@@CAXAEBV?$FunctionCallbackInfo@VValue@v8@@@Nan@@@Z@4HA 0000000180052220 f   iterator.obj
 0001:00051240       ?dtor$8@?0??New@Iterator@leveldown@@CAXAEBV?$FunctionCallbackInfo@VValue@v8@@@Nan@@@Z@4HA 0000000180052240 f   iterator.obj
 0001:00051260       ?dtor$9@?0??New@Iterator@leveldown@@CAXAEBV?$FunctionCallbackInfo@VValue@v8@@@Nan@@@Z@4HA 0000000180052260 f   iterator.obj
 0001:00051280       ?dtor$10@?0??New@Iterator@leveldown@@CAXAEBV?$FunctionCallbackInfo@VValue@v8@@@Nan@@@Z@4HA 0000000180052280 f   iterator.obj
 0001:000512a0       ?dtor$0@?0??push_back@?$vector@U?$pair@V?$basic_string@DU?$char_traits@D@std@@V?$allocator@D@2@@std@@V12@@std@@V?$allocator@U?$pair@V?$basic_string@DU?$char_traits@D@std@@V?$allocator@D@2@@std@@V12@@std@@@2@@std@@QEAAX$$QEAU?$pair@V?$basic_string@DU?$char_traits@D@std@@V?$allocator@D@2@@std@@V12@@2@@Z@4HA 00000001800522a0 f   iterator.obj
 0001:000512ac       ?dtor$1@?0??push_back@?$vector@U?$pair@V?$basic_string@DU?$char_traits@D@std@@V?$allocator@D@2@@std@@V12@@std@@V?$allocator@U?$pair@V?$basic_string@DU?$char_traits@D@std@@V?$allocator@D@2@@std@@V12@@std@@@2@@std@@QEAAX$$QEAU?$pair@V?$basic_string@DU?$char_traits@D@std@@V?$allocator@D@2@@std@@V12@@2@@Z@4HA 00000001800522ac f   iterator.obj
 0001:000512bc       ?dtor$2@?0??push_back@?$vector@U?$pair@V?$basic_string@DU?$char_traits@D@std@@V?$allocator@D@2@@std@@V12@@std@@V?$allocator@U?$pair@V?$basic_string@DU?$char_traits@D@std@@V?$allocator@D@2@@std@@V12@@std@@@2@@std@@QEAAX$$QEAU?$pair@V?$basic_string@DU?$char_traits@D@std@@V?$allocator@D@2@@std@@V12@@2@@Z@4HA 00000001800522bc f   iterator.obj
 0001:000512c8       ?dtor$3@?0??push_back@?$vector@U?$pair@V?$basic_string@DU?$char_traits@D@std@@V?$allocator@D@2@@std@@V12@@std@@V?$allocator@U?$pair@V?$basic_string@DU?$char_traits@D@std@@V?$allocator@D@2@@std@@V12@@std@@@2@@std@@QEAAX$$QEAU?$pair@V?$basic_string@DU?$char_traits@D@std@@V?$allocator@D@2@@std@@V12@@2@@Z@4HA 00000001800522c8 f   iterator.obj
 0001:000512e0       ?dtor$0@?0???$_Uninitialized_move_al_unchecked1@PEAU?$pair@V?$basic_string@DU?$char_traits@D@std@@V?$allocator@D@2@@std@@V12@@std@@PEAU12@V?$allocator@U?$pair@V?$basic_string@DU?$char_traits@D@std@@V?$allocator@D@2@@std@@V12@@std@@@2@@std@@YAPEAU?$pair@V?$basic_string@DU?$char_traits@D@std@@V?$allocator@D@2@@std@@V12@@0@PEAU10@00AEAU?$_Wrap_alloc@V?$allocator@U?$pair@V?$basic_string@DU?$char_traits@D@std@@V?$allocator@D@2@@std@@V12@@std@@@std@@@0@U_General_ptr_iterator_tag@0@U_Any_tag@0@@Z@4HA 00000001800522e0 f   iterator.obj
 0001:000512e0       ?dtor$0@?0??_Reallocate@?$vector@U?$pair@V?$basic_string@DU?$char_traits@D@std@@V?$allocator@D@2@@std@@V12@@std@@V?$allocator@U?$pair@V?$basic_string@DU?$char_traits@D@std@@V?$allocator@D@2@@std@@V12@@std@@@2@@std@@IEAAX_K@Z@4HA 00000001800522e0 f   iterator.obj
 0001:000512ec       ?dtor$1@?0??_Reallocate@?$vector@U?$pair@V?$basic_string@DU?$char_traits@D@std@@V?$allocator@D@2@@std@@V12@@std@@V?$allocator@U?$pair@V?$basic_string@DU?$char_traits@D@std@@V?$allocator@D@2@@std@@V12@@std@@@2@@std@@IEAAX_K@Z@4HA 00000001800522ec f   iterator.obj
 0001:000512ec       ?dtor$1@?0???$_Uninitialized_move_al_unchecked1@PEAU?$pair@V?$basic_string@DU?$char_traits@D@std@@V?$allocator@D@2@@std@@V12@@std@@PEAU12@V?$allocator@U?$pair@V?$basic_string@DU?$char_traits@D@std@@V?$allocator@D@2@@std@@V12@@std@@@2@@std@@YAPEAU?$pair@V?$basic_string@DU?$char_traits@D@std@@V?$allocator@D@2@@std@@V12@@0@PEAU10@00AEAU?$_Wrap_alloc@V?$allocator@U?$pair@V?$basic_string@DU?$char_traits@D@std@@V?$allocator@D@2@@std@@V12@@std@@@std@@@0@U_General_ptr_iterator_tag@0@U_Any_tag@0@@Z@4HA 00000001800522ec f   iterator.obj
 0001:00051300       ?dtor$1@?0???$make_pair@AEAV?$basic_string@DU?$char_traits@D@std@@V?$allocator@D@2@@std@@AEAV12@@std@@YA?AU?$pair@V?$basic_string@DU?$char_traits@D@std@@V?$allocator@D@2@@std@@V12@@0@AEAV?$basic_string@DU?$char_traits@D@std@@V?$allocator@D@2@@0@0@Z@4HA 0000000180052300 f   iterator.obj
 0001:0005130c       ?dtor$2@?0???$make_pair@AEAV?$basic_string@DU?$char_traits@D@std@@V?$allocator@D@2@@std@@AEAV12@@std@@YA?AU?$pair@V?$basic_string@DU?$char_traits@D@std@@V?$allocator@D@2@@std@@V12@@0@AEAV?$basic_string@DU?$char_traits@D@std@@V?$allocator@D@2@@0@0@Z@4HA 000000018005230c f   iterator.obj
 0001:0005131c       ?dtor$0@?0???$make_pair@AEAV?$basic_string@DU?$char_traits@D@std@@V?$allocator@D@2@@std@@AEAV12@@std@@YA?AU?$pair@V?$basic_string@DU?$char_traits@D@std@@V?$allocator@D@2@@std@@V12@@0@AEAV?$basic_string@DU?$char_traits@D@std@@V?$allocator@D@2@@0@0@Z@4HA 000000018005231c f   iterator.obj
 0001:00051350       ?dtor$2@?0???0NextWorker@leveldown@@QEAA@PEAVIterator@1@PEAVCallback@Nan@@P6AX0@Z@Z@4HA 0000000180052350 f   iterator_async.obj
 0001:0005135c       ?dtor$3@?0???0NextWorker@leveldown@@QEAA@PEAVIterator@1@PEAVCallback@Nan@@P6AX0@Z@Z@4HA 000000018005235c f   iterator_async.obj
 0001:0005136f       ?dtor$0@?0???0NextWorker@leveldown@@QEAA@PEAVIterator@1@PEAVCallback@Nan@@P6AX0@Z@Z@4HA 000000018005236f f   iterator_async.obj
 0001:0005137b       ?dtor$1@?0???0NextWorker@leveldown@@QEAA@PEAVIterator@1@PEAVCallback@Nan@@P6AX0@Z@Z@4HA 000000018005237b f   iterator_async.obj
 0001:00051390       ?dtor$0@?0???_GNextWorker@leveldown@@UEAAPEAXI@Z@4HA 0000000180052390 f   iterator_async.obj
 0001:0005139c       ?dtor$1@?0???_GNextWorker@leveldown@@UEAAPEAXI@Z@4HA 000000018005239c f   iterator_async.obj
 0001:000513af       ?dtor$2@?0???_GNextWorker@leveldown@@UEAAPEAXI@Z@4HA 00000001800523af f   iterator_async.obj
 0001:000513bb       ?dtor$3@?0???_GNextWorker@leveldown@@UEAAPEAXI@Z@4HA 00000001800523bb f   iterator_async.obj
 0001:000513d0       ?dtor$4@?0??HandleOKCallback@NextWorker@leveldown@@UEAAXXZ@4HA 00000001800523d0 f   iterator_async.obj
 0001:000513de       ?dtor$0@?0??HandleOKCallback@NextWorker@leveldown@@UEAAXXZ@4HA 00000001800523de f   iterator_async.obj
 0001:000513ea       ?dtor$5@?0??HandleOKCallback@NextWorker@leveldown@@UEAAXXZ@4HA 00000001800523ea f   iterator_async.obj
 0001:000513f6       ?dtor$6@?0??HandleOKCallback@NextWorker@leveldown@@UEAAXXZ@4HA 00000001800523f6 f   iterator_async.obj
 0001:00051406       ?dtor$1@?0??HandleOKCallback@NextWorker@leveldown@@UEAAXXZ@4HA 0000000180052406 f   iterator_async.obj
 0001:00051412       ?dtor$2@?0??HandleOKCallback@NextWorker@leveldown@@UEAAXXZ@4HA 0000000180052412 f   iterator_async.obj
 0001:0005141e       ?dtor$3@?0??HandleOKCallback@NextWorker@leveldown@@UEAAXXZ@4HA 000000018005241e f   iterator_async.obj
 0001:0005142a       ?dtor$9@?0??HandleOKCallback@NextWorker@leveldown@@UEAAXXZ@4HA 000000018005242a f   iterator_async.obj
 0001:00051436       ?dtor$10@?0??HandleOKCallback@NextWorker@leveldown@@UEAAXXZ@4HA 0000000180052436 f   iterator_async.obj
 0001:00051446       ?dtor$12@?0??HandleOKCallback@NextWorker@leveldown@@UEAAXXZ@4HA 0000000180052446 f   iterator_async.obj
